 map

 Timestamp is 5c3e8020 (Tue Jan 15 19:51:44 2019)

 Preferred load address is 10000000

 Start         Length     Name                   Class
 0001:00000000 00000c70H .text                   CODE
 0001:00000c70 00000be0H .text$di                CODE
 0001:00001850 0008f970H .text$mn                CODE
 0001:000911c0 00002070H .text$x                 CODE
 0001:00093230 0000073cH .text$yd                CODE
 0002:00000000 000002d0H .idata$5                DATA
 0002:000002d0 00000004H .00cfg                  DATA
 0002:000002d4 00000004H .CRT$XCA                DATA
 0002:000002d8 00000004H .CRT$XCL                DATA
 0002:000002dc 0000007cH .CRT$XCU                DATA
 0002:00000358 00000004H .CRT$XCZ                DATA
 0002:0000035c 00000004H .CRT$XIA                DATA
 0002:00000360 00000004H .CRT$XIC                DATA
 0002:00000364 00000004H .CRT$XIZ                DATA
 0002:00000368 00000004H .CRT$XLA                DATA
 0002:0000036c 00000004H .CRT$XLZ                DATA
 0002:00000370 00000004H .CRT$XPA                DATA
 0002:00000374 00000004H .CRT$XPZ                DATA
 0002:00000378 00000004H .CRT$XTA                DATA
 0002:0000037c 00000004H .CRT$XTZ                DATA
 0002:00000380 00000000H .gfids$y                DATA
 0002:00000380 000170d8H .rdata                  DATA
 0002:00017458 00000018H .rdata$T                DATA
 0002:00017470 000007b0H .rdata$r                DATA
 0002:00017c20 00000318H .rdata$zzzdbg           DATA
 0002:00017f38 00000004H .rtc$IAA                DATA
 0002:00017f3c 00000004H .rtc$IZZ                DATA
 0002:00017f40 00000004H .rtc$TAA                DATA
 0002:00017f44 00000004H .rtc$TZZ                DATA
 0002:00017f48 00000004H .tls                    DATA
 0002:00017f4c 00000004H .tls$                   DATA
 0002:00017f50 00000008H .tls$ZZZ                DATA
 0002:00017f58 00001f70H .xdata$x                DATA
 0002:00019ec8 00000000H .edata                  DATA
 0002:00019ec8 00000118H .idata$2                DATA
 0002:00019fe0 00000014H .idata$3                DATA
 0002:00019ff4 000002d0H .idata$4                DATA
 0002:0001a2c4 000012acH .idata$6                DATA
 0003:00000000 00109728H .data                   DATA
 0003:00109728 00000458H .data$r                 DATA
 0003:00109b80 00017ca4H .bss                    DATA
 0004:00000000 00000060H .rsrc$01                DATA
 0004:00000060 00000180H .rsrc$02                DATA

  Address         Publics by Value              Rva+Base       Lib:Object

 0000:00000000       ___guard_fids_count        00000000     <absolute>
 0000:00000000       ___hybrid_code_map_count   00000000     <absolute>
 0000:00000000       ___safe_se_handler_count   00000000     <absolute>
 0000:00000000       ___guard_iat_count         00000000     <absolute>
 0000:00000000       ___dynamic_value_reloc_table 00000000     <absolute>
 0000:00000000       ___guard_longjmp_count     00000000     <absolute>
 0000:00000000       ___guard_fids_table        00000000     <absolute>
 0000:00000000       __except_list              00000000     <absolute>
 0000:00000000       ___volatile_metadata       00000000     <absolute>
 0000:00000000       ___guard_longjmp_table     00000000     <absolute>
 0000:00000000       ___guard_iat_table         00000000     <absolute>
 0000:00000000       ___enclave_config          00000000     <absolute>
 0000:00000000       ___hybrid_auxiliary_iat    00000000     <absolute>
 0000:00000000       ___safe_se_handler_table   00000000     <absolute>
 0000:00000000       ___hybrid_code_map         00000000     <absolute>
 0000:0000002c       __tls_array                0000002c     <absolute>
 0000:00000100       ___guard_flags             00000100     <absolute>
 0000:00009876       __ldused                   00009876     <absolute>
 0000:00000000       ___ImageBase               10000000     <linker-defined>
 0001:00000000       ??0CDetourEnableWriteOnCodePage@@QAE@PAEJ@Z 10001000 f i detours:detours.obj
 0001:00000080       ??1CDetourEnableWriteOnCodePage@@QAE@XZ 10001080 f i detours:detours.obj
 0001:000000f0       _DetourFunction@8          100010f0 f   detours:detours.obj
 0001:000003e0       ?SetPermission@CDetourEnableWriteOnCodePage@@QAEHK@Z 100013e0 f i detours:detours.obj
 0001:00000420       ?IsValid@CDetourEnableWriteOnCodePage@@QAEHXZ 10001420 f i detours:detours.obj
 0001:000004c0       ?DetourGenJmp@@YAPAEPAE00@Z 100014c0 f i detours:detours.obj
 0001:00000500       ?DetourGenBreak@@YAPAEPAE@Z 10001500 f i detours:detours.obj
 0001:00000520       _DetourGetFinalCode@8      10001520 f   detours:detours.obj
 0001:00000590       _DetourCopyInstruction@12  10001590 f   detours:disasm.obj
 0001:000005c0       ??0CDetourDis@@QAE@PAPAEPAJ@Z 100015c0 f   detours:disasm.obj
 0001:00000640       ?Set16BitOperand@CDetourDis@@IAEXXZ 10001640 f   detours:disasm.obj
 0001:00000660       ?Set32BitOperand@CDetourDis@@IAEXXZ 10001660 f   detours:disasm.obj
 0001:00000680       ?Set16BitAddress@CDetourDis@@IAEXXZ 10001680 f   detours:disasm.obj
 0001:000006a0       ?Set32BitAddress@CDetourDis@@IAEXXZ 100016a0 f   detours:disasm.obj
 0001:000006c0       ?CopyInstruction@CDetourDis@@QAEPAEPAE0@Z 100016c0 f   detours:disasm.obj
 0001:00000720       ?CopyBytes@CDetourDis@@IAEPAEPBUCOPYENTRY@1@PAE1@Z 10001720 f   detours:disasm.obj
 0001:00000900       ?CopyBytesPrefix@CDetourDis@@IAEPAEPBUCOPYENTRY@1@PAE1@Z 10001900 f   detours:disasm.obj
 0001:00000950       ?AdjustTarget@CDetourDis@@IAEPAEPAE0JJ@Z 10001950 f   detours:disasm.obj
 0001:00000a30       ?Invalid@CDetourDis@@IAEPAEPBUCOPYENTRY@1@PAE1@Z 10001a30 f   detours:disasm.obj
 0001:00000a50       ?Copy0F@CDetourDis@@IAEPAEPBUCOPYENTRY@1@PAE1@Z 10001a50 f   detours:disasm.obj
 0001:00000aa0       ?Copy66@CDetourDis@@IAEPAEPBUCOPYENTRY@1@PAE1@Z 10001aa0 f   detours:disasm.obj
 0001:00000ad0       ?Copy67@CDetourDis@@IAEPAEPBUCOPYENTRY@1@PAE1@Z 10001ad0 f   detours:disasm.obj
 0001:00000b00       ?CopyF6@CDetourDis@@IAEPAEPBUCOPYENTRY@1@PAE1@Z 10001b00 f   detours:disasm.obj
 0001:00000b60       ?CopyF7@CDetourDis@@IAEPAEPBUCOPYENTRY@1@PAE1@Z 10001b60 f   detours:disasm.obj
 0001:00000bc0       ?CopyFF@CDetourDis@@IAEPAEPBUCOPYENTRY@1@PAE1@Z 10001bc0 f   detours:disasm.obj
 0001:00001850       ?data@?$array@D$0BH@@std@@QAEPADXZ 10002850 f i Offsets.obj
 0001:00001850       ?data@?$array@D$0BI@@std@@QAEPADXZ 10002850 f i GameEvent.obj
 0001:00001850       ?data@?$array@D$0O@@std@@QAEPADXZ 10002850 f i GameEvent.obj
 0001:00001850       ?data@?$array@D$0BK@@std@@QAEPADXZ 10002850 f i EndScene.obj
 0001:00001850       ?data@?$array@D$0P@@std@@QAEPADXZ 10002850 f i EndScene.obj
 0001:00001850       ?data@?$array@D$0BE@@std@@QAEPADXZ 10002850 f i EndScene.obj
 0001:00001850       ?data@?$array@D$08@std@@QAEPADXZ 10002850 f i GameEvent.obj
 0001:00001850       ?data@?$array@D$06@std@@QAEPADXZ 10002850 f i Visuals.obj
 0001:00001850       ?data@?$array@D$0BD@@std@@QAEPADXZ 10002850 f i EndScene.obj
 0001:00001850       ?data@?$array@D$0N@@std@@QAEPADXZ 10002850 f i GameEvent.obj
 0001:00001850       ?data@?$array@D$0BB@@std@@QAEPADXZ 10002850 f i applyknife.obj
 0001:00001850       ?data@?$array@D$0BL@@std@@QAEPADXZ 10002850 f i applyknife.obj
 0001:00001850       ?data@?$array@D$0BC@@std@@QAEPADXZ 10002850 f i Visuals.obj
 0001:00001860       ??A?$array@D$0BC@@std@@QAEAADI@Z 10002860 f i Visuals.obj
 0001:00001860       ??A?$array@D$0BI@@std@@QAEAADI@Z 10002860 f i GameEvent.obj
 0001:00001860       ??A?$array@D$0P@@std@@QAEAADI@Z 10002860 f i EndScene.obj
 0001:00001860       ??A?$array@D$08@std@@QAEAADI@Z 10002860 f i GameEvent.obj
 0001:00001860       ??A?$array@D$0BD@@std@@QAEAADI@Z 10002860 f i EndScene.obj
 0001:00001860       ??A?$array@D$0BK@@std@@QAEAADI@Z 10002860 f i EndScene.obj
 0001:00001860       ??A?$array@D$0BH@@std@@QAEAADI@Z 10002860 f i Offsets.obj
 0001:00001860       ??A?$array@D$0O@@std@@QAEAADI@Z 10002860 f i GameEvent.obj
 0001:00001860       ??A?$array@D$0N@@std@@QAEAADI@Z 10002860 f i GameEvent.obj
 0001:00001860       ??A?$array@D$0BB@@std@@QAEAADI@Z 10002860 f i applyknife.obj
 0001:00001860       ??A?$array@D$0BE@@std@@QAEAADI@Z 10002860 f i EndScene.obj
 0001:00001860       ??A?$array@D$06@std@@QAEAADI@Z 10002860 f i Visuals.obj
 0001:00001860       ??A?$array@D$0BL@@std@@QAEAADI@Z 10002860 f i applyknife.obj
 0001:00001870       ?find@?$basic_string@DU?$char_traits@D@std@@V?$allocator@D@2@@std@@QBEIQBDI@Z 10002870 f i applyknife.obj
 0001:000018b0       ?_Tidy_deallocate@?$basic_string@DU?$char_traits@D@std@@V?$allocator@D@2@@std@@QAEXXZ 100028b0 f i applyknife.obj
 0001:000018b0       ??1?$basic_string@DU?$char_traits@D@std@@V?$allocator@D@2@@std@@QAE@XZ 100028b0 f i applyknife.obj
 0001:00001900       ??0?$basic_string@DU?$char_traits@D@std@@V?$allocator@D@2@@std@@QAE@QBD@Z 10002900 f i applyknife.obj
 0001:00001940       ?assign@?$basic_string@DU?$char_traits@D@std@@V?$allocator@D@2@@std@@QAEAAV12@QBDI@Z 10002940 f i applyknife.obj
 0001:00001a70       ??$_Traits_find@U?$char_traits@D@std@@@std@@YAIQBDII0I@Z 10002a70 f i applyknife.obj
 0001:00001b60       ?_Xlen@?$basic_string@DU?$char_traits@D@std@@V?$allocator@D@2@@std@@SAXXZ 10002b60 f i applyknife.obj
 0001:00001b70       ??1?$_Hash@V?$_Umap_traits@GVColor@@V?$_Uhash_compare@GU?$hash@G@std@@U?$equal_to@G@2@@std@@V?$allocator@U?$pair@$$CBGVColor@@@std@@@3@$0A@@std@@@std@@QAE@XZ 10002b70 f i Asus.obj
 0001:00001c10       ??1?$vector@PAURecvTable@@V?$allocator@PAURecvTable@@@std@@@std@@QAE@XZ 10002c10 f i NetVarManager.obj
 0001:00001c10       ??1?$vector@PAV?$ConfigValue@_N@@V?$allocator@PAV?$ConfigValue@_N@@@std@@@std@@QAE@XZ 10002c10 f i Config.obj
 0001:00001c10       ??1?$vector@PAV?$ConfigValue@M@@V?$allocator@PAV?$ConfigValue@M@@@std@@@std@@QAE@XZ 10002c10 f i Config.obj
 0001:00001c10       ??1?$vector@V?$_List_unchecked_iterator@V?$_List_val@U?$_List_simple_types@U?$pair@$$CBGVColor@@@std@@@std@@@std@@@std@@V?$allocator@V?$_List_unchecked_iterator@V?$_List_val@U?$_List_simple_types@U?$pair@$$CBGVColor@@@std@@@std@@@std@@@std@@@2@@std@@QAE@XZ 10002c10 f i Asus.obj
 0001:00001c10       ??1?$vector@V?$_List_unchecked_iterator@V?$_List_val@U?$_List_simple_types@U?$pair@$$CBHV?$vector@PBDV?$allocator@PBD@std@@@std@@@std@@@std@@@std@@@std@@V?$allocator@V?$_List_unchecked_iterator@V?$_List_val@U?$_List_simple_types@U?$pair@$$CBHV?$vector@PBDV?$allocator@PBD@std@@@std@@@std@@@std@@@std@@@std@@@2@@std@@QAE@XZ 10002c10 f i RageBot.obj
 0001:00001c10       ?_Tidy@?$vector@PBDV?$allocator@PBD@std@@@std@@AAEXXZ 10002c10 f i RageBot.obj
 0001:00001c10       ??1?$vector@PAV?$ConfigValue@H@@V?$allocator@PAV?$ConfigValue@H@@@std@@@std@@QAE@XZ 10002c10 f i Config.obj
 0001:00001c70       ??1?$list@U?$pair@$$CBGVColor@@@std@@V?$allocator@U?$pair@$$CBGVColor@@@std@@@2@@std@@QAE@XZ 10002c70 f i Asus.obj
 0001:00001cc0       ??0?$unordered_map@GVColor@@U?$hash@G@std@@U?$equal_to@G@3@V?$allocator@U?$pair@$$CBGVColor@@@std@@@3@@std@@QAE@XZ 10002cc0 f i Asus.obj
 0001:00001d80       ?assign@?$vector@V?$_List_unchecked_iterator@V?$_List_val@U?$_List_simple_types@U?$pair@$$CBGVColor@@@std@@@std@@@std@@@std@@V?$allocator@V?$_List_unchecked_iterator@V?$_List_val@U?$_List_simple_types@U?$pair@$$CBGVColor@@@std@@@std@@@std@@@std@@@2@@std@@QAEXIABV?$_List_unchecked_iterator@V?$_List_val@U?$_List_simple_types@U?$pair@$$CBGVColor@@@std@@@std@@@std@@@2@@Z 10002d80 f i Asus.obj
 0001:00001ee0       ?_Xlength@?$vector@Vtrace_info@@V?$allocator@Vtrace_info@@@std@@@std@@CAXXZ 10002ee0 f i GameEvent.obj
 0001:00001ee0       ?_Xlength@?$vector@PAV?$ConfigValue@_N@@V?$allocator@PAV?$ConfigValue@_N@@@std@@@std@@CAXXZ 10002ee0 f i Config.obj
 0001:00001ee0       ?_Xlength@?$vector@V?$_List_unchecked_iterator@V?$_List_val@U?$_List_simple_types@U?$pair@$$CBHV?$vector@PBDV?$allocator@PBD@std@@@std@@@std@@@std@@@std@@@std@@V?$allocator@V?$_List_unchecked_iterator@V?$_List_val@U?$_List_simple_types@U?$pair@$$CBHV?$vector@PBDV?$allocator@PBD@std@@@std@@@std@@@std@@@std@@@std@@@2@@std@@CAXXZ 10002ee0 f i RageBot.obj
 0001:00001ee0       ?_Xlength@?$vector@PBDV?$allocator@PBD@std@@@std@@CAXXZ 10002ee0 f i RageBot.obj
 0001:00001ee0       ?_Xlength@?$vector@PAV?$ConfigValue@H@@V?$allocator@PAV?$ConfigValue@H@@@std@@@std@@CAXXZ 10002ee0 f i Config.obj
 0001:00001ee0       ?_Xlength@?$vector@UPlayerAA@@V?$allocator@UPlayerAA@@@std@@@std@@CAXXZ 10002ee0 f i FrameStageNotify.obj
 0001:00001ee0       ?_Xlength@?$vector@V?$basic_string@DU?$char_traits@D@std@@V?$allocator@D@2@@std@@V?$allocator@V?$basic_string@DU?$char_traits@D@std@@V?$allocator@D@2@@std@@@2@@std@@CAXXZ 10002ee0 f i Config.obj
 0001:00001ee0       ?_Xlength@?$vector@PAV?$ConfigValue@M@@V?$allocator@PAV?$ConfigValue@M@@@std@@@std@@CAXXZ 10002ee0 f i Config.obj
 0001:00001ee0       ?_Xlength@?$vector@V?$_List_unchecked_iterator@V?$_List_val@U?$_List_simple_types@U?$pair@$$CBGVColor@@@std@@@std@@@std@@@std@@V?$allocator@V?$_List_unchecked_iterator@V?$_List_val@U?$_List_simple_types@U?$pair@$$CBGVColor@@@std@@@std@@@std@@@std@@@2@@std@@CAXXZ 10002ee0 f i Asus.obj
 0001:00001ee0       ?_Xlength@?$vector@PAURecvTable@@V?$allocator@PAURecvTable@@@std@@@std@@CAXXZ 10002ee0 f i NetVarManager.obj
 0001:00001ef0       ?_Reallocate_exactly@?$vector@V?$_List_unchecked_iterator@V?$_List_val@U?$_List_simple_types@U?$pair@$$CBGVColor@@@std@@@std@@@std@@@std@@V?$allocator@V?$_List_unchecked_iterator@V?$_List_val@U?$_List_simple_types@U?$pair@$$CBGVColor@@@std@@@std@@@std@@@std@@@2@@std@@AAEXI@Z 10002ef0 f i Asus.obj
 0001:00001fb0       ??$_Fill_unchecked@PAV?$_List_unchecked_iterator@V?$_List_val@U?$_List_simple_types@U?$pair@$$CBGVColor@@@std@@@std@@@std@@@std@@V12@@std@@YAXPAV?$_List_unchecked_iterator@V?$_List_val@U?$_List_simple_types@U?$pair@$$CBGVColor@@@std@@@std@@@std@@@0@0ABV10@@Z 10002fb0 f i Asus.obj
 0001:00001fb0       ??$_Fill_unchecked@PAV?$_List_unchecked_iterator@V?$_List_val@U?$_List_simple_types@U?$pair@$$CBHV?$vector@PBDV?$allocator@PBD@std@@@std@@@std@@@std@@@std@@@std@@V12@@std@@YAXPAV?$_List_unchecked_iterator@V?$_List_val@U?$_List_simple_types@U?$pair@$$CBHV?$vector@PBDV?$allocator@PBD@std@@@std@@@std@@@std@@@std@@@0@0ABV10@@Z 10002fb0 f i RageBot.obj
 0001:00002030       ?_Buynode0@?$_List_alloc@U?$_List_base_types@U?$pair@$$CBGVColor@@@std@@V?$allocator@U?$pair@$$CBGVColor@@@std@@@2@@std@@@std@@QAEPAU?$_List_node@U?$pair@$$CBGVColor@@@std@@PAX@2@PAU32@0@Z 10003030 f i Asus.obj
 0001:00002050       ___local_stdio_printf_options 10003050 f i DLLMain.obj
 0001:00002060       __vsprintf_s_l             10003060 f i DLLMain.obj
 0001:00002090       ?pcg32_advance@pcg@cx@@YA_K_KH@Z 10003090 f i DLLMain.obj
 0001:000020e0       ?decrypt@detail@cx@@YA?AV?$basic_string@DU?$char_traits@D@std@@V?$allocator@D@2@@std@@_KPBDI@Z 100030e0 f i DLLMain.obj
 0001:00002310       ?reserve@?$basic_string@DU?$char_traits@D@std@@V?$allocator@D@2@@std@@QAEXI@Z 10003310 f i DLLMain.obj
 0001:000024b0       ?c_str@?$basic_string@DU?$char_traits@D@std@@V?$allocator@D@2@@std@@QBEPBDXZ 100034b0 f i DLLMain.obj
 0001:000024c0       ?push_back@?$basic_string@DU?$char_traits@D@std@@V?$allocator@D@2@@std@@QAEXD@Z 100034c0 f i DLLMain.obj
 0001:00002610       ?append@?$basic_string@DU?$char_traits@D@std@@V?$allocator@D@2@@std@@QAEAAV12@ABV12@@Z 10003610 f i DLLMain.obj
 0001:00002680       ??4?$basic_string@DU?$char_traits@D@std@@V?$allocator@D@2@@std@@QAEAAV01@$$QAV01@@Z 10003680 f i DLLMain.obj
 0001:000026c0       ??0?$basic_string@DU?$char_traits@D@std@@V?$allocator@D@2@@std@@QAE@ABV01@@Z 100036c0 f i DLLMain.obj
 0001:00002780       ??$_Reallocate_grow_by@V<lambda_ab246b20b9526e2ef7792587e4298a77>@@PBDI@?$basic_string@DU?$char_traits@D@std@@V?$allocator@D@2@@std@@QAEAAV01@IV<lambda_ab246b20b9526e2ef7792587e4298a77>@@PBDI@Z 10003780 f i DLLMain.obj
 0001:000028d0       ??$encrypt_at@$0?COLIKJCLFKEEBNDD@@detail@cx@@YADPBDI@Z 100038d0 f i DLLMain.obj
 0001:00002930       _acosf                     10003930 f i AntiAim.obj
 0001:00002950       _atan2f                    10003950 f i AntiAim.obj
 0001:00002990       _cosf                      10003990 f i AntiAim.obj
 0001:000029b0       _fabsf                     100039b0 f i AntiAim.obj
 0001:000029d0       _fmodf                     100039d0 f i AntiAim.obj
 0001:00002a10       _powf                      10003a10 f i AntiAim.obj
 0001:00002a30       _sinf                      10003a30 f i AntiAim.obj
 0001:00002a50       _sqrtf                     10003a50 f i AntiAim.obj
 0001:00002a70       ??HVector@@QBE?AV0@ABV0@@Z 10003a70 f i AntiAim.obj
 0001:00002ab0       ?Clamp@QAngle@@QAE?AV1@XZ  10003ab0 f i AntiAim.obj
 0001:00002b80       ?Init@Ray_t@@QAEXVVector@@0@Z 10003b80 f i AntiAim.obj
 0001:00002c40       __is_c_termination_complete 10003c40 f i MSVCRT:ucrt_stubs.obj
 0001:00002c40       ?GetTraceType@CTraceFilter@@UBE?AW4TraceType_t@@XZ 10003c40 f i AntiAim.obj
 0001:00002c40       ___scrt_stub_for_is_c_termination_complete 10003c40 f i MSVCRT:ucrt_stubs.obj
 0001:00002c40       ?type@?$Value@$0A@UNullStruct@json11@@@json11@@MBE?AW4Type@Json@2@XZ 10003c40 f i json11.obj
 0001:00002c40       ?GetTraceType@ITraceFilter@@UAE?AW4TraceType_t@@XZ 10003c40 f i AntiAim.obj
 0001:00002c50       ?ShouldHitEntity@CTraceFilter@@UAE_NPAVCBaseEntity@@H@Z 10003c50 f i AntiAim.obj
 0001:00002c80       ?Normalized@QAngle@@QAE?AV1@XZ 10003c80 f i LegitBot.obj
 0001:00002d60       __vsnprintf_l              10003d60 f i Miscellaneous.obj
 0001:00002da0       _sprintf                   10003da0 f i Miscellaneous.obj
 0001:00002dc0       ?append@?$basic_string@DU?$char_traits@D@std@@V?$allocator@D@2@@std@@QAEAAV12@QBD@Z 10003dc0 f i Miscellaneous.obj
 0001:00002e30       ?MD5_PseudoRandom@@YAII@Z  10003e30 f i PredictionSystem.obj
 0001:00002f20       ??1?$pair@$$CBHV?$vector@PBDV?$allocator@PBD@std@@@std@@@std@@QAE@XZ 10003f20 f i RageBot.obj
 0001:00002f30       ??1?$_Hash@V?$_Umap_traits@HV?$vector@PBDV?$allocator@PBD@std@@@std@@V?$_Uhash_compare@HU?$hash@H@std@@U?$equal_to@H@2@@2@V?$allocator@U?$pair@$$CBHV?$vector@PBDV?$allocator@PBD@std@@@std@@@std@@@2@$0A@@std@@@std@@QAE@XZ 10003f30 f i RageBot.obj
 0001:00002ff0       ??1?$list@U?$pair@$$CBHV?$vector@PBDV?$allocator@PBD@std@@@std@@@std@@V?$allocator@U?$pair@$$CBHV?$vector@PBDV?$allocator@PBD@std@@@std@@@std@@@2@@std@@QAE@XZ 10003ff0 f i RageBot.obj
 0001:00003040       ??1?$vector@PBDV?$allocator@PBD@std@@@std@@QAE@XZ 10004040 f i RageBot.obj
 0001:00003050       ??0?$vector@PBDV?$allocator@PBD@std@@@std@@QAE@ABV01@@Z 10004050 f i RageBot.obj
 0001:000030b0       ?_Buy@?$vector@PBDV?$allocator@PBD@std@@@std@@AAE_NI@Z 100040b0 f i RageBot.obj
 0001:00003170       ?_Init@?$_Hash@V?$_Umap_traits@HV?$vector@PBDV?$allocator@PBD@std@@@std@@V?$_Uhash_compare@HU?$hash@H@std@@U?$equal_to@H@2@@2@V?$allocator@U?$pair@$$CBHV?$vector@PBDV?$allocator@PBD@std@@@std@@@std@@@2@$0A@@std@@@std@@IAEXI@Z 10004170 f i RageBot.obj
 0001:000031d0       ?assign@?$vector@V?$_List_unchecked_iterator@V?$_List_val@U?$_List_simple_types@U?$pair@$$CBHV?$vector@PBDV?$allocator@PBD@std@@@std@@@std@@@std@@@std@@@std@@V?$allocator@V?$_List_unchecked_iterator@V?$_List_val@U?$_List_simple_types@U?$pair@$$CBHV?$vector@PBDV?$allocator@PBD@std@@@std@@@std@@@std@@@std@@@std@@@2@@std@@QAEXIABV?$_List_unchecked_iterator@V?$_List_val@U?$_List_simple_types@U?$pair@$$CBHV?$vector@PBDV?$allocator@PBD@std@@@std@@@std@@@std@@@std@@@2@@Z 100041d0 f i RageBot.obj
 0001:00003340       ?_Reallocate_exactly@?$vector@V?$_List_unchecked_iterator@V?$_List_val@U?$_List_simple_types@U?$pair@$$CBHV?$vector@PBDV?$allocator@PBD@std@@@std@@@std@@@std@@@std@@@std@@V?$allocator@V?$_List_unchecked_iterator@V?$_List_val@U?$_List_simple_types@U?$pair@$$CBHV?$vector@PBDV?$allocator@PBD@std@@@std@@@std@@@std@@@std@@@std@@@2@@std@@AAEXI@Z 10004340 f i RageBot.obj
 0001:00003450       ??$_Range_construct_or_tidy@PBQBD@?$vector@PBDV?$allocator@PBD@std@@@std@@AAEXPBQBD0Uforward_iterator_tag@1@@Z 10004450 f i RageBot.obj
 0001:00003490       ??$insert@PBU?$pair@$$CBHV?$vector@PBDV?$allocator@PBD@std@@@std@@@std@@@?$_Hash@V?$_Umap_traits@HV?$vector@PBDV?$allocator@PBD@std@@@std@@V?$_Uhash_compare@HU?$hash@H@std@@U?$equal_to@H@2@@2@V?$allocator@U?$pair@$$CBHV?$vector@PBDV?$allocator@PBD@std@@@std@@@std@@@2@$0A@@std@@@std@@QAEXPBU?$pair@$$CBHV?$vector@PBDV?$allocator@PBD@std@@@std@@@1@0@Z 10004490 f i RageBot.obj
 0001:00003520       ?_Buynode0@?$_List_alloc@U?$_List_base_types@U?$pair@$$CBHV?$vector@PBDV?$allocator@PBD@std@@@std@@@std@@V?$allocator@U?$pair@$$CBHV?$vector@PBDV?$allocator@PBD@std@@@std@@@std@@@2@@std@@@std@@QAEPAU?$_List_node@U?$pair@$$CBHV?$vector@PBDV?$allocator@PBD@std@@@std@@@std@@PAX@2@PAU32@0@Z 10004520 f i RageBot.obj
 0001:00003550       ?deallocate@?$allocator@U?$_List_node@U?$pair@$$CBHV?$vector@PBDV?$allocator@PBD@std@@@std@@@std@@PAX@std@@@std@@QAEXQAU?$_List_node@U?$pair@$$CBHV?$vector@PBDV?$allocator@PBD@std@@@std@@@std@@PAX@2@I@Z 10004550 f i RageBot.obj
 0001:00003570       ?_Make_iter@?$_Hash@V?$_Umap_traits@HV?$vector@PBDV?$allocator@PBD@std@@@std@@V?$_Uhash_compare@HU?$hash@H@std@@U?$equal_to@H@2@@2@V?$allocator@U?$pair@$$CBHV?$vector@PBDV?$allocator@PBD@std@@@std@@@std@@@2@$0A@@std@@@std@@QBE?AV?$_List_iterator@V?$_List_val@U?$_List_simple_types@U?$pair@$$CBHV?$vector@PBDV?$allocator@PBD@std@@@std@@@std@@@std@@@std@@@2@V?$_List_unchecked_const_iterator@V?$_List_val@U?$_List_simple_types@U?$pair@$$CBHV?$vector@PBDV?$allocator@PBD@std@@@std@@@std@@@std@@@std@@U_Iterator_base0@2@@2@@Z 10004570 f i RageBot.obj
 0001:00003580       ??$_Insert@AAU?$pair@$$CBHV?$vector@PBDV?$allocator@PBD@std@@@std@@@std@@V?$_List_unchecked_iterator@V?$_List_val@U?$_List_simple_types@U?$pair@$$CBHV?$vector@PBDV?$allocator@PBD@std@@@std@@@std@@@std@@@std@@@2@@?$_Hash@V?$_Umap_traits@HV?$vector@PBDV?$allocator@PBD@std@@@std@@V?$_Uhash_compare@HU?$hash@H@std@@U?$equal_to@H@2@@2@V?$allocator@U?$pair@$$CBHV?$vector@PBDV?$allocator@PBD@std@@@std@@@std@@@2@$0A@@std@@@std@@IAE?AU?$pair@V?$_List_iterator@V?$_List_val@U?$_List_simple_types@U?$pair@$$CBHV?$vector@PBDV?$allocator@PBD@std@@@std@@@std@@@std@@@std@@@std@@_N@1@AAU?$pair@$$CBHV?$vector@PBDV?$allocator@PBD@std@@@std@@@1@V?$_List_unchecked_iterator@V?$_List_val@U?$_List_simple_types@U?$pair@$$CBHV?$vector@PBDV?$allocator@PBD@std@@@std@@@std@@@std@@@std@@@1@@Z 10004580 f i RageBot.obj
 0001:000037a0       ??$_Buynode@ABU?$pair@$$CBHV?$vector@PBDV?$allocator@PBD@std@@@std@@@std@@@?$_List_buy@U?$pair@$$CBHV?$vector@PBDV?$allocator@PBD@std@@@std@@@std@@V?$allocator@U?$pair@$$CBHV?$vector@PBDV?$allocator@PBD@std@@@std@@@std@@@2@@std@@QAEPAU?$_List_node@U?$pair@$$CBHV?$vector@PBDV?$allocator@PBD@std@@@std@@@std@@PAX@1@PAU21@0ABU?$pair@$$CBHV?$vector@PBDV?$allocator@PBD@std@@@std@@@1@@Z 100047a0 f i RageBot.obj
 0001:00003820       ??$erase@V?$_List_iterator@V?$_List_val@U?$_List_simple_types@U?$pair@$$CBHV?$vector@PBDV?$allocator@PBD@std@@@std@@@std@@@std@@@std@@@std@@X@?$_Hash@V?$_Umap_traits@HV?$vector@PBDV?$allocator@PBD@std@@@std@@V?$_Uhash_compare@HU?$hash@H@std@@U?$equal_to@H@2@@2@V?$allocator@U?$pair@$$CBHV?$vector@PBDV?$allocator@PBD@std@@@std@@@std@@@2@$0A@@std@@@std@@QAE?AV?$_List_iterator@V?$_List_val@U?$_List_simple_types@U?$pair@$$CBHV?$vector@PBDV?$allocator@PBD@std@@@std@@@std@@@std@@@std@@@1@V21@@Z 10004820 f i RageBot.obj
 0001:000038d0       ??$_Buynode@ABUpiecewise_construct_t@std@@V?$tuple@ABH@2@V?$tuple@$$V@2@@?$_List_buy@U?$pair@$$CBHV?$vector@PBDV?$allocator@PBD@std@@@std@@@std@@V?$allocator@U?$pair@$$CBHV?$vector@PBDV?$allocator@PBD@std@@@std@@@std@@@2@@std@@QAEPAU?$_List_node@U?$pair@$$CBHV?$vector@PBDV?$allocator@PBD@std@@@std@@@std@@PAX@1@PAU21@0ABUpiecewise_construct_t@1@$$QAV?$tuple@ABH@1@$$QAV?$tuple@$$V@1@@Z 100048d0 f i RageBot.obj
 0001:00003910       ??1?$list@HV?$allocator@H@std@@@std@@QAE@XZ 10004910 f i Visuals.obj
 0001:00003960       ??0?$list@HV?$allocator@H@std@@@std@@QAE@$$QAV01@@Z 10004960 f i Visuals.obj
 0001:000039a0       ?substr@?$basic_string@DU?$char_traits@D@std@@V?$allocator@D@2@@std@@QBE?AV12@II@Z 100049a0 f i Visuals.obj
 0001:000039f0       ?_Xran@?$_String_val@U?$_Simple_types@D@std@@@std@@SAXXZ 100049f0 f i Visuals.obj
 0001:00003a00       ?_Buynode0@?$_List_alloc@U?$_List_base_types@HV?$allocator@H@std@@@std@@@std@@QAEPAU?$_List_node@HPAX@2@PAU32@0@Z 10004a00 f i Visuals.obj
 0001:00003a30       ??$sprintf_s@$0PP@@@YAHAAY0PP@DPBDZZ 10004a30 f i Visuals.obj
 0001:00003a50       ??$_Buynode@ABH@?$_List_buy@HV?$allocator@H@std@@@std@@QAEPAU?$_List_node@HPAX@1@PAU21@0ABH@Z 10004a50 f i Visuals.obj
 0001:00003a70       ??$_Traits_equal@U?$char_traits@D@std@@@std@@YA_NQBDI0I@Z 10004a70 f i Visuals.obj
 0001:00003ae0       ??0trace_info@@QAE@VVector@@0MH@Z 10004ae0 f i GameEvent.obj
 0001:00003b30       ??$emplace_back@Vtrace_info@@@?$vector@Vtrace_info@@V?$allocator@Vtrace_info@@@std@@@std@@QAEX$$QAVtrace_info@@@Z 10004b30 f i GameEvent.obj
 0001:00003b70       ??$sprintf_s@$0IA@@@YAHAAY0IA@DPBDZZ 10004b70 f i GameEvent.obj
 0001:00003b90       ??$_Emplace_reallocate@Vtrace_info@@@?$vector@Vtrace_info@@V?$allocator@Vtrace_info@@@std@@@std@@QAEPAVtrace_info@@QAV2@$$QAV2@@Z 10004b90 f i GameEvent.obj
 0001:00003d40       _sprintf_s                 10004d40 f i EndScene.obj
 0001:00003dc0       ??B?$encrypted_string@$0?FLHLIONHJGHIGJBF@$04@cx@@QBE?AV?$basic_string@DU?$char_traits@D@std@@V?$allocator@D@2@@std@@XZ 10004dc0 f i EndScene.obj
 0001:00003df0       ??B?$encrypted_string@$0?FLHLIONHJGHIGJBG@$08@cx@@QBE?AV?$basic_string@DU?$char_traits@D@std@@V?$allocator@D@2@@std@@XZ 10004df0 f i EndScene.obj
 0001:00003e20       ??B?$encrypted_string@$0?FLHLIONHJGHIGJBH@$04@cx@@QBE?AV?$basic_string@DU?$char_traits@D@std@@V?$allocator@D@2@@std@@XZ 10004e20 f i EndScene.obj
 0001:00003e50       ??B?$encrypted_string@$0?FLHLIONHJGHIGJBJ@$08@cx@@QBE?AV?$basic_string@DU?$char_traits@D@std@@V?$allocator@D@2@@std@@XZ 10004e50 f i EndScene.obj
 0001:00003e80       ??B?$encrypted_string@$0?FLHLIONHJGHIGJBK@$08@cx@@QBE?AV?$basic_string@DU?$char_traits@D@std@@V?$allocator@D@2@@std@@XZ 10004e80 f i EndScene.obj
 0001:00003eb0       ??B?$encrypted_string@$0?FLHLIONHJGHIGJBL@$08@cx@@QBE?AV?$basic_string@DU?$char_traits@D@std@@V?$allocator@D@2@@std@@XZ 10004eb0 f i EndScene.obj
 0001:00003ee0       ??B?$encrypted_string@$0?FLHLIONHJGHIGJBM@$08@cx@@QBE?AV?$basic_string@DU?$char_traits@D@std@@V?$allocator@D@2@@std@@XZ 10004ee0 f i EndScene.obj
 0001:00003f10       ??B?$encrypted_string@$0?FLHLIONHJGHIGJCJ@$0BL@@cx@@QBE?AV?$basic_string@DU?$char_traits@D@std@@V?$allocator@D@2@@std@@XZ 10004f10 f i EndScene.obj
 0001:00003f40       ??B?$encrypted_string@$0?FLHLIONHJGHIGJGK@$06@cx@@QBE?AV?$basic_string@DU?$char_traits@D@std@@V?$allocator@D@2@@std@@XZ 10004f40 f i EndScene.obj
 0001:00003f70       ??B?$encrypted_string@$0?FLHLIONHJGHIGJKL@$0M@@cx@@QBE?AV?$basic_string@DU?$char_traits@D@std@@V?$allocator@D@2@@std@@XZ 10004f70 f i EndScene.obj
 0001:00003fa0       ??B?$encrypted_string@$0?FLHLIONHJGHIGJOO@$0P@@cx@@QBE?AV?$basic_string@DU?$char_traits@D@std@@V?$allocator@D@2@@std@@XZ 10004fa0 f i EndScene.obj
 0001:00003fd0       ??B?$encrypted_string@$0?FLHLIONHJGHIGKBP@$0BA@@cx@@QBE?AV?$basic_string@DU?$char_traits@D@std@@V?$allocator@D@2@@std@@XZ 10004fd0 f i EndScene.obj
 0001:00004000       ??B?$encrypted_string@$0?FLHLIONHJGHIGKFA@$0P@@cx@@QBE?AV?$basic_string@DU?$char_traits@D@std@@V?$allocator@D@2@@std@@XZ 10005000 f i EndScene.obj
 0001:00004030       ??B?$encrypted_string@$0?FLHLIONHJGHIGKIB@$0P@@cx@@QBE?AV?$basic_string@DU?$char_traits@D@std@@V?$allocator@D@2@@std@@XZ 10005030 f i EndScene.obj
 0001:00004060       ??B?$encrypted_string@$0?FLHLIONHJGHIGKPL@$0L@@cx@@QBE?AV?$basic_string@DU?$char_traits@D@std@@V?$allocator@D@2@@std@@XZ 10005060 f i EndScene.obj
 0001:00004090       ??B?$encrypted_string@$0?FLHLIONHJGHIGLHF@$08@cx@@QBE?AV?$basic_string@DU?$char_traits@D@std@@V?$allocator@D@2@@std@@XZ 10005090 f i EndScene.obj
 0001:000040c0       ??B?$encrypted_string@$0?FLHLIONHJGHIGLOP@$09@cx@@QBE?AV?$basic_string@DU?$char_traits@D@std@@V?$allocator@D@2@@std@@XZ 100050c0 f i EndScene.obj
 0001:000040f0       ??B?$encrypted_string@$0?FLHLIONHJGHIGMGJ@$0L@@cx@@QBE?AV?$basic_string@DU?$char_traits@D@std@@V?$allocator@D@2@@std@@XZ 100050f0 f i EndScene.obj
 0001:00004120       ??B?$encrypted_string@$0?FLHLIONHJGHIGMOD@$07@cx@@QBE?AV?$basic_string@DU?$char_traits@D@std@@V?$allocator@D@2@@std@@XZ 10005120 f i EndScene.obj
 0001:00004150       ??B?$encrypted_string@$0?FLHLIONHJGHIGNCG@$04@cx@@QBE?AV?$basic_string@DU?$char_traits@D@std@@V?$allocator@D@2@@std@@XZ 10005150 f i EndScene.obj
 0001:00004180       ??B?$encrypted_string@$0?FLHLIONHJGHIGNGO@$05@cx@@QBE?AV?$basic_string@DU?$char_traits@D@std@@V?$allocator@D@2@@std@@XZ 10005180 f i EndScene.obj
 0001:000041b0       ??B?$encrypted_string@$0?FLHLIONHJGHIGNLF@$06@cx@@QBE?AV?$basic_string@DU?$char_traits@D@std@@V?$allocator@D@2@@std@@XZ 100051b0 f i EndScene.obj
 0001:000041e0       ??B?$encrypted_string@$0?FLHLIONHJGHIGNOL@$06@cx@@QBE?AV?$basic_string@DU?$char_traits@D@std@@V?$allocator@D@2@@std@@XZ 100051e0 f i EndScene.obj
 0001:00004210       ??B?$encrypted_string@$0?FLHLIONHJGHIGOCK@$06@cx@@QBE?AV?$basic_string@DU?$char_traits@D@std@@V?$allocator@D@2@@std@@XZ 10005210 f i EndScene.obj
 0001:00004240       ??B?$encrypted_string@$0?FLHLIONHJGHIGOGA@$06@cx@@QBE?AV?$basic_string@DU?$char_traits@D@std@@V?$allocator@D@2@@std@@XZ 10005240 f i EndScene.obj
 0001:00004270       ??B?$encrypted_string@$0?FLHLIONHJGHIGOLG@$04@cx@@QBE?AV?$basic_string@DU?$char_traits@D@std@@V?$allocator@D@2@@std@@XZ 10005270 f i EndScene.obj
 0001:000042a0       ??B?$encrypted_string@$0?FLHLIONHJGHIGOPK@$03@cx@@QBE?AV?$basic_string@DU?$char_traits@D@std@@V?$allocator@D@2@@std@@XZ 100052a0 f i EndScene.obj
 0001:000042d0       ??B?$encrypted_string@$0?FLHLIONHJGHIGPDE@$03@cx@@QBE?AV?$basic_string@DU?$char_traits@D@std@@V?$allocator@D@2@@std@@XZ 100052d0 f i EndScene.obj
 0001:00004300       ??B?$encrypted_string@$0?FLHLIONHJGHIGPHN@$03@cx@@QBE?AV?$basic_string@DU?$char_traits@D@std@@V?$allocator@D@2@@std@@XZ 10005300 f i EndScene.obj
 0001:00004330       ??B?$encrypted_string@$0?FLHLIONHJGHIGPMJ@$05@cx@@QBE?AV?$basic_string@DU?$char_traits@D@std@@V?$allocator@D@2@@std@@XZ 10005330 f i EndScene.obj
 0001:00004360       ??B?$encrypted_string@$0?FLHLIONHJGHIHABI@$05@cx@@QBE?AV?$basic_string@DU?$char_traits@D@std@@V?$allocator@D@2@@std@@XZ 10005360 f i EndScene.obj
 0001:00004390       ??B?$encrypted_string@$0?FLHLIONHJGHIHAGE@$09@cx@@QBE?AV?$basic_string@DU?$char_traits@D@std@@V?$allocator@D@2@@std@@XZ 10005390 f i EndScene.obj
 0001:000043c0       ??B?$encrypted_string@$0?FLHLIONHJGHIHAJC@$05@cx@@QBE?AV?$basic_string@DU?$char_traits@D@std@@V?$allocator@D@2@@std@@XZ 100053c0 f i EndScene.obj
 0001:000043f0       ??B?$encrypted_string@$0?FLHLIONHJGHIHAMD@$05@cx@@QBE?AV?$basic_string@DU?$char_traits@D@std@@V?$allocator@D@2@@std@@XZ 100053f0 f i EndScene.obj
 0001:00004420       ??B?$encrypted_string@$0?FLHLIONHJGHIHBAP@$08@cx@@QBE?AV?$basic_string@DU?$char_traits@D@std@@V?$allocator@D@2@@std@@XZ 10005420 f i EndScene.obj
 0001:00004450       ??B?$encrypted_string@$0?FLHLIONHJGHIHBEM@$06@cx@@QBE?AV?$basic_string@DU?$char_traits@D@std@@V?$allocator@D@2@@std@@XZ 10005450 f i EndScene.obj
 0001:00004480       ??B?$encrypted_string@$0?FLHLIONHJGHIHBIP@$03@cx@@QBE?AV?$basic_string@DU?$char_traits@D@std@@V?$allocator@D@2@@std@@XZ 10005480 f i EndScene.obj
 0001:000044b0       ??B?$encrypted_string@$0?FLHLIONHJGHIHBNF@$06@cx@@QBE?AV?$basic_string@DU?$char_traits@D@std@@V?$allocator@D@2@@std@@XZ 100054b0 f i EndScene.obj
 0001:000044e0       ??B?$encrypted_string@$0?FLHLIONHJGHIHCBL@$04@cx@@QBE?AV?$basic_string@DU?$char_traits@D@std@@V?$allocator@D@2@@std@@XZ 100054e0 f i EndScene.obj
 0001:00004510       ??B?$encrypted_string@$0?FLHLIONHJGHIHCED@$04@cx@@QBE?AV?$basic_string@DU?$char_traits@D@std@@V?$allocator@D@2@@std@@XZ 10005510 f i EndScene.obj
 0001:00004540       ??B?$encrypted_string@$0?FLHLIONHJGHIHCIJ@$08@cx@@QBE?AV?$basic_string@DU?$char_traits@D@std@@V?$allocator@D@2@@std@@XZ 10005540 f i EndScene.obj
 0001:00004570       ??B?$encrypted_string@$0?FLHLIONHJGHIHCMG@$05@cx@@QBE?AV?$basic_string@DU?$char_traits@D@std@@V?$allocator@D@2@@std@@XZ 10005570 f i EndScene.obj
 0001:000045a0       ??B?$encrypted_string@$0?FLHLIONHJGHIHCPH@$05@cx@@QBE?AV?$basic_string@DU?$char_traits@D@std@@V?$allocator@D@2@@std@@XZ 100055a0 f i EndScene.obj
 0001:000045d0       ??B?$encrypted_string@$0?FLHLIONHJGHIHDEA@$03@cx@@QBE?AV?$basic_string@DU?$char_traits@D@std@@V?$allocator@D@2@@std@@XZ 100055d0 f i EndScene.obj
 0001:00004600       ??B?$encrypted_string@$0?FLHLIONHJGHIHDHN@$03@cx@@QBE?AV?$basic_string@DU?$char_traits@D@std@@V?$allocator@D@2@@std@@XZ 10005600 f i EndScene.obj
 0001:00004630       ??B?$encrypted_string@$0?FLHLIONHJGHIHDNC@$05@cx@@QBE?AV?$basic_string@DU?$char_traits@D@std@@V?$allocator@D@2@@std@@XZ 10005630 f i EndScene.obj
 0001:00004660       ??1?$vector@V?$basic_string@DU?$char_traits@D@std@@V?$allocator@D@2@@std@@V?$allocator@V?$basic_string@DU?$char_traits@D@std@@V?$allocator@D@2@@std@@@2@@std@@QAE@XZ 10005660 f i EndScene.obj
 0001:000046e0       ?erase@?$basic_string@DU?$char_traits@D@std@@V?$allocator@D@2@@std@@QAEAAV12@II@Z 100056e0 f i EndScene.obj
 0001:00004730       ?_Xrange@?$vector@V?$basic_string@DU?$char_traits@D@std@@V?$allocator@D@2@@std@@V?$allocator@V?$basic_string@DU?$char_traits@D@std@@V?$allocator@D@2@@std@@@2@@std@@CAXXZ 10005730 f i EndScene.obj
 0001:00004740       ?_Destroy@?$vector@V?$basic_string@DU?$char_traits@D@std@@V?$allocator@D@2@@std@@V?$allocator@V?$basic_string@DU?$char_traits@D@std@@V?$allocator@D@2@@std@@@2@@std@@AAEXPAV?$basic_string@DU?$char_traits@D@std@@V?$allocator@D@2@@2@0@Z 10005740 f i EndScene.obj
 0001:00004760       ?deallocate@?$allocator@V?$basic_string@DU?$char_traits@D@std@@V?$allocator@D@2@@std@@@std@@QAEXQAV?$basic_string@DU?$char_traits@D@std@@V?$allocator@D@2@@2@I@Z 10005760 f i EndScene.obj
 0001:000047a0       ??$make_encrypted_string@$0?FLHLIONHJGHIHDHN@$03@cx@@YA?AV?$encrypted_string@$0?FLHLIONHJGHIHDHN@$03@0@AAY03$$CBD@Z 100057a0 f i EndScene.obj
 0001:000047e0       ??$make_encrypted_string@$0?FLHLIONHJGHIHDEA@$03@cx@@YA?AV?$encrypted_string@$0?FLHLIONHJGHIHDEA@$03@0@AAY03$$CBD@Z 100057e0 f i EndScene.obj
 0001:00004820       ??$make_encrypted_string@$0?FLHLIONHJGHIHCPH@$05@cx@@YA?AV?$encrypted_string@$0?FLHLIONHJGHIHCPH@$05@0@AAY05$$CBD@Z 10005820 f i EndScene.obj
 0001:00004880       ??$make_encrypted_string@$0?FLHLIONHJGHIHCMG@$05@cx@@YA?AV?$encrypted_string@$0?FLHLIONHJGHIHCMG@$05@0@AAY05$$CBD@Z 10005880 f i EndScene.obj
 0001:000048e0       ??$make_encrypted_string@$0?FLHLIONHJGHIHCIJ@$08@cx@@YA?AV?$encrypted_string@$0?FLHLIONHJGHIHCIJ@$08@0@AAY08$$CBD@Z 100058e0 f i EndScene.obj
 0001:00004960       ??$make_encrypted_string@$0?FLHLIONHJGHIHCED@$04@cx@@YA?AV?$encrypted_string@$0?FLHLIONHJGHIHCED@$04@0@AAY04$$CBD@Z 10005960 f i EndScene.obj
 0001:000049b0       ??$make_encrypted_string@$0?FLHLIONHJGHIHCBL@$04@cx@@YA?AV?$encrypted_string@$0?FLHLIONHJGHIHCBL@$04@0@AAY04$$CBD@Z 100059b0 f i EndScene.obj
 0001:00004a00       ??$make_encrypted_string@$0?FLHLIONHJGHIHBNF@$06@cx@@YA?AV?$encrypted_string@$0?FLHLIONHJGHIHBNF@$06@0@AAY06$$CBD@Z 10005a00 f i EndScene.obj
 0001:00004a70       ??$make_encrypted_string@$0?FLHLIONHJGHIHBIP@$03@cx@@YA?AV?$encrypted_string@$0?FLHLIONHJGHIHBIP@$03@0@AAY03$$CBD@Z 10005a70 f i EndScene.obj
 0001:00004ab0       ??$make_encrypted_string@$0?FLHLIONHJGHIHBEM@$06@cx@@YA?AV?$encrypted_string@$0?FLHLIONHJGHIHBEM@$06@0@AAY06$$CBD@Z 10005ab0 f i EndScene.obj
 0001:00004b20       ??$make_encrypted_string@$0?FLHLIONHJGHIHBAP@$08@cx@@YA?AV?$encrypted_string@$0?FLHLIONHJGHIHBAP@$08@0@AAY08$$CBD@Z 10005b20 f i EndScene.obj
 0001:00004ba0       ??$make_encrypted_string@$0?FLHLIONHJGHIHAMD@$05@cx@@YA?AV?$encrypted_string@$0?FLHLIONHJGHIHAMD@$05@0@AAY05$$CBD@Z 10005ba0 f i EndScene.obj
 0001:00004c00       ??$make_encrypted_string@$0?FLHLIONHJGHIHAJC@$05@cx@@YA?AV?$encrypted_string@$0?FLHLIONHJGHIHAJC@$05@0@AAY05$$CBD@Z 10005c00 f i EndScene.obj
 0001:00004c60       ??$make_encrypted_string@$0?FLHLIONHJGHIHAGE@$09@cx@@YA?AV?$encrypted_string@$0?FLHLIONHJGHIHAGE@$09@0@AAY09$$CBD@Z 10005c60 f i EndScene.obj
 0001:00004cf0       ??$make_encrypted_string@$0?FLHLIONHJGHIHABI@$05@cx@@YA?AV?$encrypted_string@$0?FLHLIONHJGHIHABI@$05@0@AAY05$$CBD@Z 10005cf0 f i EndScene.obj
 0001:00004d50       ??$make_encrypted_string@$0?FLHLIONHJGHIGPMJ@$05@cx@@YA?AV?$encrypted_string@$0?FLHLIONHJGHIGPMJ@$05@0@AAY05$$CBD@Z 10005d50 f i EndScene.obj
 0001:00004db0       ??$make_encrypted_string@$0?FLHLIONHJGHIGPHN@$03@cx@@YA?AV?$encrypted_string@$0?FLHLIONHJGHIGPHN@$03@0@AAY03$$CBD@Z 10005db0 f i EndScene.obj
 0001:00004df0       ??$make_encrypted_string@$0?FLHLIONHJGHIGPDE@$03@cx@@YA?AV?$encrypted_string@$0?FLHLIONHJGHIGPDE@$03@0@AAY03$$CBD@Z 10005df0 f i EndScene.obj
 0001:00004e30       ??$make_encrypted_string@$0?FLHLIONHJGHIGOPK@$03@cx@@YA?AV?$encrypted_string@$0?FLHLIONHJGHIGOPK@$03@0@AAY03$$CBD@Z 10005e30 f i EndScene.obj
 0001:00004e70       ??$make_encrypted_string@$0?FLHLIONHJGHIGOLG@$04@cx@@YA?AV?$encrypted_string@$0?FLHLIONHJGHIGOLG@$04@0@AAY04$$CBD@Z 10005e70 f i EndScene.obj
 0001:00004ec0       ??$make_encrypted_string@$0?FLHLIONHJGHIGOGA@$06@cx@@YA?AV?$encrypted_string@$0?FLHLIONHJGHIGOGA@$06@0@AAY06$$CBD@Z 10005ec0 f i EndScene.obj
 0001:00004f30       ??$make_encrypted_string@$0?FLHLIONHJGHIGOCK@$06@cx@@YA?AV?$encrypted_string@$0?FLHLIONHJGHIGOCK@$06@0@AAY06$$CBD@Z 10005f30 f i EndScene.obj
 0001:00004fa0       ??$make_encrypted_string@$0?FLHLIONHJGHIGNOL@$06@cx@@YA?AV?$encrypted_string@$0?FLHLIONHJGHIGNOL@$06@0@AAY06$$CBD@Z 10005fa0 f i EndScene.obj
 0001:00005010       ??$make_encrypted_string@$0?FLHLIONHJGHIGNLF@$06@cx@@YA?AV?$encrypted_string@$0?FLHLIONHJGHIGNLF@$06@0@AAY06$$CBD@Z 10006010 f i EndScene.obj
 0001:00005080       ??$make_encrypted_string@$0?FLHLIONHJGHIGNGO@$05@cx@@YA?AV?$encrypted_string@$0?FLHLIONHJGHIGNGO@$05@0@AAY05$$CBD@Z 10006080 f i EndScene.obj
 0001:000050e0       ??$make_encrypted_string@$0?FLHLIONHJGHIGNCG@$04@cx@@YA?AV?$encrypted_string@$0?FLHLIONHJGHIGNCG@$04@0@AAY04$$CBD@Z 100060e0 f i EndScene.obj
 0001:00005130       ??$make_encrypted_string@$0?FLHLIONHJGHIGMOD@$07@cx@@YA?AV?$encrypted_string@$0?FLHLIONHJGHIGMOD@$07@0@AAY07$$CBD@Z 10006130 f i EndScene.obj
 0001:000051b0       ??$make_encrypted_string@$0?FLHLIONHJGHIGMGJ@$0L@@cx@@YA?AV?$encrypted_string@$0?FLHLIONHJGHIGMGJ@$0L@@0@AAY0L@$$CBD@Z 100061b0 f i EndScene.obj
 0001:00005250       ??$make_encrypted_string@$0?FLHLIONHJGHIGLOP@$09@cx@@YA?AV?$encrypted_string@$0?FLHLIONHJGHIGLOP@$09@0@AAY09$$CBD@Z 10006250 f i EndScene.obj
 0001:000052e0       ??$make_encrypted_string@$0?FLHLIONHJGHIGLHF@$08@cx@@YA?AV?$encrypted_string@$0?FLHLIONHJGHIGLHF@$08@0@AAY08$$CBD@Z 100062e0 f i EndScene.obj
 0001:00005360       ??$make_encrypted_string@$0?FLHLIONHJGHIGKPL@$0L@@cx@@YA?AV?$encrypted_string@$0?FLHLIONHJGHIGKPL@$0L@@0@AAY0L@$$CBD@Z 10006360 f i EndScene.obj
 0001:00005400       ??$make_encrypted_string@$0?FLHLIONHJGHIGKIB@$0P@@cx@@YA?AV?$encrypted_string@$0?FLHLIONHJGHIGKIB@$0P@@0@AAY0P@$$CBD@Z 10006400 f i EndScene.obj
 0001:000054e0       ??$make_encrypted_string@$0?FLHLIONHJGHIGKFA@$0P@@cx@@YA?AV?$encrypted_string@$0?FLHLIONHJGHIGKFA@$0P@@0@AAY0P@$$CBD@Z 100064e0 f i EndScene.obj
 0001:000055c0       ??$make_encrypted_string@$0?FLHLIONHJGHIGKBP@$0BA@@cx@@YA?AV?$encrypted_string@$0?FLHLIONHJGHIGKBP@$0BA@@0@AAY0BA@$$CBD@Z 100065c0 f i EndScene.obj
 0001:000056b0       ??$make_encrypted_string@$0?FLHLIONHJGHIGJOO@$0P@@cx@@YA?AV?$encrypted_string@$0?FLHLIONHJGHIGJOO@$0P@@0@AAY0P@$$CBD@Z 100066b0 f i EndScene.obj
 0001:00005790       ??$make_encrypted_string@$0?FLHLIONHJGHIGJKL@$0M@@cx@@YA?AV?$encrypted_string@$0?FLHLIONHJGHIGJKL@$0M@@0@AAY0M@$$CBD@Z 10006790 f i EndScene.obj
 0001:00005840       ??$make_encrypted_string@$0?FLHLIONHJGHIGJGK@$06@cx@@YA?AV?$encrypted_string@$0?FLHLIONHJGHIGJGK@$06@0@AAY06$$CBD@Z 10006840 f i EndScene.obj
 0001:000058b0       ??$make_encrypted_string@$0?FLHLIONHJGHIGJCJ@$0BL@@cx@@YA?AV?$encrypted_string@$0?FLHLIONHJGHIGJCJ@$0BL@@0@AAY0BL@$$CBD@Z 100068b0 f i EndScene.obj
 0001:000058f0       ??$make_encrypted_string@$0?FLHLIONHJGHIGJBM@$08@cx@@YA?AV?$encrypted_string@$0?FLHLIONHJGHIGJBM@$08@0@AAY08$$CBD@Z 100068f0 f i EndScene.obj
 0001:00005970       ??$make_encrypted_string@$0?FLHLIONHJGHIGJBL@$08@cx@@YA?AV?$encrypted_string@$0?FLHLIONHJGHIGJBL@$08@0@AAY08$$CBD@Z 10006970 f i EndScene.obj
 0001:000059f0       ??$make_encrypted_string@$0?FLHLIONHJGHIGJBK@$08@cx@@YA?AV?$encrypted_string@$0?FLHLIONHJGHIGJBK@$08@0@AAY08$$CBD@Z 100069f0 f i EndScene.obj
 0001:00005a70       ??$make_encrypted_string@$0?FLHLIONHJGHIGJBJ@$08@cx@@YA?AV?$encrypted_string@$0?FLHLIONHJGHIGJBJ@$08@0@AAY08$$CBD@Z 10006a70 f i EndScene.obj
 0001:00005af0       ??$make_encrypted_string@$0?FLHLIONHJGHIGJBH@$04@cx@@YA?AV?$encrypted_string@$0?FLHLIONHJGHIGJBH@$04@0@AAY04$$CBD@Z 10006af0 f i EndScene.obj
 0001:00005b40       ??$make_encrypted_string@$0?FLHLIONHJGHIGJBG@$08@cx@@YA?AV?$encrypted_string@$0?FLHLIONHJGHIGJBG@$08@0@AAY08$$CBD@Z 10006b40 f i EndScene.obj
 0001:00005bc0       ??$make_encrypted_string@$0?FLHLIONHJGHIGJBF@$04@cx@@YA?AV?$encrypted_string@$0?FLHLIONHJGHIGJBF@$04@0@AAY04$$CBD@Z 10006bc0 f i EndScene.obj
 0001:00005c10       ??$sprintf_s@$0BAA@@@YAHAAY0BAA@DPBDZZ 10006c10 f i EndScene.obj
 0001:00005c30       ??$_Destroy_range@V?$allocator@V?$basic_string@DU?$char_traits@D@std@@V?$allocator@D@2@@std@@@std@@@std@@YAXPAV?$basic_string@DU?$char_traits@D@std@@V?$allocator@D@2@@0@0AAV?$allocator@V?$basic_string@DU?$char_traits@D@std@@V?$allocator@D@2@@std@@@0@@Z 10006c30 f i EndScene.obj
 0001:00005ca0       ??0?$encrypted_string@$0?FLHLIONHJGHIHFAK@$03@cx@@QAE@AAY03$$CBD@Z 10006ca0 f i EndScene.obj
 0001:00005ce0       ??$encrypt@$0?FLHLIONHJGHIGIEK@$0A@$00$01$02$03$04$05$06$07$08$09$0L@$0M@$0N@$0O@$0P@$0BA@$0BB@$0BC@$0BD@$0BE@$0BF@$0BG@$0BH@$0BI@$0BJ@$0BK@$0BL@$0BM@$0BN@$0BO@$0BP@$0CA@$0CB@$0CC@$0CD@$0CE@$0CF@$0CG@$0CH@$0CI@$0CJ@$0CK@$0CL@$0CM@$0CN@$0CO@$0CP@$0DA@$0DB@$0DC@$0DD@$0DE@$0DF@$0DG@$0DH@$0DI@$0DJ@$0DK@$0DL@$0DM@$0DN@$0DO@$0DP@$0EA@$0EB@$0EC@$0ED@$0EE@$0EF@$0EG@$0EH@$0EI@$0EJ@$0EK@$0EL@$0EM@$0EN@$0EO@$0EP@$0FA@$0FB@$0FC@$0FD@$0FE@$0FF@$0FG@$0FH@$0FI@$0FJ@$0FK@$0FL@$0FM@$0FN@$0FO@$0FP@$0GA@$0GB@$0GC@$0GD@$0GE@$0GF@$0GG@$0GH@$0GI@$0GJ@$0GK@$0GL@$0GM@$0GN@$0GO@$0GP@$0HA@$0HB@$0HC@$0HD@$0HE@$0HF@$0HG@$0HH@$0HI@$0HJ@$0HK@@detail@cx@@YA?AU?$char_array@$0HL@@01@PBDU?$integer_sequence@I$0A@$00$01$02$03$04$05$06$07$08$09$0L@$0M@$0N@$0O@$0P@$0BA@$0BB@$0BC@$0BD@$0BE@$0BF@$0BG@$0BH@$0BI@$0BJ@$0BK@$0BL@$0BM@$0BN@$0BO@$0BP@$0CA@$0CB@$0CC@$0CD@$0CE@$0CF@$0CG@$0CH@$0CI@$0CJ@$0CK@$0CL@$0CM@$0CN@$0CO@$0CP@$0DA@$0DB@$0DC@$0DD@$0DE@$0DF@$0DG@$0DH@$0DI@$0DJ@$0DK@$0DL@$0DM@$0DN@$0DO@$0DP@$0EA@$0EB@$0EC@$0ED@$0EE@$0EF@$0EG@$0EH@$0EI@$0EJ@$0EK@$0EL@$0EM@$0EN@$0EO@$0EP@$0FA@$0FB@$0FC@$0FD@$0FE@$0FF@$0FG@$0FH@$0FI@$0FJ@$0FK@$0FL@$0FM@$0FN@$0FO@$0FP@$0GA@$0GB@$0GC@$0GD@$0GE@$0GF@$0GG@$0GH@$0GI@$0GJ@$0GK@$0GL@$0GM@$0GN@$0GO@$0GP@$0HA@$0HB@$0HC@$0HD@$0HE@$0HF@$0HG@$0HH@$0HI@$0HJ@$0HK@@std@@@Z 10006ce0 f i EndScene.obj
 0001:00006330       ??$encrypt@$0?FLHLIONHJGHIGIEL@$0A@$00$01$02$03$04$05$06$07$08$09$0L@$0M@$0N@$0O@$0P@$0BA@$0BB@$0BC@$0BD@$0BE@$0BF@$0BG@$0BH@$0BI@$0BJ@$0BK@$0BL@$0BM@$0BN@$0BO@$0BP@$0CA@$0CB@$0CC@$0CD@$0CE@$0CF@$0CG@$0CH@$0CI@$0CJ@$0CK@$0CL@$0CM@$0CN@$0CO@$0CP@$0DA@$0DB@$0DC@$0DD@$0DE@$0DF@$0DG@$0DH@$0DI@$0DJ@$0DK@$0DL@$0DM@$0DN@$0DO@$0DP@$0EA@$0EB@$0EC@$0ED@$0EE@$0EF@$0EG@$0EH@$0EI@$0EJ@$0EK@$0EL@$0EM@$0EN@$0EO@$0EP@$0FA@$0FB@$0FC@$0FD@$0FE@$0FF@$0FG@$0FH@$0FI@$0FJ@$0FK@$0FL@$0FM@$0FN@$0FO@$0FP@$0GA@$0GB@$0GC@$0GD@$0GE@$0GF@$0GG@$0GH@$0GI@$0GJ@$0GK@$0GL@$0GM@$0GN@$0GO@$0GP@$0HA@$0HB@$0HC@$0HD@$0HE@$0HF@$0HG@$0HH@$0HI@$0HJ@$0HK@$0HL@$0HM@$0HN@$0HO@$0HP@@detail@cx@@YA?AU?$char_array@$0IA@@01@PBDU?$integer_sequence@I$0A@$00$01$02$03$04$05$06$07$08$09$0L@$0M@$0N@$0O@$0P@$0BA@$0BB@$0BC@$0BD@$0BE@$0BF@$0BG@$0BH@$0BI@$0BJ@$0BK@$0BL@$0BM@$0BN@$0BO@$0BP@$0CA@$0CB@$0CC@$0CD@$0CE@$0CF@$0CG@$0CH@$0CI@$0CJ@$0CK@$0CL@$0CM@$0CN@$0CO@$0CP@$0DA@$0DB@$0DC@$0DD@$0DE@$0DF@$0DG@$0DH@$0DI@$0DJ@$0DK@$0DL@$0DM@$0DN@$0DO@$0DP@$0EA@$0EB@$0EC@$0ED@$0EE@$0EF@$0EG@$0EH@$0EI@$0EJ@$0EK@$0EL@$0EM@$0EN@$0EO@$0EP@$0FA@$0FB@$0FC@$0FD@$0FE@$0FF@$0FG@$0FH@$0FI@$0FJ@$0FK@$0FL@$0FM@$0FN@$0FO@$0FP@$0GA@$0GB@$0GC@$0GD@$0GE@$0GF@$0GG@$0GH@$0GI@$0GJ@$0GK@$0GL@$0GM@$0GN@$0GO@$0GP@$0HA@$0HB@$0HC@$0HD@$0HE@$0HF@$0HG@$0HH@$0HI@$0HJ@$0HK@$0HL@$0HM@$0HN@$0HO@$0HP@@std@@@Z 10007330 f i EndScene.obj
 0001:000069c0       ??$encrypt@$0?FLHLIONHJGHIGIEM@$0A@$00$01$02$03$04$05$06$07$08$09$0L@$0M@$0N@$0O@$0P@$0BA@$0BB@$0BC@$0BD@$0BE@$0BF@$0BG@$0BH@$0BI@$0BJ@$0BK@$0BL@$0BM@$0BN@$0BO@$0BP@$0CA@$0CB@$0CC@$0CD@$0CE@$0CF@$0CG@$0CH@$0CI@$0CJ@$0CK@$0CL@$0CM@$0CN@$0CO@$0CP@$0DA@$0DB@$0DC@$0DD@$0DE@$0DF@$0DG@$0DH@$0DI@$0DJ@$0DK@$0DL@$0DM@$0DN@$0DO@$0DP@$0EA@$0EB@@detail@cx@@YA?AU?$char_array@$0EC@@01@PBDU?$integer_sequence@I$0A@$00$01$02$03$04$05$06$07$08$09$0L@$0M@$0N@$0O@$0P@$0BA@$0BB@$0BC@$0BD@$0BE@$0BF@$0BG@$0BH@$0BI@$0BJ@$0BK@$0BL@$0BM@$0BN@$0BO@$0BP@$0CA@$0CB@$0CC@$0CD@$0CE@$0CF@$0CG@$0CH@$0CI@$0CJ@$0CK@$0CL@$0CM@$0CN@$0CO@$0CP@$0DA@$0DB@$0DC@$0DD@$0DE@$0DF@$0DG@$0DH@$0DI@$0DJ@$0DK@$0DL@$0DM@$0DN@$0DO@$0DP@$0EA@$0EB@@std@@@Z 100079c0 f i EndScene.obj
 0001:00006d30       ??$encrypt@$0?FLHLIONHJGHIGILB@$0A@$00$01$02$03$04$05$06$07$08$09$0L@$0M@$0N@$0O@@detail@cx@@YA?AU?$char_array@$0P@@01@PBDU?$integer_sequence@I$0A@$00$01$02$03$04$05$06$07$08$09$0L@$0M@$0N@$0O@@std@@@Z 10007d30 f i EndScene.obj
 0001:00006e00       ??$encrypt@$0?FLHLIONHJGHIGJCJ@$0A@$00$01$02$03$04$05$06$07$08$09$0L@$0M@$0N@$0O@$0P@$0BA@$0BB@$0BC@$0BD@$0BE@$0BF@$0BG@$0BH@$0BI@$0BJ@@detail@cx@@YA?AU?$char_array@$0BK@@01@PBDU?$integer_sequence@I$0A@$00$01$02$03$04$05$06$07$08$09$0L@$0M@$0N@$0O@$0P@$0BA@$0BB@$0BC@$0BD@$0BE@$0BF@$0BG@$0BH@$0BI@$0BJ@@std@@@Z 10007e00 f i EndScene.obj
 0001:00006f60       ??$encrypt@$0?FLHLIONHJGHIHDNC@$0A@$00$01$02$03@detail@cx@@YA?AU?$char_array@$04@01@PBDU?$integer_sequence@I$0A@$00$01$02$03@std@@@Z 10007f60 f i EndScene.obj
 0001:00006fb0       ??$encrypt@$0?FLHLIONHJGHIHEAP@$0A@$00$01$02$03$04$05$06@detail@cx@@YA?AU?$char_array@$07@01@PBDU?$integer_sequence@I$0A@$00$01$02$03$04$05$06@std@@@Z 10007fb0 f i EndScene.obj
 0001:00007030       ??$encrypt@$0?FLHLIONHJGHIHEFF@$0A@$00$01$02$03$04$05$06$07$08@detail@cx@@YA?AU?$char_array@$09@01@PBDU?$integer_sequence@I$0A@$00$01$02$03$04$05$06$07$08@std@@@Z 10008030 f i EndScene.obj
 0001:000070c0       ??$encrypt@$0?FLHLIONHJGHIHEJI@$0A@$00$01$02$03$04$05$06$07$08$09$0L@$0M@@detail@cx@@YA?AU?$char_array@$0N@@01@PBDU?$integer_sequence@I$0A@$00$01$02$03$04$05$06$07$08$09$0L@$0M@@std@@@Z 100080c0 f i EndScene.obj
 0001:00007180       ??$encrypt@$0?FLHLIONHJGHIHEON@$0A@$00$01$02$03$04$05$06$07$08$09$0L@@detail@cx@@YA?AU?$char_array@$0M@@01@PBDU?$integer_sequence@I$0A@$00$01$02$03$04$05$06$07$08$09$0L@@std@@@Z 10008180 f i EndScene.obj
 0001:00007230       ??$encrypt@$0?FLHLIONHJGHIHFAI@$0A@$00$01$02$03@detail@cx@@YA?AU?$char_array@$04@01@PBDU?$integer_sequence@I$0A@$00$01$02$03@std@@@Z 10008230 f i EndScene.obj
 0001:00007280       ??$encrypt@$0?FLHLIONHJGHIHFAM@$0A@$00$01$02$03$04$05$06$07@detail@cx@@YA?AU?$char_array@$08@01@PBDU?$integer_sequence@I$0A@$00$01$02$03$04$05$06$07@std@@@Z 10008280 f i EndScene.obj
 0001:00007300       ??$encrypt@$0?FLHLIONHJGHIHFAP@$0A@$00$01$02$03$04$05$06$07$08$09$0L@$0M@$0N@$0O@$0P@$0BA@$0BB@$0BC@$0BD@$0BE@$0BF@$0BG@$0BH@$0BI@$0BJ@$0BK@$0BL@$0BM@$0BN@$0BO@$0BP@$0CA@$0CB@$0CC@$0CD@$0CE@$0CF@$0CG@$0CH@$0CI@$0CJ@$0CK@$0CL@$0CM@$0CN@$0CO@$0CP@$0DA@$0DB@$0DC@$0DD@$0DE@$0DF@$0DG@@detail@cx@@YA?AU?$char_array@$0DH@@01@PBDU?$integer_sequence@I$0A@$00$01$02$03$04$05$06$07$08$09$0L@$0M@$0N@$0O@$0P@$0BA@$0BB@$0BC@$0BD@$0BE@$0BF@$0BG@$0BH@$0BI@$0BJ@$0BK@$0BL@$0BM@$0BN@$0BO@$0BP@$0CA@$0CB@$0CC@$0CD@$0CE@$0CF@$0CG@$0CH@$0CI@$0CJ@$0CK@$0CL@$0CM@$0CN@$0CO@$0CP@$0DA@$0DB@$0DC@$0DD@$0DE@$0DF@$0DG@@std@@@Z 10008300 f i EndScene.obj
 0001:000075e0       ??$encrypt@$0?FLHLIONHJGHIHFBD@$0A@$00$01$02$03$04$05$06$07$08$09$0L@$0M@$0N@$0O@$0P@$0BA@$0BB@$0BC@$0BD@$0BE@$0BF@$0BG@$0BH@$0BI@$0BJ@$0BK@$0BL@$0BM@$0BN@$0BO@$0BP@$0CA@$0CB@$0CC@$0CD@$0CE@$0CF@@detail@cx@@YA?AU?$char_array@$0CG@@01@PBDU?$integer_sequence@I$0A@$00$01$02$03$04$05$06$07$08$09$0L@$0M@$0N@$0O@$0P@$0BA@$0BB@$0BC@$0BD@$0BE@$0BF@$0BG@$0BH@$0BI@$0BJ@$0BK@$0BL@$0BM@$0BN@$0BO@$0BP@$0CA@$0CB@$0CC@$0CD@$0CE@$0CF@@std@@@Z 100085e0 f i EndScene.obj
 0001:000077e0       ??$encrypt@$0?FLHLIONHJGHIHFBH@$0A@$00$01$02$03$04$05$06$07$08$09$0L@$0M@$0N@$0O@$0P@$0BA@$0BB@$0BC@$0BD@$0BE@$0BF@$0BG@$0BH@$0BI@$0BJ@$0BK@$0BL@$0BM@$0BN@$0BO@$0BP@$0CA@$0CB@$0CC@$0CD@$0CE@$0CF@$0CG@$0CH@$0CI@$0CJ@$0CK@$0CL@@detail@cx@@YA?AU?$char_array@$0CM@@01@PBDU?$integer_sequence@I$0A@$00$01$02$03$04$05$06$07$08$09$0L@$0M@$0N@$0O@$0P@$0BA@$0BB@$0BC@$0BD@$0BE@$0BF@$0BG@$0BH@$0BI@$0BJ@$0BK@$0BL@$0BM@$0BN@$0BO@$0BP@$0CA@$0CB@$0CC@$0CD@$0CE@$0CF@$0CG@$0CH@$0CI@$0CJ@$0CK@$0CL@@std@@@Z 100087e0 f i EndScene.obj
 0001:00007a30       ??$encrypt@$0?FLHLIONHJGHIHFBL@$0A@$00$01$02$03$04$05$06$07$08$09$0L@$0M@$0N@$0O@$0P@$0BA@$0BB@$0BC@$0BD@$0BE@$0BF@$0BG@$0BH@$0BI@$0BJ@$0BK@$0BL@$0BM@$0BN@$0BO@$0BP@$0CA@$0CB@$0CC@$0CD@$0CE@$0CF@$0CG@$0CH@$0CI@$0CJ@$0CK@$0CL@$0CM@$0CN@$0CO@$0CP@$0DA@@detail@cx@@YA?AU?$char_array@$0DB@@01@PBDU?$integer_sequence@I$0A@$00$01$02$03$04$05$06$07$08$09$0L@$0M@$0N@$0O@$0P@$0BA@$0BB@$0BC@$0BD@$0BE@$0BF@$0BG@$0BH@$0BI@$0BJ@$0BK@$0BL@$0BM@$0BN@$0BO@$0BP@$0CA@$0CB@$0CC@$0CD@$0CE@$0CF@$0CG@$0CH@$0CI@$0CJ@$0CK@$0CL@$0CM@$0CN@$0CO@$0CP@$0DA@@std@@@Z 10008a30 f i EndScene.obj
 0001:00007cc0       ??$encrypt@$0?FLHLIONHJGHIHFBP@$0A@$00$01$02$03$04$05$06$07$08$09$0L@$0M@$0N@$0O@$0P@$0BA@$0BB@$0BC@$0BD@$0BE@$0BF@$0BG@$0BH@$0BI@$0BJ@$0BK@$0BL@$0BM@$0BN@$0BO@$0BP@$0CA@$0CB@$0CC@$0CD@$0CE@$0CF@$0CG@$0CH@$0CI@$0CJ@$0CK@$0CL@$0CM@$0CN@$0CO@$0CP@@detail@cx@@YA?AU?$char_array@$0DA@@01@PBDU?$integer_sequence@I$0A@$00$01$02$03$04$05$06$07$08$09$0L@$0M@$0N@$0O@$0P@$0BA@$0BB@$0BC@$0BD@$0BE@$0BF@$0BG@$0BH@$0BI@$0BJ@$0BK@$0BL@$0BM@$0BN@$0BO@$0BP@$0CA@$0CB@$0CC@$0CD@$0CE@$0CF@$0CG@$0CH@$0CI@$0CJ@$0CK@$0CL@$0CM@$0CN@$0CO@$0CP@@std@@@Z 10008cc0 f i EndScene.obj
 0001:00007f40       ??$encrypt@$0?FLHLIONHJGHIHFCD@$0A@$00$01$02$03$04$05$06$07$08$09$0L@$0M@$0N@$0O@$0P@$0BA@$0BB@$0BC@$0BD@$0BE@$0BF@$0BG@$0BH@$0BI@$0BJ@$0BK@$0BL@$0BM@$0BN@$0BO@$0BP@$0CA@$0CB@$0CC@$0CD@$0CE@$0CF@$0CG@@detail@cx@@YA?AU?$char_array@$0CH@@01@PBDU?$integer_sequence@I$0A@$00$01$02$03$04$05$06$07$08$09$0L@$0M@$0N@$0O@$0P@$0BA@$0BB@$0BC@$0BD@$0BE@$0BF@$0BG@$0BH@$0BI@$0BJ@$0BK@$0BL@$0BM@$0BN@$0BO@$0BP@$0CA@$0CB@$0CC@$0CD@$0CE@$0CF@$0CG@@std@@@Z 10008f40 f i EndScene.obj
 0001:00008150       ??$encrypt@$0?FLHLIONHJGHIHFCJ@$0A@$00$01$02$03$04$05$06$07$08$09$0L@$0M@$0N@$0O@$0P@$0BA@$0BB@$0BC@$0BD@$0BE@$0BF@$0BG@$0BH@$0BI@$0BJ@$0BK@$0BL@$0BM@$0BN@$0BO@$0BP@$0CA@$0CB@$0CC@$0CD@$0CE@$0CF@$0CG@$0CH@$0CI@$0CJ@$0CK@$0CL@$0CM@$0CN@$0CO@$0CP@$0DA@$0DB@$0DC@$0DD@$0DE@$0DF@$0DG@$0DH@$0DI@$0DJ@$0DK@$0DL@$0DM@@detail@cx@@YA?AU?$char_array@$0DN@@01@PBDU?$integer_sequence@I$0A@$00$01$02$03$04$05$06$07$08$09$0L@$0M@$0N@$0O@$0P@$0BA@$0BB@$0BC@$0BD@$0BE@$0BF@$0BG@$0BH@$0BI@$0BJ@$0BK@$0BL@$0BM@$0BN@$0BO@$0BP@$0CA@$0CB@$0CC@$0CD@$0CE@$0CF@$0CG@$0CH@$0CI@$0CJ@$0CK@$0CL@$0CM@$0CN@$0CO@$0CP@$0DA@$0DB@$0DC@$0DD@$0DE@$0DF@$0DG@$0DH@$0DI@$0DJ@$0DK@$0DL@$0DM@@std@@@Z 10009150 f i EndScene.obj
 0001:000085b0       ??$encrypt@$0?FLHLIONHJGHIHFCJ@$0A@$00$01$02$03$04$05$06$07$08$09@detail@cx@@YA?AU?$char_array@$0L@@01@PBDU?$integer_sequence@I$0A@$00$01$02$03$04$05$06$07$08$09@std@@@Z 100095b0 f i EndScene.obj
 0001:00008680       ??$encrypt@$0?FLHLIONHJGHIHFCK@$0A@$00$01$02$03$04$05$06$07$08$09@detail@cx@@YA?AU?$char_array@$0L@@01@PBDU?$integer_sequence@I$0A@$00$01$02$03$04$05$06$07$08$09@std@@@Z 10009680 f i EndScene.obj
 0001:00008720       ??$encrypt@$0?FLHLIONHJGHIHFCL@$0A@$00$01$02$03$04$05$06$07$08$09$0L@@detail@cx@@YA?AU?$char_array@$0M@@01@PBDU?$integer_sequence@I$0A@$00$01$02$03$04$05$06$07$08$09$0L@@std@@@Z 10009720 f i EndScene.obj
 0001:000087d0       ??$encrypt@$0?FLHLIONHJGHIHFCM@$0A@$00$01$02$03$04@detail@cx@@YA?AU?$char_array@$05@01@PBDU?$integer_sequence@I$0A@$00$01$02$03$04@std@@@Z 100097d0 f i EndScene.obj
 0001:00008830       ??$encrypt@$0?FLHLIONHJGHIHFGL@$0A@$00$01$02$03$04$05$06$07$08$09$0L@@detail@cx@@YA?AU?$char_array@$0M@@01@PBDU?$integer_sequence@I$0A@$00$01$02$03$04$05$06$07$08$09$0L@@std@@@Z 10009830 f i EndScene.obj
 0001:000088e0       ??$encrypt@$0?FLHLIONHJGHIHFGM@$0A@$00$01$02$03@detail@cx@@YA?AU?$char_array@$04@01@PBDU?$integer_sequence@I$0A@$00$01$02$03@std@@@Z 100098e0 f i EndScene.obj
 0001:00008930       ??$encrypt@$0?FLHLIONHJGHIHFKK@$0A@$00$01$02$03$04$05$06$07$08$09$0L@$0M@$0N@$0O@$0P@$0BA@$0BB@$0BC@$0BD@$0BE@$0BF@$0BG@$0BH@$0BI@$0BJ@$0BK@$0BL@$0BM@$0BN@$0BO@$0BP@$0CA@$0CB@$0CC@$0CD@$0CE@$0CF@$0CG@$0CH@@detail@cx@@YA?AU?$char_array@$0CI@@01@PBDU?$integer_sequence@I$0A@$00$01$02$03$04$05$06$07$08$09$0L@$0M@$0N@$0O@$0P@$0BA@$0BB@$0BC@$0BD@$0BE@$0BF@$0BG@$0BH@$0BI@$0BJ@$0BK@$0BL@$0BM@$0BN@$0BO@$0BP@$0CA@$0CB@$0CC@$0CD@$0CE@$0CF@$0CG@$0CH@@std@@@Z 10009930 f i EndScene.obj
 0001:00008b50       ??$encrypt_at@$0?FLHLIONHJGHIGIEK@@detail@cx@@YADPBDI@Z 10009b50 f i EndScene.obj
 0001:00008bb0       ??$encrypt_at@$0?FLHLIONHJGHIGIEL@@detail@cx@@YADPBDI@Z 10009bb0 f i EndScene.obj
 0001:00008c10       ??$encrypt_at@$0?FLHLIONHJGHIGIEM@@detail@cx@@YADPBDI@Z 10009c10 f i EndScene.obj
 0001:00008c70       ??$encrypt_at@$0?FLHLIONHJGHIGILB@@detail@cx@@YADPBDI@Z 10009c70 f i EndScene.obj
 0001:00008cd0       ??$encrypt_at@$0?FLHLIONHJGHIGJBF@@detail@cx@@YADPBDI@Z 10009cd0 f i EndScene.obj
 0001:00008d30       ??$encrypt_at@$0?FLHLIONHJGHIGJBG@@detail@cx@@YADPBDI@Z 10009d30 f i EndScene.obj
 0001:00008d90       ??$encrypt_at@$0?FLHLIONHJGHIGJBH@@detail@cx@@YADPBDI@Z 10009d90 f i EndScene.obj
 0001:00008df0       ??$encrypt_at@$0?FLHLIONHJGHIGJBJ@@detail@cx@@YADPBDI@Z 10009df0 f i EndScene.obj
 0001:00008e50       ??$encrypt_at@$0?FLHLIONHJGHIGJBK@@detail@cx@@YADPBDI@Z 10009e50 f i EndScene.obj
 0001:00008eb0       ??$encrypt_at@$0?FLHLIONHJGHIGJBL@@detail@cx@@YADPBDI@Z 10009eb0 f i EndScene.obj
 0001:00008f10       ??$encrypt_at@$0?FLHLIONHJGHIGJBM@@detail@cx@@YADPBDI@Z 10009f10 f i EndScene.obj
 0001:00008f70       ??$encrypt_at@$0?FLHLIONHJGHIGJCJ@@detail@cx@@YADPBDI@Z 10009f70 f i EndScene.obj
 0001:00008fd0       ??$encrypt_at@$0?FLHLIONHJGHIGJGK@@detail@cx@@YADPBDI@Z 10009fd0 f i EndScene.obj
 0001:00009030       ??$encrypt_at@$0?FLHLIONHJGHIGJKL@@detail@cx@@YADPBDI@Z 1000a030 f i EndScene.obj
 0001:00009090       ??$encrypt_at@$0?FLHLIONHJGHIGJOO@@detail@cx@@YADPBDI@Z 1000a090 f i EndScene.obj
 0001:000090f0       ??$encrypt_at@$0?FLHLIONHJGHIGKBP@@detail@cx@@YADPBDI@Z 1000a0f0 f i EndScene.obj
 0001:00009150       ??$encrypt_at@$0?FLHLIONHJGHIGKFA@@detail@cx@@YADPBDI@Z 1000a150 f i EndScene.obj
 0001:000091b0       ??$encrypt_at@$0?FLHLIONHJGHIGKIB@@detail@cx@@YADPBDI@Z 1000a1b0 f i EndScene.obj
 0001:00009210       ??$encrypt_at@$0?FLHLIONHJGHIGKPL@@detail@cx@@YADPBDI@Z 1000a210 f i EndScene.obj
 0001:00009270       ??$encrypt_at@$0?FLHLIONHJGHIGLHF@@detail@cx@@YADPBDI@Z 1000a270 f i EndScene.obj
 0001:000092d0       ??$encrypt_at@$0?FLHLIONHJGHIGLOP@@detail@cx@@YADPBDI@Z 1000a2d0 f i EndScene.obj
 0001:00009330       ??$encrypt_at@$0?FLHLIONHJGHIGMGJ@@detail@cx@@YADPBDI@Z 1000a330 f i EndScene.obj
 0001:00009390       ??$encrypt_at@$0?FLHLIONHJGHIGMOD@@detail@cx@@YADPBDI@Z 1000a390 f i EndScene.obj
 0001:000093f0       ??$encrypt_at@$0?FLHLIONHJGHIGNCG@@detail@cx@@YADPBDI@Z 1000a3f0 f i EndScene.obj
 0001:00009450       ??$encrypt_at@$0?FLHLIONHJGHIGNGO@@detail@cx@@YADPBDI@Z 1000a450 f i EndScene.obj
 0001:000094b0       ??$encrypt_at@$0?FLHLIONHJGHIGNLF@@detail@cx@@YADPBDI@Z 1000a4b0 f i EndScene.obj
 0001:00009510       ??$encrypt_at@$0?FLHLIONHJGHIGNOL@@detail@cx@@YADPBDI@Z 1000a510 f i EndScene.obj
 0001:00009570       ??$encrypt_at@$0?FLHLIONHJGHIGOCK@@detail@cx@@YADPBDI@Z 1000a570 f i EndScene.obj
 0001:000095d0       ??$encrypt_at@$0?FLHLIONHJGHIGOGA@@detail@cx@@YADPBDI@Z 1000a5d0 f i EndScene.obj
 0001:00009630       ??$encrypt_at@$0?FLHLIONHJGHIGOLG@@detail@cx@@YADPBDI@Z 1000a630 f i EndScene.obj
 0001:00009690       ??$encrypt_at@$0?FLHLIONHJGHIGOPK@@detail@cx@@YADPBDI@Z 1000a690 f i EndScene.obj
 0001:000096f0       ??$encrypt_at@$0?FLHLIONHJGHIGPDE@@detail@cx@@YADPBDI@Z 1000a6f0 f i EndScene.obj
 0001:00009750       ??$encrypt_at@$0?FLHLIONHJGHIGPHN@@detail@cx@@YADPBDI@Z 1000a750 f i EndScene.obj
 0001:000097b0       ??$encrypt_at@$0?FLHLIONHJGHIGPMJ@@detail@cx@@YADPBDI@Z 1000a7b0 f i EndScene.obj
 0001:00009810       ??$encrypt_at@$0?FLHLIONHJGHIHABI@@detail@cx@@YADPBDI@Z 1000a810 f i EndScene.obj
 0001:00009870       ??$encrypt_at@$0?FLHLIONHJGHIHAGE@@detail@cx@@YADPBDI@Z 1000a870 f i EndScene.obj
 0001:000098d0       ??$encrypt_at@$0?FLHLIONHJGHIHAJC@@detail@cx@@YADPBDI@Z 1000a8d0 f i EndScene.obj
 0001:00009930       ??$encrypt_at@$0?FLHLIONHJGHIHAMD@@detail@cx@@YADPBDI@Z 1000a930 f i EndScene.obj
 0001:00009990       ??$encrypt_at@$0?FLHLIONHJGHIHBAP@@detail@cx@@YADPBDI@Z 1000a990 f i EndScene.obj
 0001:000099f0       ??$encrypt_at@$0?FLHLIONHJGHIHBEM@@detail@cx@@YADPBDI@Z 1000a9f0 f i EndScene.obj
 0001:00009a50       ??$encrypt_at@$0?FLHLIONHJGHIHBIP@@detail@cx@@YADPBDI@Z 1000aa50 f i EndScene.obj
 0001:00009ab0       ??$encrypt_at@$0?FLHLIONHJGHIHBNF@@detail@cx@@YADPBDI@Z 1000aab0 f i EndScene.obj
 0001:00009b10       ??$encrypt_at@$0?FLHLIONHJGHIHCBL@@detail@cx@@YADPBDI@Z 1000ab10 f i EndScene.obj
 0001:00009b70       ??$encrypt_at@$0?FLHLIONHJGHIHCED@@detail@cx@@YADPBDI@Z 1000ab70 f i EndScene.obj
 0001:00009bd0       ??$encrypt_at@$0?FLHLIONHJGHIHCIJ@@detail@cx@@YADPBDI@Z 1000abd0 f i EndScene.obj
 0001:00009c30       ??$encrypt_at@$0?FLHLIONHJGHIHCMG@@detail@cx@@YADPBDI@Z 1000ac30 f i EndScene.obj
 0001:00009c90       ??$encrypt_at@$0?FLHLIONHJGHIHCPH@@detail@cx@@YADPBDI@Z 1000ac90 f i EndScene.obj
 0001:00009cf0       ??$encrypt_at@$0?FLHLIONHJGHIHDEA@@detail@cx@@YADPBDI@Z 1000acf0 f i EndScene.obj
 0001:00009d50       ??$encrypt_at@$0?FLHLIONHJGHIHDHN@@detail@cx@@YADPBDI@Z 1000ad50 f i EndScene.obj
 0001:00009db0       ??$encrypt_at@$0?FLHLIONHJGHIHDNC@@detail@cx@@YADPBDI@Z 1000adb0 f i EndScene.obj
 0001:00009e10       ??$encrypt_at@$0?FLHLIONHJGHIHEAP@@detail@cx@@YADPBDI@Z 1000ae10 f i EndScene.obj
 0001:00009e70       ??$encrypt_at@$0?FLHLIONHJGHIHEFF@@detail@cx@@YADPBDI@Z 1000ae70 f i EndScene.obj
 0001:00009ed0       ??$encrypt_at@$0?FLHLIONHJGHIHEJI@@detail@cx@@YADPBDI@Z 1000aed0 f i EndScene.obj
 0001:00009f30       ??$encrypt_at@$0?FLHLIONHJGHIHEON@@detail@cx@@YADPBDI@Z 1000af30 f i EndScene.obj
 0001:00009f90       ??$encrypt_at@$0?FLHLIONHJGHIHFAI@@detail@cx@@YADPBDI@Z 1000af90 f i EndScene.obj
 0001:00009ff0       ??$encrypt_at@$0?FLHLIONHJGHIHFAK@@detail@cx@@YADPBDI@Z 1000aff0 f i EndScene.obj
 0001:0000a050       ??$encrypt_at@$0?FLHLIONHJGHIHFAM@@detail@cx@@YADPBDI@Z 1000b050 f i EndScene.obj
 0001:0000a0b0       ??$encrypt_at@$0?FLHLIONHJGHIHFAP@@detail@cx@@YADPBDI@Z 1000b0b0 f i EndScene.obj
 0001:0000a110       ??$encrypt_at@$0?FLHLIONHJGHIHFBD@@detail@cx@@YADPBDI@Z 1000b110 f i EndScene.obj
 0001:0000a170       ??$encrypt_at@$0?FLHLIONHJGHIHFBH@@detail@cx@@YADPBDI@Z 1000b170 f i EndScene.obj
 0001:0000a1d0       ??$encrypt_at@$0?FLHLIONHJGHIHFBL@@detail@cx@@YADPBDI@Z 1000b1d0 f i EndScene.obj
 0001:0000a230       ??$encrypt_at@$0?FLHLIONHJGHIHFBP@@detail@cx@@YADPBDI@Z 1000b230 f i EndScene.obj
 0001:0000a290       ??$encrypt_at@$0?FLHLIONHJGHIHFCD@@detail@cx@@YADPBDI@Z 1000b290 f i EndScene.obj
 0001:0000a2f0       ??$encrypt_at@$0?FLHLIONHJGHIHFCJ@@detail@cx@@YADPBDI@Z 1000b2f0 f i EndScene.obj
 0001:0000a350       ??$encrypt_at@$0?FLHLIONHJGHIHFCK@@detail@cx@@YADPBDI@Z 1000b350 f i EndScene.obj
 0001:0000a3b0       ??$encrypt_at@$0?FLHLIONHJGHIHFCL@@detail@cx@@YADPBDI@Z 1000b3b0 f i EndScene.obj
 0001:0000a410       ??$encrypt_at@$0?FLHLIONHJGHIHFCM@@detail@cx@@YADPBDI@Z 1000b410 f i EndScene.obj
 0001:0000a470       ??$encrypt_at@$0?FLHLIONHJGHIHFGL@@detail@cx@@YADPBDI@Z 1000b470 f i EndScene.obj
 0001:0000a4d0       ??$encrypt_at@$0?FLHLIONHJGHIHFGM@@detail@cx@@YADPBDI@Z 1000b4d0 f i EndScene.obj
 0001:0000a530       ??$encrypt_at@$0?FLHLIONHJGHIHFKK@@detail@cx@@YADPBDI@Z 1000b530 f i EndScene.obj
 0001:0000a590       ??$_Emplace_reallocate@UPlayerAA@@@?$vector@UPlayerAA@@V?$allocator@UPlayerAA@@@std@@@std@@QAEPAUPlayerAA@@QAU2@$$QAU2@@Z 1000b590 f i FrameStageNotify.obj
 0001:0000a720       ??B?$encrypted_string@$0?FLMOGCHAJLFHCDGA@$0PP@@cx@@QBE?AV?$basic_string@DU?$char_traits@D@std@@V?$allocator@D@2@@std@@XZ 1000b720 f i OverrideView.obj
 0001:0000a750       ??$encrypt@$0?FLMOGCHAJLFHCDGA@$0A@$00$01$02$03$04$05$06$07$08$09$0L@$0M@$0N@$0O@$0P@$0BA@$0BB@$0BC@$0BD@$0BE@$0BF@$0BG@$0BH@$0BI@$0BJ@$0BK@$0BL@$0BM@$0BN@$0BO@$0BP@$0CA@$0CB@$0CC@$0CD@$0CE@$0CF@$0CG@$0CH@$0CI@$0CJ@$0CK@$0CL@$0CM@$0CN@$0CO@$0CP@$0DA@$0DB@$0DC@$0DD@$0DE@$0DF@$0DG@$0DH@$0DI@$0DJ@$0DK@$0DL@$0DM@$0DN@$0DO@$0DP@$0EA@$0EB@$0EC@$0ED@$0EE@$0EF@$0EG@$0EH@$0EI@$0EJ@$0EK@$0EL@$0EM@$0EN@$0EO@$0EP@$0FA@$0FB@$0FC@$0FD@$0FE@$0FF@$0FG@$0FH@$0FI@$0FJ@$0FK@$0FL@$0FM@$0FN@$0FO@$0FP@$0GA@$0GB@$0GC@$0GD@$0GE@$0GF@$0GG@$0GH@$0GI@$0GJ@$0GK@$0GL@$0GM@$0GN@$0GO@$0GP@$0HA@$0HB@$0HC@$0HD@$0HE@$0HF@$0HG@$0HH@$0HI@$0HJ@$0HK@$0HL@$0HM@$0HN@$0HO@$0HP@$0IA@$0IB@$0IC@$0ID@$0IE@$0IF@$0IG@$0IH@$0II@$0IJ@$0IK@$0IL@$0IM@$0IN@$0IO@$0IP@$0JA@$0JB@$0JC@$0JD@$0JE@$0JF@$0JG@$0JH@$0JI@$0JJ@$0JK@$0JL@$0JM@$0JN@$0JO@$0JP@$0KA@$0KB@$0KC@$0KD@$0KE@$0KF@$0KG@$0KH@$0KI@$0KJ@$0KK@$0KL@$0KM@$0KN@$0KO@$0KP@$0LA@$0LB@$0LC@$0LD@$0LE@$0LF@$0LG@$0LH@$0LI@$0LJ@$0LK@$0LL@$0LM@$0LN@$0LO@$0LP@$0MA@$0MB@$0MC@$0MD@$0ME@$0MF@$0MG@$0MH@$0MI@$0MJ@$0MK@$0ML@$0MM@$0MN@$0MO@$0MP@$0NA@$0NB@$0NC@$0ND@$0NE@$0NF@$0NG@$0NH@$0NI@$0NJ@$0NK@$0NL@$0NM@$0NN@$0NO@$0NP@$0OA@$0OB@$0OC@$0OD@$0OE@$0OF@$0OG@$0OH@$0OI@$0OJ@$0OK@$0OL@$0OM@$0ON@$0OO@$0OP@$0PA@$0PB@$0PC@$0PD@$0PE@$0PF@$0PG@$0PH@$0PI@$0PJ@$0PK@$0PL@$0PM@$0PN@@detail@cx@@YA?AU?$char_array@$0PO@@01@PBDU?$integer_sequence@I$0A@$00$01$02$03$04$05$06$07$08$09$0L@$0M@$0N@$0O@$0P@$0BA@$0BB@$0BC@$0BD@$0BE@$0BF@$0BG@$0BH@$0BI@$0BJ@$0BK@$0BL@$0BM@$0BN@$0BO@$0BP@$0CA@$0CB@$0CC@$0CD@$0CE@$0CF@$0CG@$0CH@$0CI@$0CJ@$0CK@$0CL@$0CM@$0CN@$0CO@$0CP@$0DA@$0DB@$0DC@$0DD@$0DE@$0DF@$0DG@$0DH@$0DI@$0DJ@$0DK@$0DL@$0DM@$0DN@$0DO@$0DP@$0EA@$0EB@$0EC@$0ED@$0EE@$0EF@$0EG@$0EH@$0EI@$0EJ@$0EK@$0EL@$0EM@$0EN@$0EO@$0EP@$0FA@$0FB@$0FC@$0FD@$0FE@$0FF@$0FG@$0FH@$0FI@$0FJ@$0FK@$0FL@$0FM@$0FN@$0FO@$0FP@$0GA@$0GB@$0GC@$0GD@$0GE@$0GF@$0GG@$0GH@$0GI@$0GJ@$0GK@$0GL@$0GM@$0GN@$0GO@$0GP@$0HA@$0HB@$0HC@$0HD@$0HE@$0HF@$0HG@$0HH@$0HI@$0HJ@$0HK@$0HL@$0HM@$0HN@$0HO@$0HP@$0IA@$0IB@$0IC@$0ID@$0IE@$0IF@$0IG@$0IH@$0II@$0IJ@$0IK@$0IL@$0IM@$0IN@$0IO@$0IP@$0JA@$0JB@$0JC@$0JD@$0JE@$0JF@$0JG@$0JH@$0JI@$0JJ@$0JK@$0JL@$0JM@$0JN@$0JO@$0JP@$0KA@$0KB@$0KC@$0KD@$0KE@$0KF@$0KG@$0KH@$0KI@$0KJ@$0KK@$0KL@$0KM@$0KN@$0KO@$0KP@$0LA@$0LB@$0LC@$0LD@$0LE@$0LF@$0LG@$0LH@$0LI@$0LJ@$0LK@$0LL@$0LM@$0LN@$0LO@$0LP@$0MA@$0MB@$0MC@$0MD@$0ME@$0MF@$0MG@$0MH@$0MI@$0MJ@$0MK@$0ML@$0MM@$0MN@$0MO@$0MP@$0NA@$0NB@$0NC@$0ND@$0NE@$0NF@$0NG@$0NH@$0NI@$0NJ@$0NK@$0NL@$0NM@$0NN@$0NO@$0NP@$0OA@$0OB@$0OC@$0OD@$0OE@$0OF@$0OG@$0OH@$0OI@$0OJ@$0OK@$0OL@$0OM@$0ON@$0OO@$0OP@$0PA@$0PB@$0PC@$0PD@$0PE@$0PF@$0PG@$0PH@$0PI@$0PJ@$0PK@$0PL@$0PM@$0PN@@std@@@Z 1000b750 f i OverrideView.obj
 0001:0000b7c0       ??$encrypt_at@$0?FLMOGCHAJLFHCDGA@@detail@cx@@YADPBDI@Z 1000c7c0 f i OverrideView.obj
 0001:0000b820       ??0ImDrawList@@QAE@XZ      1000c820 f i imgui.obj
 0001:0000b910       ??1ImDrawList@@QAE@XZ      1000c910 f i imgui.obj
 0001:0000ba50       ?PathFillConvex@ImDrawList@@QAEXI@Z 1000ca50 f i imgui.obj
 0001:0000ba90       ___local_stdio_scanf_options 1000ca90 f i imgui.obj
 0001:0000baa0       __vfprintf_l               1000caa0 f i imgui.obj
 0001:0000bad0       _fprintf                   1000cad0 f i imgui.obj
 0001:0000bb00       _vsnprintf                 1000cb00 f i imgui.obj
 0001:0000bb40       __vsscanf_l                1000cb40 f i imgui.obj
 0001:0000bb70       _sscanf                    1000cb70 f i imgui.obj
 0001:0000bb90       @_guard_check_icall_nop@4  1000cb90 f i MSVCRT:guard_support.obj
 0001:0000bb90       ??3@YAXPAXUImPlacementNewDummy@@0@Z 1000cb90 f i imgui.obj
 0001:0000bba0       ??0ImRect@@QAE@ABUImVec4@@@Z 1000cba0 f i imgui.obj
 0001:0000bbd0       ?GetSize@ImRect@@QBE?AUImVec2@@XZ 1000cbd0 f i imgui.obj
 0001:0000bc00       ?ClipWith@ImRect@@QAEXABU1@@Z 1000cc00 f i imgui.obj
 0001:0000bc50       ?CursorClamp@ImGuiTextEditState@@QAEXXZ 1000cc50 f i imgui.obj
 0001:0000bc90       ??0ImGuiContext@@QAE@XZ    1000cc90 f i imgui.obj
 0001:0000c2a0       ??1ImGuiTextEditState@@QAE@XZ 1000d2a0 f i imgui.obj
 0001:0000c350       ?Rect@ImGuiWindow@@QBE?AUImRect@@XZ 1000d350 f i imgui.obj
 0001:0000c390       ?TitleBarHeight@ImGuiWindow@@QBEMXZ 1000d390 f i imgui.obj
 0001:0000c3c0       ?TitleBarRect@ImGuiWindow@@QBE?AUImRect@@XZ 1000d3c0 f i imgui.obj
 0001:0000c430       ?MenuBarHeight@ImGuiWindow@@QBEMXZ 1000d430 f i imgui.obj
 0001:0000c470       ?MenuBarRect@ImGuiWindow@@QBE?AUImRect@@XZ 1000d470 f i imgui.obj
 0001:0000c510       ??1ImGuiContext@@QAE@XZ    1000d510 f i imgui.obj
 0001:0000c710       ??1ImGuiDrawContext@@QAE@XZ 1000d710 f i imgui.obj
 0001:0000c830       ??1ImGuiStorage@@QAE@XZ    1000d830 f i imgui.obj
 0001:0000c890       ?resize@?$ImVector@I@@QAEXH@Z 1000d890 f i imgui.obj
 0001:0000c8d0       ??1?$ImVector@UImVec2@@@@QAE@XZ 1000d8d0 f i imgui.obj
 0001:0000c8d0       ??1?$ImVector@UImGuiIniData@@@@QAE@XZ 1000d8d0 f i imgui.obj
 0001:0000c8d0       ??1?$ImVector@PAX@@QAE@XZ  1000d8d0 f i imgui.obj
 0001:0000c8d0       ??1?$ImVector@UImDrawVert@@@@QAE@XZ 1000d8d0 f i imgui.obj
 0001:0000c8d0       ??1?$ImVector@UImGuiColMod@@@@QAE@XZ 1000d8d0 f i imgui.obj
 0001:0000c8d0       ??1?$ImVector@PAUImFont@@@@QAE@XZ 1000d8d0 f i imgui.obj
 0001:0000c8d0       ??1?$ImVector@PAUImGuiWindow@@@@QAE@XZ 1000d8d0 f i imgui.obj
 0001:0000c8d0       ??1?$ImVector@G@@QAE@XZ    1000d8d0 f i imgui.obj
 0001:0000c8d0       ??1?$ImVector@PAUImDrawList@@@@QAE@XZ 1000d8d0 f i imgui.obj
 0001:0000c8d0       ??1?$ImVector@UImVec4@@@@QAE@XZ 1000d8d0 f i imgui.obj
 0001:0000c8d0       ??1?$ImVector@UImDrawCmd@@@@QAE@XZ 1000d8d0 f i imgui.obj
 0001:0000c8d0       ??1?$ImVector@UImGuiPopupRef@@@@QAE@XZ 1000d8d0 f i imgui.obj
 0001:0000c8d0       ??1?$ImVector@D@@QAE@XZ    1000d8d0 f i imgui.obj
 0001:0000c8d0       ??1?$ImVector@UImDrawChannel@@@@QAE@XZ 1000d8d0 f i imgui.obj
 0001:0000c8d0       ??1?$ImVector@Ustbrp_rect@@@@QAE@XZ 1000d8d0 f i imgui_draw.obj
 0001:0000c8d0       ??1?$ImVector@I@@QAE@XZ    1000d8d0 f i imgui.obj
 0001:0000c8d0       ??1?$ImVector@UImFontGlyph@@@@QAE@XZ 1000d8d0 f i imgui_draw.obj
 0001:0000c8d0       ??1?$ImVector@UImGuiStyleMod@@@@QAE@XZ 1000d8d0 f i imgui.obj
 0001:0000c8d0       ??1?$ImVector@M@@QAE@XZ    1000d8d0 f i imgui.obj
 0001:0000c920       ?resize@?$ImVector@UImGuiColumnData@@@@QAEXH@Z 1000d920 f i imgui.obj
 0001:0000c9d0       ?resize@?$ImVector@UImFontGlyph@@@@QAEXH@Z 1000d9d0 f i imgui_draw.obj
 0001:0000c9d0       ?resize@?$ImVector@UImGuiGroupData@@@@QAEXH@Z 1000d9d0 f i imgui.obj
 0001:0000ca80       ?push_back@?$ImVector@PAUImGuiWindow@@@@QAEXABQAUImGuiWindow@@@Z 1000da80 f i imgui.obj
 0001:0000ca80       ?push_back@?$ImVector@H@@QAEXABH@Z 1000da80 f i imgui.obj
 0001:0000ca80       ?push_back@?$ImVector@PAX@@QAEXABQAX@Z 1000da80 f i imgui_draw.obj
 0001:0000cad0       ?resize@?$ImVector@M@@QAEXH@Z 1000dad0 f i imgui.obj
 0001:0000cad0       ?resize@?$ImVector@H@@QAEXH@Z 1000dad0 f i imgui.obj
 0001:0000cad0       ?resize@?$ImVector@PAUImGuiWindow@@@@QAEXH@Z 1000dad0 f i imgui.obj
 0001:0000cb10       ??0?$ImVector@PAUImDrawList@@@@QAE@XZ 1000db10 f i imgui.obj
 0001:0000cb30       ?push_back@?$ImVector@UImGuiPopupRef@@@@QAEXABUImGuiPopupRef@@@Z 1000db30 f i imgui.obj
 0001:0000cb90       ?push_back@?$ImVector@UImGuiStyleMod@@@@QAEXABUImGuiStyleMod@@@Z 1000db90 f i imgui.obj
 0001:0000cc50       ?push_back@?$ImVector@UImGuiColMod@@@@QAEXABUImGuiColMod@@@Z 1000dc50 f i imgui.obj
 0001:0000cd10       ?reserve@?$ImVector@PAX@@QAEXH@Z 1000dd10 f i imgui_draw.obj
 0001:0000cd10       ?reserve@?$ImVector@PAUImDrawList@@@@QAEXH@Z 1000dd10 f i imgui.obj
 0001:0000cd10       ?reserve@?$ImVector@M@@QAEXH@Z 1000dd10 f i imgui.obj
 0001:0000cd10       ?reserve@?$ImVector@I@@QAEXH@Z 1000dd10 f i imgui.obj
 0001:0000cd10       ?reserve@?$ImVector@H@@QAEXH@Z 1000dd10 f i imgui.obj
 0001:0000cd10       ?reserve@?$ImVector@PAUImGuiWindow@@@@QAEXH@Z 1000dd10 f i imgui.obj
 0001:0000cd90       ?push_back@?$ImVector@PAUImFont@@@@QAEXABQAUImFont@@@Z 1000dd90 f i imgui.obj
 0001:0000ce40       ?push_back@?$ImVector@UImVec2@@@@QAEXABUImVec2@@@Z 1000de40 f i imgui.obj
 0001:0000ce90       ?resize@?$ImVector@G@@QAEXH@Z 1000de90 f i imgui.obj
 0001:0000ced0       ?insert@?$ImVector@UPair@ImGuiStorage@@@@QAEPAUPair@ImGuiStorage@@PBU23@ABU23@@Z 1000ded0 f i imgui.obj
 0001:0000cfb0       ?reserve@?$ImVector@D@@QAEXH@Z 1000dfb0 f i imgui.obj
 0001:0000d020       ?resize@?$ImVector@D@@QAEXH@Z 1000e020 f i imgui.obj
 0001:0000d060       ?reserve@?$ImVector@UImGuiPopupRef@@@@QAEXH@Z 1000e060 f i imgui.obj
 0001:0000d0e0       ?reserve@?$ImVector@UImVec2@@@@QAEXH@Z 1000e0e0 f i imgui.obj
 0001:0000d160       ?reserve@?$ImVector@G@@QAEXH@Z 1000e160 f i imgui.obj
 0001:0000d1d0       __snprintf                 1000e1d0 f i imgui_draw.obj
 0001:0000d1f0       ?push_back@?$ImVector@UCustomRect@ImFontAtlas@@@@QAEXABUCustomRect@ImFontAtlas@@@Z 1000e1f0 f i imgui_draw.obj
 0001:0000d2d0       ?resize@?$ImVector@UImDrawVert@@@@QAEXH@Z 1000e2d0 f i imgui_draw.obj
 0001:0000d380       ?reserve@?$ImVector@UImVec4@@@@QAEXH@Z 1000e380 f i imgui_draw.obj
 0001:0000d400       ?reserve@?$ImVector@UImDrawCmd@@@@QAEXH@Z 1000e400 f i imgui_draw.obj
 0001:0000d480       _snprintf                  1000e480 f i json11.obj
 0001:0000d4a0       ?_Get_deleter@_Ref_count_base@std@@UBEPAXABVtype_info@@@Z 1000e4a0 f i json11.obj
 0001:0000d4b0       ??_GJsonValue@json11@@MAEPAXI@Z 1000e4b0 f i json11.obj
 0001:0000d4b0       ??_EJsonValue@json11@@MAEPAXI@Z 1000e4b0 f i * CIL library *:* CIL module *
 0001:0000d4e0       ?bool_value@JsonBoolean@json11@@EBE_NXZ 1000e4e0 f i json11.obj
 0001:0000d4f0       ??_EJsonBoolean@json11@@UAEPAXI@Z 1000e4f0 f i * CIL library *:* CIL module *
 0001:0000d4f0       ??_EJsonNull@json11@@UAEPAXI@Z 1000e4f0 f i * CIL library *:* CIL module *
 0001:0000d4f0       ??_GJsonNull@json11@@UAEPAXI@Z 1000e4f0 f i json11.obj
 0001:0000d4f0       ??_GJsonBoolean@json11@@UAEPAXI@Z 1000e4f0 f i json11.obj
 0001:0000d520       ?dump@?$Value@$0A@UNullStruct@json11@@@json11@@MBEXAAV?$basic_string@DU?$char_traits@D@std@@V?$allocator@D@2@@std@@@Z 1000e520 f i json11.obj
 0001:0000d580       ?less@?$Value@$0A@UNullStruct@json11@@@json11@@MBE_NPBVJsonValue@2@@Z 1000e580 f i json11.obj
 0001:0000d590       ?equals@?$Value@$0A@UNullStruct@json11@@@json11@@MBE_NPBVJsonValue@2@@Z 1000e590 f i json11.obj
 0001:0000d5a0       ?dump@?$Value@$01_N@json11@@MBEXAAV?$basic_string@DU?$char_traits@D@std@@V?$allocator@D@2@@std@@@Z 1000e5a0 f i json11.obj
 0001:0000d5d0       ?less@?$Value@$01_N@json11@@MBE_NPBVJsonValue@2@@Z 1000e5d0 f i json11.obj
 0001:0000d5f0       ?equals@?$Value@$01_N@json11@@MBE_NPBVJsonValue@2@@Z 1000e5f0 f i json11.obj
 0001:0000d610       ?type@?$Value@$01_N@json11@@MBE?AW4Type@Json@2@XZ 1000e610 f i json11.obj
 0001:0000d620       ??1?$shared_ptr@VJsonValue@json11@@@std@@QAE@XZ 1000e620 f i json11.obj
 0001:0000d650       ??1?$vector@VJson@json11@@V?$allocator@VJson@json11@@@std@@@std@@QAE@XZ 1000e650 f i json11.obj
 0001:0000d660       ?_Tidy@?$vector@VJson@json11@@V?$allocator@VJson@json11@@@std@@@std@@AAEXXZ 1000e660 f i json11.obj
 0001:0000d6c0       ?_Buyheadnode@?$_Tree_comp_alloc@V?$_Tmap_traits@V?$basic_string@DU?$char_traits@D@std@@V?$allocator@D@2@@std@@VJson@json11@@U?$less@V?$basic_string@DU?$char_traits@D@std@@V?$allocator@D@2@@std@@@2@V?$allocator@U?$pair@$$CBV?$basic_string@DU?$char_traits@D@std@@V?$allocator@D@2@@std@@VJson@json11@@@std@@@2@$0A@@std@@@std@@QAEPAU?$_Tree_node@U?$pair@$$CBV?$basic_string@DU?$char_traits@D@std@@V?$allocator@D@2@@std@@VJson@json11@@@std@@PAX@2@XZ 1000e6c0 f i json11.obj
 0001:0000d6e0       ?_Erase@?$_Tree@V?$_Tmap_traits@V?$basic_string@DU?$char_traits@D@std@@V?$allocator@D@2@@std@@VJson@json11@@U?$less@V?$basic_string@DU?$char_traits@D@std@@V?$allocator@D@2@@std@@@2@V?$allocator@U?$pair@$$CBV?$basic_string@DU?$char_traits@D@std@@V?$allocator@D@2@@std@@VJson@json11@@@std@@@2@$0A@@std@@@std@@IAEXPAU?$_Tree_node@U?$pair@$$CBV?$basic_string@DU?$char_traits@D@std@@V?$allocator@D@2@@std@@VJson@json11@@@std@@PAX@2@@Z 1000e6e0 f i json11.obj
 0001:0000d730       ??$?HDU?$char_traits@D@std@@V?$allocator@D@1@@std@@YA?AV?$basic_string@DU?$char_traits@D@std@@V?$allocator@D@2@@0@$$QAV10@0@Z 1000e730 f i json11.obj
 0001:0000d7b0       ??$_Traits_compare@U?$char_traits@D@std@@@std@@YAHQBDI0I@Z 1000e7b0 f i json11.obj
 0001:0000d830       ??$_Lbound@V?$basic_string@DU?$char_traits@D@std@@V?$allocator@D@2@@std@@@?$_Tree@V?$_Tmap_traits@V?$basic_string@DU?$char_traits@D@std@@V?$allocator@D@2@@std@@VJson@json11@@U?$less@V?$basic_string@DU?$char_traits@D@std@@V?$allocator@D@2@@std@@@2@V?$allocator@U?$pair@$$CBV?$basic_string@DU?$char_traits@D@std@@V?$allocator@D@2@@std@@VJson@json11@@@std@@@2@$0A@@std@@@std@@IBEPAU?$_Tree_node@U?$pair@$$CBV?$basic_string@DU?$char_traits@D@std@@V?$allocator@D@2@@std@@VJson@json11@@@std@@PAX@1@ABV?$basic_string@DU?$char_traits@D@std@@V?$allocator@D@2@@1@@Z 1000e830 f i json11.obj
 0001:0000d890       ??$_Destroy_range@V?$allocator@VJson@json11@@@std@@@std@@YAXPAVJson@json11@@0AAV?$allocator@VJson@json11@@@0@@Z 1000e890 f i json11.obj
 0001:0000d8e0       ??1?$pair@$$CBV?$basic_string@DU?$char_traits@D@std@@V?$allocator@D@2@@std@@VJson@json11@@@std@@QAE@XZ 1000e8e0 f i json11.obj
 0001:0000d960       ?_Delete_this@?$_Ref_count_obj@VJsonBoolean@json11@@@std@@EAEXXZ 1000e960 f i json11.obj
 0001:0000d960       ?_Delete_this@?$_Ref_count_obj@VJsonNull@json11@@@std@@EAEXXZ 1000e960 f i json11.obj
 0001:0000d970       ?_Destroy@?$_Ref_count_obj@VJsonNull@json11@@@std@@EAEXXZ 1000e970 f i json11.obj
 0001:0000d970       ?_Destroy@?$_Ref_count_obj@VJsonBoolean@json11@@@std@@EAEXXZ 1000e970 f i json11.obj
 0001:0000d980       ?insert@?$basic_string@DU?$char_traits@D@std@@V?$allocator@D@2@@std@@QAEAAV12@IQBDI@Z 1000e980 f i json11.obj
 0001:0000da30       ??$_Reallocate_grow_by@V<lambda_4d79bb85f269e6e8002a4599002d832c>@@IPBDI@?$basic_string@DU?$char_traits@D@std@@V?$allocator@D@2@@std@@QAEAAV01@IV<lambda_4d79bb85f269e6e8002a4599002d832c>@@IPBDI@Z 1000ea30 f i json11.obj
 0001:0000db70       ??_G?$_Ref_count_obj@VJsonNull@json11@@@std@@UAEPAXI@Z 1000eb70 f i json11.obj
 0001:0000db70       ??_G?$_Ref_count_obj@VJsonBoolean@json11@@@std@@UAEPAXI@Z 1000eb70 f i json11.obj
 0001:0000db70       ??_E?$_Ref_count_obj@VJsonBoolean@json11@@@std@@UAEPAXI@Z 1000eb70 f i * CIL library *:* CIL module *
 0001:0000db70       ??_E?$_Ref_count_obj@VJsonNull@json11@@@std@@UAEPAXI@Z 1000eb70 f i * CIL library *:* CIL module *
 0001:0000db90       ??$encrypt_at@$0CDOOKOMGAONLMKMF@@detail@cx@@YADPBDI@Z 1000eb90 f i Draw.obj
 0001:0000dbf0       ??$encrypt_at@$0CDOOKOMGAONLMKME@@detail@cx@@YADPBDI@Z 1000ebf0 f i Draw.obj
 0001:0000dc50       ??$encrypt_at@$0CDOOKOMGAONLMKMD@@detail@cx@@YADPBDI@Z 1000ec50 f i Draw.obj
 0001:0000dcb0       ??$encrypt_at@$0CDOOKOMGAONLMKMC@@detail@cx@@YADPBDI@Z 1000ecb0 f i Draw.obj
 0001:0000dd10       ??$encrypt_at@$0?HBMKHCBOGDDBBGOH@@detail@cx@@YADPBDI@Z 1000ed10 f i Entity.obj
 0001:0000dd70       ??$encrypt_at@$0?HBMKHCBOGDDBBGOJ@@detail@cx@@YADPBDI@Z 1000ed70 f i Entity.obj
 0001:0000ddd0       ??$encrypt_at@$0?HBMKHCBOGDDBBGOL@@detail@cx@@YADPBDI@Z 1000edd0 f i Entity.obj
 0001:0000de30       ??$encrypt_at@$0?HBMKHCBOGDDBBGON@@detail@cx@@YADPBDI@Z 1000ee30 f i Entity.obj
 0001:0000de90       ??$encrypt_at@$0?HBMKHCBOGDDBBGOP@@detail@cx@@YADPBDI@Z 1000ee90 f i Entity.obj
 0001:0000def0       ??$encrypt_at@$0?HBMKHCBOGDDBBGPB@@detail@cx@@YADPBDI@Z 1000eef0 f i Entity.obj
 0001:0000df50       ??$encrypt_at@$0?HBMKHCBOGDDBBGPD@@detail@cx@@YADPBDI@Z 1000ef50 f i Entity.obj
 0001:0000dfb0       ??$encrypt_at@$0?HBMKHCBOGDDBBGPF@@detail@cx@@YADPBDI@Z 1000efb0 f i Entity.obj
 0001:0000e010       ??$encrypt_at@$0?HBMKHCBOGDDBBGPH@@detail@cx@@YADPBDI@Z 1000f010 f i Entity.obj
 0001:0000e070       ??$encrypt_at@$0?HBMKHCBOGDDBBGPJ@@detail@cx@@YADPBDI@Z 1000f070 f i Entity.obj
 0001:0000e0d0       ??$encrypt_at@$0?HBMKHCBOGDDBBGPL@@detail@cx@@YADPBDI@Z 1000f0d0 f i Entity.obj
 0001:0000e130       ??$encrypt_at@$0?HBMKHCBOGDDBBGPP@@detail@cx@@YADPBDI@Z 1000f130 f i Entity.obj
 0001:0000e190       ??$encrypt_at@$0?HBMKHCBOGDDBBHAB@@detail@cx@@YADPBDI@Z 1000f190 f i Entity.obj
 0001:0000e1f0       ??$encrypt_at@$0?HBMKHCBOGDDBBHAD@@detail@cx@@YADPBDI@Z 1000f1f0 f i Entity.obj
 0001:0000e250       ??$encrypt_at@$0?HBMKHCBOGDDBBHAF@@detail@cx@@YADPBDI@Z 1000f250 f i Entity.obj
 0001:0000e2b0       ??$encrypt_at@$0?HBMKHCBOGDDBBHAH@@detail@cx@@YADPBDI@Z 1000f2b0 f i Entity.obj
 0001:0000e310       ??$encrypt_at@$0?HBMKHCBOGDDBBHAJ@@detail@cx@@YADPBDI@Z 1000f310 f i Entity.obj
 0001:0000e370       ??$encrypt_at@$0?HBMKHCBOGDDBBHAL@@detail@cx@@YADPBDI@Z 1000f370 f i Entity.obj
 0001:0000e3d0       ??$encrypt_at@$0?HBMKHCBOGDDBBHAN@@detail@cx@@YADPBDI@Z 1000f3d0 f i Entity.obj
 0001:0000e430       ??$encrypt_at@$0?HBMKHCBOGDDBBHAP@@detail@cx@@YADPBDI@Z 1000f430 f i Entity.obj
 0001:0000e490       ??$encrypt_at@$0?HBMKHCBOGDDBBHBB@@detail@cx@@YADPBDI@Z 1000f490 f i Entity.obj
 0001:0000e4f0       ??$encrypt_at@$0?HBMKHCBOGDDBBHBD@@detail@cx@@YADPBDI@Z 1000f4f0 f i Entity.obj
 0001:0000e550       ??$encrypt_at@$0?HBMKHCBOGDDBBHBF@@detail@cx@@YADPBDI@Z 1000f550 f i Entity.obj
 0001:0000e5b0       ??$encrypt_at@$0?HBMKHCBOGDDBBHBH@@detail@cx@@YADPBDI@Z 1000f5b0 f i Entity.obj
 0001:0000e610       ??$encrypt_at@$0?HBMKHCBOGDDBBHBJ@@detail@cx@@YADPBDI@Z 1000f610 f i Entity.obj
 0001:0000e670       ??$encrypt_at@$0?HBMKHCBOGDDBBHBL@@detail@cx@@YADPBDI@Z 1000f670 f i Entity.obj
 0001:0000e6d0       ??$encrypt_at@$0?HBMKHCBOGDDBBHBN@@detail@cx@@YADPBDI@Z 1000f6d0 f i Entity.obj
 0001:0000e730       ??$encrypt_at@$0?HBMKHCBOGDDBBHBP@@detail@cx@@YADPBDI@Z 1000f730 f i Entity.obj
 0001:0000e790       ??$encrypt_at@$0?HBMKHCBOGDDBBHCB@@detail@cx@@YADPBDI@Z 1000f790 f i Entity.obj
 0001:0000e7f0       ??$encrypt_at@$0?HBMKHCBOGDDBBHCD@@detail@cx@@YADPBDI@Z 1000f7f0 f i Entity.obj
 0001:0000e850       ??$encrypt_at@$0?HBMKHCBOGDDBBHCF@@detail@cx@@YADPBDI@Z 1000f850 f i Entity.obj
 0001:0000e8b0       ??$encrypt_at@$0?HBMKHCBOGDDBBHCH@@detail@cx@@YADPBDI@Z 1000f8b0 f i Entity.obj
 0001:0000e910       ??$encrypt_at@$0?HBMKHCBOGDDBBHCJ@@detail@cx@@YADPBDI@Z 1000f910 f i Entity.obj
 0001:0000e970       ??$encrypt_at@$0?HBMKHCBOGDDBBHCL@@detail@cx@@YADPBDI@Z 1000f970 f i Entity.obj
 0001:0000e9d0       ??$encrypt_at@$0?HBMKHCBOGDDBBHCN@@detail@cx@@YADPBDI@Z 1000f9d0 f i Entity.obj
 0001:0000ea30       ??$encrypt_at@$0?HBMKHCBOGDDBBHCP@@detail@cx@@YADPBDI@Z 1000fa30 f i Entity.obj
 0001:0000ea90       ??$encrypt_at@$0?HBMKHCBOGDDBBHDB@@detail@cx@@YADPBDI@Z 1000fa90 f i Entity.obj
 0001:0000eaf0       ??$encrypt_at@$0?HBMKHCBOGDDBBHDD@@detail@cx@@YADPBDI@Z 1000faf0 f i Entity.obj
 0001:0000eb50       ??$encrypt_at@$0?HBMKHCBOGDDBBHDF@@detail@cx@@YADPBDI@Z 1000fb50 f i Entity.obj
 0001:0000ebb0       ??$encrypt_at@$0?HBMKHCBOGDDBBHDH@@detail@cx@@YADPBDI@Z 1000fbb0 f i Entity.obj
 0001:0000ec10       ??$encrypt_at@$0?HBMKHCBOGDDBBHDJ@@detail@cx@@YADPBDI@Z 1000fc10 f i Entity.obj
 0001:0000ec70       ??$encrypt_at@$0?HBMKHCBOGDDBBHDL@@detail@cx@@YADPBDI@Z 1000fc70 f i Entity.obj
 0001:0000ecd0       ??$encrypt_at@$0?HBMKHCBOGDDBBHDN@@detail@cx@@YADPBDI@Z 1000fcd0 f i Entity.obj
 0001:0000ed30       ??_GCInput@@UAEPAXI@Z      1000fd30 f i Input.obj
 0001:0000ed30       ??_ECInput@@UAEPAXI@Z      1000fd30 f i * CIL library *:* CIL module *
 0001:0000ed60       ?to_string@std@@YA?AV?$basic_string@DU?$char_traits@D@std@@V?$allocator@D@2@@1@H@Z 1000fd60 f i IMaterialSystem.obj
 0001:0000edd0       ??$_UIntegral_to_buff@DI@std@@YAPADPADI@Z 1000fdd0 f i IMaterialSystem.obj
 0001:0000ee00       ??$encrypt@$0BPBBEJOMCIMABAHD@$0A@$00$01$02$03$04$05$06$07$08$09$0L@$0M@$0N@$0O@$0P@$0BA@$0BB@$0BC@$0BD@$0BE@$0BF@$0BG@$0BH@$0BI@$0BJ@$0BK@$0BL@$0BM@$0BN@$0BO@$0BP@$0CA@$0CB@$0CC@$0CD@$0CE@$0CF@$0CG@$0CH@$0CI@$0CJ@$0CK@$0CL@$0CM@$0CN@$0CO@$0CP@$0DA@$0DB@$0DC@$0DD@$0DE@$0DF@$0DG@$0DH@$0DI@$0DJ@$0DK@$0DL@$0DM@$0DN@$0DO@$0DP@$0EA@$0EB@$0EC@$0ED@$0EE@$0EF@$0EG@$0EH@$0EI@$0EJ@$0EK@$0EL@$0EM@$0EN@$0EO@$0EP@$0FA@$0FB@$0FC@$0FD@$0FE@$0FF@$0FG@$0FH@$0FI@$0FJ@$0FK@$0FL@$0FM@$0FN@$0FO@$0FP@$0GA@$0GB@$0GC@$0GD@$0GE@$0GF@$0GG@$0GH@$0GI@$0GJ@$0GK@$0GL@$0GM@$0GN@$0GO@$0GP@$0HA@$0HB@$0HC@$0HD@$0HE@$0HF@$0HG@$0HH@$0HI@$0HJ@$0HK@$0HL@$0HM@$0HN@$0HO@$0HP@$0IA@$0IB@$0IC@$0ID@$0IE@$0IF@$0IG@$0IH@$0II@$0IJ@$0IK@$0IL@$0IM@$0IN@$0IO@$0IP@$0JA@$0JB@$0JC@$0JD@$0JE@$0JF@$0JG@$0JH@$0JI@$0JJ@$0JK@$0JL@$0JM@$0JN@$0JO@$0JP@$0KA@$0KB@$0KC@$0KD@$0KE@$0KF@$0KG@$0KH@$0KI@$0KJ@$0KK@$0KL@$0KM@$0KN@$0KO@$0KP@$0LA@$0LB@$0LC@$0LD@$0LE@$0LF@$0LG@$0LH@@detail@cx@@YA?AU?$char_array@$0LI@@01@PBDU?$integer_sequence@I$0A@$00$01$02$03$04$05$06$07$08$09$0L@$0M@$0N@$0O@$0P@$0BA@$0BB@$0BC@$0BD@$0BE@$0BF@$0BG@$0BH@$0BI@$0BJ@$0BK@$0BL@$0BM@$0BN@$0BO@$0BP@$0CA@$0CB@$0CC@$0CD@$0CE@$0CF@$0CG@$0CH@$0CI@$0CJ@$0CK@$0CL@$0CM@$0CN@$0CO@$0CP@$0DA@$0DB@$0DC@$0DD@$0DE@$0DF@$0DG@$0DH@$0DI@$0DJ@$0DK@$0DL@$0DM@$0DN@$0DO@$0DP@$0EA@$0EB@$0EC@$0ED@$0EE@$0EF@$0EG@$0EH@$0EI@$0EJ@$0EK@$0EL@$0EM@$0EN@$0EO@$0EP@$0FA@$0FB@$0FC@$0FD@$0FE@$0FF@$0FG@$0FH@$0FI@$0FJ@$0FK@$0FL@$0FM@$0FN@$0FO@$0FP@$0GA@$0GB@$0GC@$0GD@$0GE@$0GF@$0GG@$0GH@$0GI@$0GJ@$0GK@$0GL@$0GM@$0GN@$0GO@$0GP@$0HA@$0HB@$0HC@$0HD@$0HE@$0HF@$0HG@$0HH@$0HI@$0HJ@$0HK@$0HL@$0HM@$0HN@$0HO@$0HP@$0IA@$0IB@$0IC@$0ID@$0IE@$0IF@$0IG@$0IH@$0II@$0IJ@$0IK@$0IL@$0IM@$0IN@$0IO@$0IP@$0JA@$0JB@$0JC@$0JD@$0JE@$0JF@$0JG@$0JH@$0JI@$0JJ@$0JK@$0JL@$0JM@$0JN@$0JO@$0JP@$0KA@$0KB@$0KC@$0KD@$0KE@$0KF@$0KG@$0KH@$0KI@$0KJ@$0KK@$0KL@$0KM@$0KN@$0KO@$0KP@$0LA@$0LB@$0LC@$0LD@$0LE@$0LF@$0LG@$0LH@@std@@@Z 1000fe00 f i IMaterialSystem.obj
 0001:0000fbb0       ??$encrypt_at@$0BPBBEJOMCIMABAHF@@detail@cx@@YADPBDI@Z 10010bb0 f i IMaterialSystem.obj
 0001:0000fc10       ??$encrypt_at@$0BPBBEJOMCIMABAHD@@detail@cx@@YADPBDI@Z 10010c10 f i IMaterialSystem.obj
 0001:0000fc70       ??0exception@std@@QAE@ABV01@@Z 10010c70 f i NetVarManager.obj
 0001:0000fca0       ?what@exception@std@@UBEPBDXZ 10010ca0 f i NetVarManager.obj
 0001:0000fcb0       ??_Gbad_cast@std@@UAEPAXI@Z 10010cb0 f i NetVarManager.obj
 0001:0000fcb0       ??_Gexception@std@@UAEPAXI@Z 10010cb0 f i NetVarManager.obj
 0001:0000fcb0       ??_Eexception@std@@UAEPAXI@Z 10010cb0 f i * CIL library *:* CIL module *
 0001:0000fcb0       ??_Ebad_cast@std@@UAEPAXI@Z 10010cb0 f i * CIL library *:* CIL module *
 0001:0000fcf0       ??0bad_cast@std@@QAE@XZ    10010cf0 f i NetVarManager.obj
 0001:0000fd10       ??1bad_cast@std@@UAE@XZ    10010d10 f i NetVarManager.obj
 0001:0000fd30       ??1locale@std@@QAE@XZ      10010d30 f i NetVarManager.obj
 0001:0000fd80       ??0CNetVarManager@@QAE@XZ  10010d80 f i NetVarManager.obj
 0001:0000fe80       ??_D?$basic_ofstream@DU?$char_traits@D@std@@@std@@QAEXXZ 10010e80 f i NetVarManager.obj
 0001:0000ff30       ?imbue@?$basic_filebuf@DU?$char_traits@D@std@@@std@@MAEXABVlocale@2@@Z 10010f30 f i NetVarManager.obj
 0001:0000ff70       ?sync@?$basic_filebuf@DU?$char_traits@D@std@@@std@@MAEHXZ 10010f70 f i NetVarManager.obj
 0001:0000ffa0       ?setbuf@?$basic_filebuf@DU?$char_traits@D@std@@@std@@MAEPAV?$basic_streambuf@DU?$char_traits@D@std@@@2@PAD_J@Z 10010fa0 f i NetVarManager.obj
 0001:0000fff0       ?seekpos@?$basic_filebuf@DU?$char_traits@D@std@@@std@@MAE?AV?$fpos@U_Mbstatet@@@2@V32@H@Z 10010ff0 f i NetVarManager.obj
 0001:000100c0       ?seekoff@?$basic_filebuf@DU?$char_traits@D@std@@@std@@MAE?AV?$fpos@U_Mbstatet@@@2@_JHH@Z 100110c0 f i NetVarManager.obj
 0001:000101b0       ?xsputn@?$basic_filebuf@DU?$char_traits@D@std@@@std@@MAE_JPBD_J@Z 100111b0 f i NetVarManager.obj
 0001:000102a0       ?xsgetn@?$basic_filebuf@DU?$char_traits@D@std@@@std@@MAE_JPAD_J@Z 100112a0 f i NetVarManager.obj
 0001:000103b0       ?uflow@?$basic_filebuf@DU?$char_traits@D@std@@@std@@MAEHXZ 100113b0 f i NetVarManager.obj
 0001:000105b0       ?underflow@?$basic_filebuf@DU?$char_traits@D@std@@@std@@MAEHXZ 100115b0 f i NetVarManager.obj
 0001:00010670       ?pbackfail@?$basic_filebuf@DU?$char_traits@D@std@@@std@@MAEHH@Z 10011670 f i NetVarManager.obj
 0001:00010720       ?overflow@?$basic_filebuf@DU?$char_traits@D@std@@@std@@MAEHH@Z 10011720 f i NetVarManager.obj
 0001:00010870       ?_Unlock@?$basic_filebuf@DU?$char_traits@D@std@@@std@@UAEXXZ 10011870 f i NetVarManager.obj
 0001:00010880       ?_Lock@?$basic_filebuf@DU?$char_traits@D@std@@@std@@UAEXXZ 10011880 f i NetVarManager.obj
 0001:00010890       ??1?$basic_filebuf@DU?$char_traits@D@std@@@std@@UAE@XZ 10011890 f i NetVarManager.obj
 0001:00010910       ??_E?$basic_ofstream@DU?$char_traits@D@std@@@std@@UAEPAXI@Z 10011910 f i * CIL library *:* CIL module *
 0001:00010910       ??_G?$basic_ofstream@DU?$char_traits@D@std@@@std@@UAEPAXI@Z 10011910 f i NetVarManager.obj
 0001:00010940       ??_G?$basic_filebuf@DU?$char_traits@D@std@@@std@@UAEPAXI@Z 10011940 f i NetVarManager.obj
 0001:00010940       ??_E?$basic_filebuf@DU?$char_traits@D@std@@@std@@UAEPAXI@Z 10011940 f i * CIL library *:* CIL module *
 0001:000109e0       ?_Reset_back@?$basic_filebuf@DU?$char_traits@D@std@@@std@@AAEXXZ 100119e0 f i NetVarManager.obj
 0001:00010a10       ?_Endwrite@?$basic_filebuf@DU?$char_traits@D@std@@@std@@IAE_NXZ 10011a10 f i NetVarManager.obj
 0001:00010ad0       ?_Init@?$basic_filebuf@DU?$char_traits@D@std@@@std@@IAEXPAU_iobuf@@W4_Initfl@12@@Z 10011ad0 f i NetVarManager.obj
 0001:00010b60       ?close@?$basic_filebuf@DU?$char_traits@D@std@@@std@@QAEPAV12@XZ 10011b60 f i NetVarManager.obj
 0001:00010bd0       ?open@?$basic_filebuf@DU?$char_traits@D@std@@@std@@QAEPAV12@PBDHH@Z 10011bd0 f i NetVarManager.obj
 0001:00010cb0       ??$_Emplace_reallocate@PAV?$ConfigValue@H@@@?$vector@PAV?$ConfigValue@H@@V?$allocator@PAV?$ConfigValue@H@@@std@@@std@@QAEPAPAV?$ConfigValue@H@@QAPAV2@$$QAPAV2@@Z 10011cb0 f i Config.obj
 0001:00010cb0       ??$_Emplace_reallocate@ABQAURecvTable@@@?$vector@PAURecvTable@@V?$allocator@PAURecvTable@@@std@@@std@@QAEPAPAURecvTable@@QAPAU2@ABQAU2@@Z 10011cb0 f i NetVarManager.obj
 0001:00010cb0       ??$_Emplace_reallocate@PAV?$ConfigValue@M@@@?$vector@PAV?$ConfigValue@M@@V?$allocator@PAV?$ConfigValue@M@@@std@@@std@@QAEPAPAV?$ConfigValue@M@@QAPAV2@$$QAPAV2@@Z 10011cb0 f i Config.obj
 0001:00010cb0       ??$_Emplace_reallocate@PAV?$ConfigValue@_N@@@?$vector@PAV?$ConfigValue@_N@@V?$allocator@PAV?$ConfigValue@_N@@@std@@@std@@QAEPAPAV?$ConfigValue@_N@@QAPAV2@$$QAPAV2@@Z 10011cb0 f i Config.obj
 0001:00010e10       ??$use_facet@V?$codecvt@DDU_Mbstatet@@@std@@@std@@YAABV?$codecvt@DDU_Mbstatet@@@0@ABVlocale@0@@Z 10011e10 f i NetVarManager.obj
 0001:00010f10       ??0bad_cast@std@@QAE@ABV01@@Z 10011f10 f i NetVarManager.obj
 0001:00010f50       ??1?$unique_ptr@V_Facet_base@std@@U?$default_delete@V_Facet_base@std@@@2@@std@@QAE@XZ 10011f50 f i NetVarManager.obj
 0001:00010f5d       ??_E?$basic_ofstream@DU?$char_traits@D@std@@@std@@$4PPPPPPPM@A@AEPAXI@Z 10011f5d f i NetVarManager.obj
 0001:00010f70       ??0Variables@@QAE@XZ       10011f70 f i Config.obj
 0001:00011190       ??0Visualsxd@cVisuals@@QAE@XZ 10012190 f i Config.obj
 0001:000115b0       ??_D?$basic_fstream@DU?$char_traits@D@std@@@std@@QAEXXZ 100125b0 f i Config.obj
 0001:00011660       ??B?$encrypted_string@$0?GJHJCOJGIOBIIHDD@$07@cx@@QBE?AV?$basic_string@DU?$char_traits@D@std@@V?$allocator@D@2@@std@@XZ 10012660 f i Config.obj
 0001:00011690       ??B?$encrypted_string@$0?GJHJCOJGIOBIIHDE@$04@cx@@QBE?AV?$basic_string@DU?$char_traits@D@std@@V?$allocator@D@2@@std@@XZ 10012690 f i Config.obj
 0001:000116c0       ??B?$encrypted_string@$0?GJHJCOJGIOBIIHDE@$07@cx@@QBE?AV?$basic_string@DU?$char_traits@D@std@@V?$allocator@D@2@@std@@XZ 100126c0 f i Config.obj
 0001:000116f0       ??B?$encrypted_string@$0?GJHJCOJGIOBIIHDF@$0M@@cx@@QBE?AV?$basic_string@DU?$char_traits@D@std@@V?$allocator@D@2@@std@@XZ 100126f0 f i Config.obj
 0001:00011720       ??B?$encrypted_string@$0?GJHJCOJGIOBIIHDF@$07@cx@@QBE?AV?$basic_string@DU?$char_traits@D@std@@V?$allocator@D@2@@std@@XZ 10012720 f i Config.obj
 0001:00011750       ??B?$encrypted_string@$0?GJHJCOJGIOBIIHDG@$0M@@cx@@QBE?AV?$basic_string@DU?$char_traits@D@std@@V?$allocator@D@2@@std@@XZ 10012750 f i Config.obj
 0001:00011780       ??B?$encrypted_string@$0?GJHJCOJGIOBIIHDG@$07@cx@@QBE?AV?$basic_string@DU?$char_traits@D@std@@V?$allocator@D@2@@std@@XZ 10012780 f i Config.obj
 0001:000117b0       ??B?$encrypted_string@$0?GJHJCOJGIOBIIHDH@$0O@@cx@@QBE?AV?$basic_string@DU?$char_traits@D@std@@V?$allocator@D@2@@std@@XZ 100127b0 f i Config.obj
 0001:000117e0       ??B?$encrypted_string@$0?GJHJCOJGIOBIIHDH@$07@cx@@QBE?AV?$basic_string@DU?$char_traits@D@std@@V?$allocator@D@2@@std@@XZ 100127e0 f i Config.obj
 0001:00011810       ??B?$encrypted_string@$0?GJHJCOJGIOBIIHDI@$0L@@cx@@QBE?AV?$basic_string@DU?$char_traits@D@std@@V?$allocator@D@2@@std@@XZ 10012810 f i Config.obj
 0001:00011840       ??B?$encrypted_string@$0?GJHJCOJGIOBIIHDI@$04@cx@@QBE?AV?$basic_string@DU?$char_traits@D@std@@V?$allocator@D@2@@std@@XZ 10012840 f i Config.obj
 0001:00011870       ??B?$encrypted_string@$0?GJHJCOJGIOBIIHDJ@$0P@@cx@@QBE?AV?$basic_string@DU?$char_traits@D@std@@V?$allocator@D@2@@std@@XZ 10012870 f i Config.obj
 0001:000118a0       ??B?$encrypted_string@$0?GJHJCOJGIOBIIHDJ@$07@cx@@QBE?AV?$basic_string@DU?$char_traits@D@std@@V?$allocator@D@2@@std@@XZ 100128a0 f i Config.obj
 0001:000118d0       ??B?$encrypted_string@$0?GJHJCOJGIOBIIHDK@$0O@@cx@@QBE?AV?$basic_string@DU?$char_traits@D@std@@V?$allocator@D@2@@std@@XZ 100128d0 f i Config.obj
 0001:00011900       ??B?$encrypted_string@$0?GJHJCOJGIOBIIHDK@$07@cx@@QBE?AV?$basic_string@DU?$char_traits@D@std@@V?$allocator@D@2@@std@@XZ 10012900 f i Config.obj
 0001:00011930       ??B?$encrypted_string@$0?GJHJCOJGIOBIIHDM@$0L@@cx@@QBE?AV?$basic_string@DU?$char_traits@D@std@@V?$allocator@D@2@@std@@XZ 10012930 f i Config.obj
 0001:00011960       ??B?$encrypted_string@$0?GJHJCOJGIOBIIHDM@$05@cx@@QBE?AV?$basic_string@DU?$char_traits@D@std@@V?$allocator@D@2@@std@@XZ 10012960 f i Config.obj
 0001:00011990       ??B?$encrypted_string@$0?GJHJCOJGIOBIIHDN@$09@cx@@QBE?AV?$basic_string@DU?$char_traits@D@std@@V?$allocator@D@2@@std@@XZ 10012990 f i Config.obj
 0001:000119c0       ??B?$encrypted_string@$0?GJHJCOJGIOBIIHDN@$05@cx@@QBE?AV?$basic_string@DU?$char_traits@D@std@@V?$allocator@D@2@@std@@XZ 100129c0 f i Config.obj
 0001:000119f0       ??B?$encrypted_string@$0?GJHJCOJGIOBIIHDO@$0L@@cx@@QBE?AV?$basic_string@DU?$char_traits@D@std@@V?$allocator@D@2@@std@@XZ 100129f0 f i Config.obj
 0001:00011a20       ??B?$encrypted_string@$0?GJHJCOJGIOBIIHDO@$05@cx@@QBE?AV?$basic_string@DU?$char_traits@D@std@@V?$allocator@D@2@@std@@XZ 10012a20 f i Config.obj
 0001:00011a50       ??B?$encrypted_string@$0?GJHJCOJGIOBIIHEA@$0N@@cx@@QBE?AV?$basic_string@DU?$char_traits@D@std@@V?$allocator@D@2@@std@@XZ 10012a50 f i Config.obj
 0001:00011a80       ??B?$encrypted_string@$0?GJHJCOJGIOBIIHEA@$09@cx@@QBE?AV?$basic_string@DU?$char_traits@D@std@@V?$allocator@D@2@@std@@XZ 10012a80 f i Config.obj
 0001:00011ab0       ??B?$encrypted_string@$0?GJHJCOJGIOBIIHEB@$0N@@cx@@QBE?AV?$basic_string@DU?$char_traits@D@std@@V?$allocator@D@2@@std@@XZ 10012ab0 f i Config.obj
 0001:00011ae0       ??B?$encrypted_string@$0?GJHJCOJGIOBIIHEB@$09@cx@@QBE?AV?$basic_string@DU?$char_traits@D@std@@V?$allocator@D@2@@std@@XZ 10012ae0 f i Config.obj
 0001:00011b10       ??B?$encrypted_string@$0?GJHJCOJGIOBIIHEC@$0O@@cx@@QBE?AV?$basic_string@DU?$char_traits@D@std@@V?$allocator@D@2@@std@@XZ 10012b10 f i Config.obj
 0001:00011b40       ??B?$encrypted_string@$0?GJHJCOJGIOBIIHEC@$09@cx@@QBE?AV?$basic_string@DU?$char_traits@D@std@@V?$allocator@D@2@@std@@XZ 10012b40 f i Config.obj
 0001:00011b70       ??B?$encrypted_string@$0?GJHJCOJGIOBIIHED@$0P@@cx@@QBE?AV?$basic_string@DU?$char_traits@D@std@@V?$allocator@D@2@@std@@XZ 10012b70 f i Config.obj
 0001:00011ba0       ??B?$encrypted_string@$0?GJHJCOJGIOBIIHED@$09@cx@@QBE?AV?$basic_string@DU?$char_traits@D@std@@V?$allocator@D@2@@std@@XZ 10012ba0 f i Config.obj
 0001:00011bd0       ??B?$encrypted_string@$0?GJHJCOJGIOBIIHEE@$0N@@cx@@QBE?AV?$basic_string@DU?$char_traits@D@std@@V?$allocator@D@2@@std@@XZ 10012bd0 f i Config.obj
 0001:00011c00       ??B?$encrypted_string@$0?GJHJCOJGIOBIIHEE@$09@cx@@QBE?AV?$basic_string@DU?$char_traits@D@std@@V?$allocator@D@2@@std@@XZ 10012c00 f i Config.obj
 0001:00011c30       ??B?$encrypted_string@$0?GJHJCOJGIOBIIHEF@$0N@@cx@@QBE?AV?$basic_string@DU?$char_traits@D@std@@V?$allocator@D@2@@std@@XZ 10012c30 f i Config.obj
 0001:00011c60       ??B?$encrypted_string@$0?GJHJCOJGIOBIIHEF@$09@cx@@QBE?AV?$basic_string@DU?$char_traits@D@std@@V?$allocator@D@2@@std@@XZ 10012c60 f i Config.obj
 0001:00011c90       ??B?$encrypted_string@$0?GJHJCOJGIOBIIHEJ@$0M@@cx@@QBE?AV?$basic_string@DU?$char_traits@D@std@@V?$allocator@D@2@@std@@XZ 10012c90 f i Config.obj
 0001:00011cc0       ??B?$encrypted_string@$0?GJHJCOJGIOBIIHEJ@$06@cx@@QBE?AV?$basic_string@DU?$char_traits@D@std@@V?$allocator@D@2@@std@@XZ 10012cc0 f i Config.obj
 0001:00011cf0       ??B?$encrypted_string@$0?GJHJCOJGIOBIIHEK@$0M@@cx@@QBE?AV?$basic_string@DU?$char_traits@D@std@@V?$allocator@D@2@@std@@XZ 10012cf0 f i Config.obj
 0001:00011d20       ??B?$encrypted_string@$0?GJHJCOJGIOBIIHEK@$06@cx@@QBE?AV?$basic_string@DU?$char_traits@D@std@@V?$allocator@D@2@@std@@XZ 10012d20 f i Config.obj
 0001:00011d50       ??B?$encrypted_string@$0?GJHJCOJGIOBIIHEL@$0M@@cx@@QBE?AV?$basic_string@DU?$char_traits@D@std@@V?$allocator@D@2@@std@@XZ 10012d50 f i Config.obj
 0001:00011d80       ??B?$encrypted_string@$0?GJHJCOJGIOBIIHEL@$06@cx@@QBE?AV?$basic_string@DU?$char_traits@D@std@@V?$allocator@D@2@@std@@XZ 10012d80 f i Config.obj
 0001:00011db0       ??B?$encrypted_string@$0?GJHJCOJGIOBIIHEN@$0M@@cx@@QBE?AV?$basic_string@DU?$char_traits@D@std@@V?$allocator@D@2@@std@@XZ 10012db0 f i Config.obj
 0001:00011de0       ??B?$encrypted_string@$0?GJHJCOJGIOBIIHEN@$06@cx@@QBE?AV?$basic_string@DU?$char_traits@D@std@@V?$allocator@D@2@@std@@XZ 10012de0 f i Config.obj
 0001:00011e10       ??B?$encrypted_string@$0?GJHJCOJGIOBIIHEO@$0M@@cx@@QBE?AV?$basic_string@DU?$char_traits@D@std@@V?$allocator@D@2@@std@@XZ 10012e10 f i Config.obj
 0001:00011e40       ??B?$encrypted_string@$0?GJHJCOJGIOBIIHEO@$06@cx@@QBE?AV?$basic_string@DU?$char_traits@D@std@@V?$allocator@D@2@@std@@XZ 10012e40 f i Config.obj
 0001:00011e70       ??B?$encrypted_string@$0?GJHJCOJGIOBIIHEP@$0M@@cx@@QBE?AV?$basic_string@DU?$char_traits@D@std@@V?$allocator@D@2@@std@@XZ 10012e70 f i Config.obj
 0001:00011ea0       ??B?$encrypted_string@$0?GJHJCOJGIOBIIHEP@$06@cx@@QBE?AV?$basic_string@DU?$char_traits@D@std@@V?$allocator@D@2@@std@@XZ 10012ea0 f i Config.obj
 0001:00011ed0       ??B?$encrypted_string@$0?GJHJCOJGIOBIIHFB@$0L@@cx@@QBE?AV?$basic_string@DU?$char_traits@D@std@@V?$allocator@D@2@@std@@XZ 10012ed0 f i Config.obj
 0001:00011f00       ??B?$encrypted_string@$0?GJHJCOJGIOBIIHFB@$06@cx@@QBE?AV?$basic_string@DU?$char_traits@D@std@@V?$allocator@D@2@@std@@XZ 10012f00 f i Config.obj
 0001:00011f30       ??B?$encrypted_string@$0?GJHJCOJGIOBIIHFC@$0L@@cx@@QBE?AV?$basic_string@DU?$char_traits@D@std@@V?$allocator@D@2@@std@@XZ 10012f30 f i Config.obj
 0001:00011f60       ??B?$encrypted_string@$0?GJHJCOJGIOBIIHFC@$06@cx@@QBE?AV?$basic_string@DU?$char_traits@D@std@@V?$allocator@D@2@@std@@XZ 10012f60 f i Config.obj
 0001:00011f90       ??B?$encrypted_string@$0?GJHJCOJGIOBIIHFD@$0L@@cx@@QBE?AV?$basic_string@DU?$char_traits@D@std@@V?$allocator@D@2@@std@@XZ 10012f90 f i Config.obj
 0001:00011fc0       ??B?$encrypted_string@$0?GJHJCOJGIOBIIHFD@$06@cx@@QBE?AV?$basic_string@DU?$char_traits@D@std@@V?$allocator@D@2@@std@@XZ 10012fc0 f i Config.obj
 0001:00011ff0       ??B?$encrypted_string@$0?GJHJCOJGIOBIIHFF@$0L@@cx@@QBE?AV?$basic_string@DU?$char_traits@D@std@@V?$allocator@D@2@@std@@XZ 10012ff0 f i Config.obj
 0001:00012020       ??B?$encrypted_string@$0?GJHJCOJGIOBIIHFF@$06@cx@@QBE?AV?$basic_string@DU?$char_traits@D@std@@V?$allocator@D@2@@std@@XZ 10013020 f i Config.obj
 0001:00012050       ??B?$encrypted_string@$0?GJHJCOJGIOBIIHFG@$0L@@cx@@QBE?AV?$basic_string@DU?$char_traits@D@std@@V?$allocator@D@2@@std@@XZ 10013050 f i Config.obj
 0001:00012080       ??B?$encrypted_string@$0?GJHJCOJGIOBIIHFG@$06@cx@@QBE?AV?$basic_string@DU?$char_traits@D@std@@V?$allocator@D@2@@std@@XZ 10013080 f i Config.obj
 0001:000120b0       ??B?$encrypted_string@$0?GJHJCOJGIOBIIHFH@$0L@@cx@@QBE?AV?$basic_string@DU?$char_traits@D@std@@V?$allocator@D@2@@std@@XZ 100130b0 f i Config.obj
 0001:000120e0       ??B?$encrypted_string@$0?GJHJCOJGIOBIIHFH@$06@cx@@QBE?AV?$basic_string@DU?$char_traits@D@std@@V?$allocator@D@2@@std@@XZ 100130e0 f i Config.obj
 0001:00012110       ??B?$encrypted_string@$0?GJHJCOJGIOBIIHFK@$06@cx@@QBE?AV?$basic_string@DU?$char_traits@D@std@@V?$allocator@D@2@@std@@XZ 10013110 f i Config.obj
 0001:00012140       ??B?$encrypted_string@$0?GJHJCOJGIOBIIHFL@$06@cx@@QBE?AV?$basic_string@DU?$char_traits@D@std@@V?$allocator@D@2@@std@@XZ 10013140 f i Config.obj
 0001:00012170       ??B?$encrypted_string@$0?GJHJCOJGIOBIIHFM@$06@cx@@QBE?AV?$basic_string@DU?$char_traits@D@std@@V?$allocator@D@2@@std@@XZ 10013170 f i Config.obj
 0001:000121a0       ??B?$encrypted_string@$0?GJHJCOJGIOBIIHFO@$06@cx@@QBE?AV?$basic_string@DU?$char_traits@D@std@@V?$allocator@D@2@@std@@XZ 100131a0 f i Config.obj
 0001:000121d0       ??B?$encrypted_string@$0?GJHJCOJGIOBIIHFP@$06@cx@@QBE?AV?$basic_string@DU?$char_traits@D@std@@V?$allocator@D@2@@std@@XZ 100131d0 f i Config.obj
 0001:00012200       ??B?$encrypted_string@$0?GJHJCOJGIOBIIHGA@$06@cx@@QBE?AV?$basic_string@DU?$char_traits@D@std@@V?$allocator@D@2@@std@@XZ 10013200 f i Config.obj
 0001:00012230       ??B?$encrypted_string@$0?GJHJCOJGIOBIIHGC@$06@cx@@QBE?AV?$basic_string@DU?$char_traits@D@std@@V?$allocator@D@2@@std@@XZ 10013230 f i Config.obj
 0001:00012260       ??B?$encrypted_string@$0?GJHJCOJGIOBIIHGD@$06@cx@@QBE?AV?$basic_string@DU?$char_traits@D@std@@V?$allocator@D@2@@std@@XZ 10013260 f i Config.obj
 0001:00012290       ??B?$encrypted_string@$0?GJHJCOJGIOBIIHGE@$06@cx@@QBE?AV?$basic_string@DU?$char_traits@D@std@@V?$allocator@D@2@@std@@XZ 10013290 f i Config.obj
 0001:000122c0       ??B?$encrypted_string@$0?GJHJCOJGIOBIIHGN@$04@cx@@QBE?AV?$basic_string@DU?$char_traits@D@std@@V?$allocator@D@2@@std@@XZ 100132c0 f i Config.obj
 0001:000122f0       ??B?$encrypted_string@$0?GJHJCOJGIOBIIHGN@$07@cx@@QBE?AV?$basic_string@DU?$char_traits@D@std@@V?$allocator@D@2@@std@@XZ 100132f0 f i Config.obj
 0001:00012320       ??B?$encrypted_string@$0?GJHJCOJGIOBIIHGO@$04@cx@@QBE?AV?$basic_string@DU?$char_traits@D@std@@V?$allocator@D@2@@std@@XZ 10013320 f i Config.obj
 0001:00012350       ??B?$encrypted_string@$0?GJHJCOJGIOBIIHGO@$07@cx@@QBE?AV?$basic_string@DU?$char_traits@D@std@@V?$allocator@D@2@@std@@XZ 10013350 f i Config.obj
 0001:00012380       ??B?$encrypted_string@$0?GJHJCOJGIOBIIHGP@$0N@@cx@@QBE?AV?$basic_string@DU?$char_traits@D@std@@V?$allocator@D@2@@std@@XZ 10013380 f i Config.obj
 0001:000123b0       ??B?$encrypted_string@$0?GJHJCOJGIOBIIHHB@$0N@@cx@@QBE?AV?$basic_string@DU?$char_traits@D@std@@V?$allocator@D@2@@std@@XZ 100133b0 f i Config.obj
 0001:000123e0       ??B?$encrypted_string@$0?GJHJCOJGIOBIIHHB@$04@cx@@QBE?AV?$basic_string@DU?$char_traits@D@std@@V?$allocator@D@2@@std@@XZ 100133e0 f i Config.obj
 0001:00012410       ??B?$encrypted_string@$0?GJHJCOJGIOBIIHHC@$08@cx@@QBE?AV?$basic_string@DU?$char_traits@D@std@@V?$allocator@D@2@@std@@XZ 10013410 f i Config.obj
 0001:00012440       ??B?$encrypted_string@$0?GJHJCOJGIOBIIHHC@$04@cx@@QBE?AV?$basic_string@DU?$char_traits@D@std@@V?$allocator@D@2@@std@@XZ 10013440 f i Config.obj
 0001:00012470       ??B?$encrypted_string@$0?GJHJCOJGIOBIIHHD@$05@cx@@QBE?AV?$basic_string@DU?$char_traits@D@std@@V?$allocator@D@2@@std@@XZ 10013470 f i Config.obj
 0001:000124a0       ??B?$encrypted_string@$0?GJHJCOJGIOBIIHHD@$04@cx@@QBE?AV?$basic_string@DU?$char_traits@D@std@@V?$allocator@D@2@@std@@XZ 100134a0 f i Config.obj
 0001:000124d0       ??B?$encrypted_string@$0?GJHJCOJGIOBIIHHF@$09@cx@@QBE?AV?$basic_string@DU?$char_traits@D@std@@V?$allocator@D@2@@std@@XZ 100134d0 f i Config.obj
 0001:00012500       ??B?$encrypted_string@$0?GJHJCOJGIOBIIHHF@$04@cx@@QBE?AV?$basic_string@DU?$char_traits@D@std@@V?$allocator@D@2@@std@@XZ 10013500 f i Config.obj
 0001:00012530       ??B?$encrypted_string@$0?GJHJCOJGIOBIIHHG@$0P@@cx@@QBE?AV?$basic_string@DU?$char_traits@D@std@@V?$allocator@D@2@@std@@XZ 10013530 f i Config.obj
 0001:00012560       ??B?$encrypted_string@$0?GJHJCOJGIOBIIHHG@$04@cx@@QBE?AV?$basic_string@DU?$char_traits@D@std@@V?$allocator@D@2@@std@@XZ 10013560 f i Config.obj
 0001:00012590       ??B?$encrypted_string@$0?GJHJCOJGIOBIIHHH@$0N@@cx@@QBE?AV?$basic_string@DU?$char_traits@D@std@@V?$allocator@D@2@@std@@XZ 10013590 f i Config.obj
 0001:000125c0       ??B?$encrypted_string@$0?GJHJCOJGIOBIIHHH@$04@cx@@QBE?AV?$basic_string@DU?$char_traits@D@std@@V?$allocator@D@2@@std@@XZ 100135c0 f i Config.obj
 0001:000125f0       ??B?$encrypted_string@$0?GJHJCOJGIOBIIHHI@$0L@@cx@@QBE?AV?$basic_string@DU?$char_traits@D@std@@V?$allocator@D@2@@std@@XZ 100135f0 f i Config.obj
 0001:00012620       ??B?$encrypted_string@$0?GJHJCOJGIOBIIHHI@$04@cx@@QBE?AV?$basic_string@DU?$char_traits@D@std@@V?$allocator@D@2@@std@@XZ 10013620 f i Config.obj
 0001:00012650       ??B?$encrypted_string@$0?GJHJCOJGIOBIIHHJ@$0M@@cx@@QBE?AV?$basic_string@DU?$char_traits@D@std@@V?$allocator@D@2@@std@@XZ 10013650 f i Config.obj
 0001:00012680       ??B?$encrypted_string@$0?GJHJCOJGIOBIIHHJ@$04@cx@@QBE?AV?$basic_string@DU?$char_traits@D@std@@V?$allocator@D@2@@std@@XZ 10013680 f i Config.obj
 0001:000126b0       ??B?$encrypted_string@$0?GJHJCOJGIOBIIHHK@$04@cx@@QBE?AV?$basic_string@DU?$char_traits@D@std@@V?$allocator@D@2@@std@@XZ 100136b0 f i Config.obj
 0001:000126e0       ??B?$encrypted_string@$0?GJHJCOJGIOBIIHHL@$0P@@cx@@QBE?AV?$basic_string@DU?$char_traits@D@std@@V?$allocator@D@2@@std@@XZ 100136e0 f i Config.obj
 0001:00012710       ??B?$encrypted_string@$0?GJHJCOJGIOBIIHHL@$04@cx@@QBE?AV?$basic_string@DU?$char_traits@D@std@@V?$allocator@D@2@@std@@XZ 10013710 f i Config.obj
 0001:00012740       ??B?$encrypted_string@$0?GJHJCOJGIOBIIHHM@$0N@@cx@@QBE?AV?$basic_string@DU?$char_traits@D@std@@V?$allocator@D@2@@std@@XZ 10013740 f i Config.obj
 0001:00012770       ??B?$encrypted_string@$0?GJHJCOJGIOBIIHHM@$04@cx@@QBE?AV?$basic_string@DU?$char_traits@D@std@@V?$allocator@D@2@@std@@XZ 10013770 f i Config.obj
 0001:000127a0       ??B?$encrypted_string@$0?GJHJCOJGIOBIIHHP@$09@cx@@QBE?AV?$basic_string@DU?$char_traits@D@std@@V?$allocator@D@2@@std@@XZ 100137a0 f i Config.obj
 0001:000127d0       ??B?$encrypted_string@$0?GJHJCOJGIOBIIHHP@$07@cx@@QBE?AV?$basic_string@DU?$char_traits@D@std@@V?$allocator@D@2@@std@@XZ 100137d0 f i Config.obj
 0001:00012800       ??B?$encrypted_string@$0?GJHJCOJGIOBIIHIA@$09@cx@@QBE?AV?$basic_string@DU?$char_traits@D@std@@V?$allocator@D@2@@std@@XZ 10013800 f i Config.obj
 0001:00012830       ??B?$encrypted_string@$0?GJHJCOJGIOBIIHIA@$07@cx@@QBE?AV?$basic_string@DU?$char_traits@D@std@@V?$allocator@D@2@@std@@XZ 10013830 f i Config.obj
 0001:00012860       ??B?$encrypted_string@$0?GJHJCOJGIOBIIHIB@$09@cx@@QBE?AV?$basic_string@DU?$char_traits@D@std@@V?$allocator@D@2@@std@@XZ 10013860 f i Config.obj
 0001:00012890       ??B?$encrypted_string@$0?GJHJCOJGIOBIIHIB@$07@cx@@QBE?AV?$basic_string@DU?$char_traits@D@std@@V?$allocator@D@2@@std@@XZ 10013890 f i Config.obj
 0001:000128c0       ??B?$encrypted_string@$0?GJHJCOJGIOBIIHID@$09@cx@@QBE?AV?$basic_string@DU?$char_traits@D@std@@V?$allocator@D@2@@std@@XZ 100138c0 f i Config.obj
 0001:000128f0       ??B?$encrypted_string@$0?GJHJCOJGIOBIIHID@$07@cx@@QBE?AV?$basic_string@DU?$char_traits@D@std@@V?$allocator@D@2@@std@@XZ 100138f0 f i Config.obj
 0001:00012920       ??B?$encrypted_string@$0?GJHJCOJGIOBIIHIE@$09@cx@@QBE?AV?$basic_string@DU?$char_traits@D@std@@V?$allocator@D@2@@std@@XZ 10013920 f i Config.obj
 0001:00012950       ??B?$encrypted_string@$0?GJHJCOJGIOBIIHIE@$07@cx@@QBE?AV?$basic_string@DU?$char_traits@D@std@@V?$allocator@D@2@@std@@XZ 10013950 f i Config.obj
 0001:00012980       ??B?$encrypted_string@$0?GJHJCOJGIOBIIHIF@$09@cx@@QBE?AV?$basic_string@DU?$char_traits@D@std@@V?$allocator@D@2@@std@@XZ 10013980 f i Config.obj
 0001:000129b0       ??B?$encrypted_string@$0?GJHJCOJGIOBIIHIF@$07@cx@@QBE?AV?$basic_string@DU?$char_traits@D@std@@V?$allocator@D@2@@std@@XZ 100139b0 f i Config.obj
 0001:000129e0       ??B?$encrypted_string@$0?GJHJCOJGIOBIIHII@$0N@@cx@@QBE?AV?$basic_string@DU?$char_traits@D@std@@V?$allocator@D@2@@std@@XZ 100139e0 f i Config.obj
 0001:00012a10       ??B?$encrypted_string@$0?GJHJCOJGIOBIIHII@$07@cx@@QBE?AV?$basic_string@DU?$char_traits@D@std@@V?$allocator@D@2@@std@@XZ 10013a10 f i Config.obj
 0001:00012a40       ??B?$encrypted_string@$0?GJHJCOJGIOBIIHIJ@$0O@@cx@@QBE?AV?$basic_string@DU?$char_traits@D@std@@V?$allocator@D@2@@std@@XZ 10013a40 f i Config.obj
 0001:00012a70       ??B?$encrypted_string@$0?GJHJCOJGIOBIIHIJ@$07@cx@@QBE?AV?$basic_string@DU?$char_traits@D@std@@V?$allocator@D@2@@std@@XZ 10013a70 f i Config.obj
 0001:00012aa0       ??B?$encrypted_string@$0?GJHJCOJGIOBIIHIK@$0BB@@cx@@QBE?AV?$basic_string@DU?$char_traits@D@std@@V?$allocator@D@2@@std@@XZ 10013aa0 f i Config.obj
 0001:00012ad0       ??B?$encrypted_string@$0?GJHJCOJGIOBIIHIK@$07@cx@@QBE?AV?$basic_string@DU?$char_traits@D@std@@V?$allocator@D@2@@std@@XZ 10013ad0 f i Config.obj
 0001:00012b00       ??B?$encrypted_string@$0?GJHJCOJGIOBIIHIL@$0M@@cx@@QBE?AV?$basic_string@DU?$char_traits@D@std@@V?$allocator@D@2@@std@@XZ 10013b00 f i Config.obj
 0001:00012b30       ??B?$encrypted_string@$0?GJHJCOJGIOBIIHIL@$07@cx@@QBE?AV?$basic_string@DU?$char_traits@D@std@@V?$allocator@D@2@@std@@XZ 10013b30 f i Config.obj
 0001:00012b60       ??B?$encrypted_string@$0?GJHJCOJGIOBIIHIM@$0N@@cx@@QBE?AV?$basic_string@DU?$char_traits@D@std@@V?$allocator@D@2@@std@@XZ 10013b60 f i Config.obj
 0001:00012b90       ??B?$encrypted_string@$0?GJHJCOJGIOBIIHIM@$07@cx@@QBE?AV?$basic_string@DU?$char_traits@D@std@@V?$allocator@D@2@@std@@XZ 10013b90 f i Config.obj
 0001:00012bc0       ??B?$encrypted_string@$0?GJHJCOJGIOBIIHIN@$0M@@cx@@QBE?AV?$basic_string@DU?$char_traits@D@std@@V?$allocator@D@2@@std@@XZ 10013bc0 f i Config.obj
 0001:00012bf0       ??B?$encrypted_string@$0?GJHJCOJGIOBIIHIN@$07@cx@@QBE?AV?$basic_string@DU?$char_traits@D@std@@V?$allocator@D@2@@std@@XZ 10013bf0 f i Config.obj
 0001:00012c20       ??B?$encrypted_string@$0?GJHJCOJGIOBIIHIO@$09@cx@@QBE?AV?$basic_string@DU?$char_traits@D@std@@V?$allocator@D@2@@std@@XZ 10013c20 f i Config.obj
 0001:00012c50       ??B?$encrypted_string@$0?GJHJCOJGIOBIIHIO@$07@cx@@QBE?AV?$basic_string@DU?$char_traits@D@std@@V?$allocator@D@2@@std@@XZ 10013c50 f i Config.obj
 0001:00012c80       ??B?$encrypted_string@$0?GJHJCOJGIOBIIHIP@$0L@@cx@@QBE?AV?$basic_string@DU?$char_traits@D@std@@V?$allocator@D@2@@std@@XZ 10013c80 f i Config.obj
 0001:00012cb0       ??B?$encrypted_string@$0?GJHJCOJGIOBIIHIP@$07@cx@@QBE?AV?$basic_string@DU?$char_traits@D@std@@V?$allocator@D@2@@std@@XZ 10013cb0 f i Config.obj
 0001:00012ce0       ??B?$encrypted_string@$0?GJHJCOJGIOBIIHJA@$0O@@cx@@QBE?AV?$basic_string@DU?$char_traits@D@std@@V?$allocator@D@2@@std@@XZ 10013ce0 f i Config.obj
 0001:00012d10       ??B?$encrypted_string@$0?GJHJCOJGIOBIIHJA@$07@cx@@QBE?AV?$basic_string@DU?$char_traits@D@std@@V?$allocator@D@2@@std@@XZ 10013d10 f i Config.obj
 0001:00012d40       ??B?$encrypted_string@$0?GJHJCOJGIOBIIHJB@$09@cx@@QBE?AV?$basic_string@DU?$char_traits@D@std@@V?$allocator@D@2@@std@@XZ 10013d40 f i Config.obj
 0001:00012d70       ??B?$encrypted_string@$0?GJHJCOJGIOBIIHJB@$07@cx@@QBE?AV?$basic_string@DU?$char_traits@D@std@@V?$allocator@D@2@@std@@XZ 10013d70 f i Config.obj
 0001:00012da0       ??B?$encrypted_string@$0?GJHJCOJGIOBIIHJC@$0BC@@cx@@QBE?AV?$basic_string@DU?$char_traits@D@std@@V?$allocator@D@2@@std@@XZ 10013da0 f i Config.obj
 0001:00012dd0       ??B?$encrypted_string@$0?GJHJCOJGIOBIIHJC@$07@cx@@QBE?AV?$basic_string@DU?$char_traits@D@std@@V?$allocator@D@2@@std@@XZ 10013dd0 f i Config.obj
 0001:00012e00       ??B?$encrypted_string@$0?GJHJCOJGIOBIIHJD@$0P@@cx@@QBE?AV?$basic_string@DU?$char_traits@D@std@@V?$allocator@D@2@@std@@XZ 10013e00 f i Config.obj
 0001:00012e30       ??B?$encrypted_string@$0?GJHJCOJGIOBIIHJD@$07@cx@@QBE?AV?$basic_string@DU?$char_traits@D@std@@V?$allocator@D@2@@std@@XZ 10013e30 f i Config.obj
 0001:00012e60       ??B?$encrypted_string@$0?GJHJCOJGIOBIIHJE@$0L@@cx@@QBE?AV?$basic_string@DU?$char_traits@D@std@@V?$allocator@D@2@@std@@XZ 10013e60 f i Config.obj
 0001:00012e90       ??B?$encrypted_string@$0?GJHJCOJGIOBIIHJE@$07@cx@@QBE?AV?$basic_string@DU?$char_traits@D@std@@V?$allocator@D@2@@std@@XZ 10013e90 f i Config.obj
 0001:00012ec0       ??B?$encrypted_string@$0?GJHJCOJGIOBIIHJF@$0M@@cx@@QBE?AV?$basic_string@DU?$char_traits@D@std@@V?$allocator@D@2@@std@@XZ 10013ec0 f i Config.obj
 0001:00012ef0       ??B?$encrypted_string@$0?GJHJCOJGIOBIIHJF@$07@cx@@QBE?AV?$basic_string@DU?$char_traits@D@std@@V?$allocator@D@2@@std@@XZ 10013ef0 f i Config.obj
 0001:00012f20       ??B?$encrypted_string@$0?GJHJCOJGIOBIIHJG@$0M@@cx@@QBE?AV?$basic_string@DU?$char_traits@D@std@@V?$allocator@D@2@@std@@XZ 10013f20 f i Config.obj
 0001:00012f50       ??B?$encrypted_string@$0?GJHJCOJGIOBIIHJG@$07@cx@@QBE?AV?$basic_string@DU?$char_traits@D@std@@V?$allocator@D@2@@std@@XZ 10013f50 f i Config.obj
 0001:00012f80       ??B?$encrypted_string@$0?GJHJCOJGIOBIIHJH@$0BC@@cx@@QBE?AV?$basic_string@DU?$char_traits@D@std@@V?$allocator@D@2@@std@@XZ 10013f80 f i Config.obj
 0001:00012fb0       ??B?$encrypted_string@$0?GJHJCOJGIOBIIHJH@$07@cx@@QBE?AV?$basic_string@DU?$char_traits@D@std@@V?$allocator@D@2@@std@@XZ 10013fb0 f i Config.obj
 0001:00012fe0       ??B?$encrypted_string@$0?GJHJCOJGIOBIIHJI@$0P@@cx@@QBE?AV?$basic_string@DU?$char_traits@D@std@@V?$allocator@D@2@@std@@XZ 10013fe0 f i Config.obj
 0001:00013010       ??B?$encrypted_string@$0?GJHJCOJGIOBIIHJI@$07@cx@@QBE?AV?$basic_string@DU?$char_traits@D@std@@V?$allocator@D@2@@std@@XZ 10014010 f i Config.obj
 0001:00013040       ??B?$encrypted_string@$0?GJHJCOJGIOBIIHJJ@$0BB@@cx@@QBE?AV?$basic_string@DU?$char_traits@D@std@@V?$allocator@D@2@@std@@XZ 10014040 f i Config.obj
 0001:00013070       ??B?$encrypted_string@$0?GJHJCOJGIOBIIHJJ@$07@cx@@QBE?AV?$basic_string@DU?$char_traits@D@std@@V?$allocator@D@2@@std@@XZ 10014070 f i Config.obj
 0001:000130a0       ??B?$encrypted_string@$0?GJHJCOJGIOBIIHJK@$0N@@cx@@QBE?AV?$basic_string@DU?$char_traits@D@std@@V?$allocator@D@2@@std@@XZ 100140a0 f i Config.obj
 0001:000130d0       ??B?$encrypted_string@$0?GJHJCOJGIOBIIHJK@$07@cx@@QBE?AV?$basic_string@DU?$char_traits@D@std@@V?$allocator@D@2@@std@@XZ 100140d0 f i Config.obj
 0001:00013100       ??B?$encrypted_string@$0?GJHJCOJGIOBIIHJL@$07@cx@@QBE?AV?$basic_string@DU?$char_traits@D@std@@V?$allocator@D@2@@std@@XZ 10014100 f i Config.obj
 0001:00013130       ??B?$encrypted_string@$0?GJHJCOJGIOBIIHJM@$0L@@cx@@QBE?AV?$basic_string@DU?$char_traits@D@std@@V?$allocator@D@2@@std@@XZ 10014130 f i Config.obj
 0001:00013160       ??B?$encrypted_string@$0?GJHJCOJGIOBIIHJM@$07@cx@@QBE?AV?$basic_string@DU?$char_traits@D@std@@V?$allocator@D@2@@std@@XZ 10014160 f i Config.obj
 0001:00013190       ??B?$encrypted_string@$0?GJHJCOJGIOBIIHJN@$0N@@cx@@QBE?AV?$basic_string@DU?$char_traits@D@std@@V?$allocator@D@2@@std@@XZ 10014190 f i Config.obj
 0001:000131c0       ??B?$encrypted_string@$0?GJHJCOJGIOBIIHJN@$07@cx@@QBE?AV?$basic_string@DU?$char_traits@D@std@@V?$allocator@D@2@@std@@XZ 100141c0 f i Config.obj
 0001:000131f0       ??B?$encrypted_string@$0?GJHJCOJGIOBIIHJP@$0N@@cx@@QBE?AV?$basic_string@DU?$char_traits@D@std@@V?$allocator@D@2@@std@@XZ 100141f0 f i Config.obj
 0001:00013220       ??B?$encrypted_string@$0?GJHJCOJGIOBIIHJP@$07@cx@@QBE?AV?$basic_string@DU?$char_traits@D@std@@V?$allocator@D@2@@std@@XZ 10014220 f i Config.obj
 0001:00013250       ??B?$encrypted_string@$0?GJHJCOJGIOBIIHKA@$0O@@cx@@QBE?AV?$basic_string@DU?$char_traits@D@std@@V?$allocator@D@2@@std@@XZ 10014250 f i Config.obj
 0001:00013280       ??B?$encrypted_string@$0?GJHJCOJGIOBIIHKA@$07@cx@@QBE?AV?$basic_string@DU?$char_traits@D@std@@V?$allocator@D@2@@std@@XZ 10014280 f i Config.obj
 0001:000132b0       ??B?$encrypted_string@$0?GJHJCOJGIOBIIHKB@$08@cx@@QBE?AV?$basic_string@DU?$char_traits@D@std@@V?$allocator@D@2@@std@@XZ 100142b0 f i Config.obj
 0001:000132e0       ??B?$encrypted_string@$0?GJHJCOJGIOBIIHKB@$07@cx@@QBE?AV?$basic_string@DU?$char_traits@D@std@@V?$allocator@D@2@@std@@XZ 100142e0 f i Config.obj
 0001:00013310       ??B?$encrypted_string@$0?GJHJCOJGIOBIIHKC@$06@cx@@QBE?AV?$basic_string@DU?$char_traits@D@std@@V?$allocator@D@2@@std@@XZ 10014310 f i Config.obj
 0001:00013340       ??B?$encrypted_string@$0?GJHJCOJGIOBIIHKC@$07@cx@@QBE?AV?$basic_string@DU?$char_traits@D@std@@V?$allocator@D@2@@std@@XZ 10014340 f i Config.obj
 0001:00013370       ??B?$encrypted_string@$0?GJHJCOJGIOBIIHKD@$06@cx@@QBE?AV?$basic_string@DU?$char_traits@D@std@@V?$allocator@D@2@@std@@XZ 10014370 f i Config.obj
 0001:000133a0       ??B?$encrypted_string@$0?GJHJCOJGIOBIIHKD@$07@cx@@QBE?AV?$basic_string@DU?$char_traits@D@std@@V?$allocator@D@2@@std@@XZ 100143a0 f i Config.obj
 0001:000133d0       ??B?$encrypted_string@$0?GJHJCOJGIOBIIHKE@$07@cx@@QBE?AV?$basic_string@DU?$char_traits@D@std@@V?$allocator@D@2@@std@@XZ 100143d0 f i Config.obj
 0001:00013400       ??B?$encrypted_string@$0?GJHJCOJGIOBIIHKI@$04@cx@@QBE?AV?$basic_string@DU?$char_traits@D@std@@V?$allocator@D@2@@std@@XZ 10014400 f i Config.obj
 0001:00013430       ??B?$encrypted_string@$0?GJHJCOJGIOBIIHLA@$0P@@cx@@QBE?AV?$basic_string@DU?$char_traits@D@std@@V?$allocator@D@2@@std@@XZ 10014430 f i Config.obj
 0001:00013460       ??B?$encrypted_string@$0?GJHJCOJGIOBIIHLB@$0M@@cx@@QBE?AV?$basic_string@DU?$char_traits@D@std@@V?$allocator@D@2@@std@@XZ 10014460 f i Config.obj
 0001:00013490       ??B?$encrypted_string@$0?GJHJCOJGIOBIIHLC@$0BA@@cx@@QBE?AV?$basic_string@DU?$char_traits@D@std@@V?$allocator@D@2@@std@@XZ 10014490 f i Config.obj
 0001:000134c0       ??B?$encrypted_string@$0?GJHJCOJGIOBIIHLE@$07@cx@@QBE?AV?$basic_string@DU?$char_traits@D@std@@V?$allocator@D@2@@std@@XZ 100144c0 f i Config.obj
 0001:000134f0       ??B?$encrypted_string@$0?GJHJCOJGIOBIIHLF@$07@cx@@QBE?AV?$basic_string@DU?$char_traits@D@std@@V?$allocator@D@2@@std@@XZ 100144f0 f i Config.obj
 0001:00013520       ??B?$encrypted_string@$0?GJHJCOJGIOBIIHLG@$07@cx@@QBE?AV?$basic_string@DU?$char_traits@D@std@@V?$allocator@D@2@@std@@XZ 10014520 f i Config.obj
 0001:00013550       ??B?$encrypted_string@$0?GJHJCOJGIOBIIHLH@$07@cx@@QBE?AV?$basic_string@DU?$char_traits@D@std@@V?$allocator@D@2@@std@@XZ 10014550 f i Config.obj
 0001:00013580       ??B?$encrypted_string@$0?GJHJCOJGIOBIIHLJ@$0BA@@cx@@QBE?AV?$basic_string@DU?$char_traits@D@std@@V?$allocator@D@2@@std@@XZ 10014580 f i Config.obj
 0001:000135b0       ??B?$encrypted_string@$0?GJHJCOJGIOBIIHLK@$0P@@cx@@QBE?AV?$basic_string@DU?$char_traits@D@std@@V?$allocator@D@2@@std@@XZ 100145b0 f i Config.obj
 0001:000135e0       ??B?$encrypted_string@$0?GJHJCOJGIOBIIHLL@$0M@@cx@@QBE?AV?$basic_string@DU?$char_traits@D@std@@V?$allocator@D@2@@std@@XZ 100145e0 f i Config.obj
 0001:00013610       ??B?$encrypted_string@$0?GJHJCOJGIOBIIHLP@$07@cx@@QBE?AV?$basic_string@DU?$char_traits@D@std@@V?$allocator@D@2@@std@@XZ 10014610 f i Config.obj
 0001:00013640       ??B?$encrypted_string@$0?GJHJCOJGIOBIIHMA@$09@cx@@QBE?AV?$basic_string@DU?$char_traits@D@std@@V?$allocator@D@2@@std@@XZ 10014640 f i Config.obj
 0001:00013670       ??B?$encrypted_string@$0?GJHJCOJGIOBIIHMB@$0BB@@cx@@QBE?AV?$basic_string@DU?$char_traits@D@std@@V?$allocator@D@2@@std@@XZ 10014670 f i Config.obj
 0001:000136a0       ??B?$encrypted_string@$0?GJHJCOJGIOBIIHMD@$04@cx@@QBE?AV?$basic_string@DU?$char_traits@D@std@@V?$allocator@D@2@@std@@XZ 100146a0 f i Config.obj
 0001:000136d0       ??B?$encrypted_string@$0?GJHJCOJGIOBIIHME@$08@cx@@QBE?AV?$basic_string@DU?$char_traits@D@std@@V?$allocator@D@2@@std@@XZ 100146d0 f i Config.obj
 0001:00013700       ??B?$encrypted_string@$0?GJHJCOJGIOBIIHMF@$0L@@cx@@QBE?AV?$basic_string@DU?$char_traits@D@std@@V?$allocator@D@2@@std@@XZ 10014700 f i Config.obj
 0001:00013730       ??B?$encrypted_string@$0?GJHJCOJGIOBIIHMG@$0L@@cx@@QBE?AV?$basic_string@DU?$char_traits@D@std@@V?$allocator@D@2@@std@@XZ 10014730 f i Config.obj
 0001:00013760       ??B?$encrypted_string@$0?GJHJCOJGIOBIIHMI@$06@cx@@QBE?AV?$basic_string@DU?$char_traits@D@std@@V?$allocator@D@2@@std@@XZ 10014760 f i Config.obj
 0001:00013790       ??B?$encrypted_string@$0?GJHJCOJGIOBIIHMJ@$06@cx@@QBE?AV?$basic_string@DU?$char_traits@D@std@@V?$allocator@D@2@@std@@XZ 10014790 f i Config.obj
 0001:000137c0       ??B?$encrypted_string@$0?GJHJCOJGIOBIIHMK@$07@cx@@QBE?AV?$basic_string@DU?$char_traits@D@std@@V?$allocator@D@2@@std@@XZ 100147c0 f i Config.obj
 0001:000137f0       ??B?$encrypted_string@$0?GJHJCOJGIOBIIHMM@$03@cx@@QBE?AV?$basic_string@DU?$char_traits@D@std@@V?$allocator@D@2@@std@@XZ 100147f0 f i Config.obj
 0001:00013820       ??B?$encrypted_string@$0?GJHJCOJGIOBIIHMN@$0M@@cx@@QBE?AV?$basic_string@DU?$char_traits@D@std@@V?$allocator@D@2@@std@@XZ 10014820 f i Config.obj
 0001:00013850       ??B?$encrypted_string@$0?GJHJCOJGIOBIIHNB@$07@cx@@QBE?AV?$basic_string@DU?$char_traits@D@std@@V?$allocator@D@2@@std@@XZ 10014850 f i Config.obj
 0001:00013880       ??B?$encrypted_string@$0?GJHJCOJGIOBIIHNB@$0L@@cx@@QBE?AV?$basic_string@DU?$char_traits@D@std@@V?$allocator@D@2@@std@@XZ 10014880 f i Config.obj
 0001:000138b0       ??B?$encrypted_string@$0?GJHJCOJGIOBIIHNC@$04@cx@@QBE?AV?$basic_string@DU?$char_traits@D@std@@V?$allocator@D@2@@std@@XZ 100148b0 f i Config.obj
 0001:000138e0       ??B?$encrypted_string@$0?GJHJCOJGIOBIIHNC@$0L@@cx@@QBE?AV?$basic_string@DU?$char_traits@D@std@@V?$allocator@D@2@@std@@XZ 100148e0 f i Config.obj
 0001:00013910       ??B?$encrypted_string@$0?GJHJCOJGIOBIIHND@$04@cx@@QBE?AV?$basic_string@DU?$char_traits@D@std@@V?$allocator@D@2@@std@@XZ 10014910 f i Config.obj
 0001:00013940       ??B?$encrypted_string@$0?GJHJCOJGIOBIIHND@$0L@@cx@@QBE?AV?$basic_string@DU?$char_traits@D@std@@V?$allocator@D@2@@std@@XZ 10014940 f i Config.obj
 0001:00013970       ??B?$encrypted_string@$0?GJHJCOJGIOBIIHNE@$05@cx@@QBE?AV?$basic_string@DU?$char_traits@D@std@@V?$allocator@D@2@@std@@XZ 10014970 f i Config.obj
 0001:000139a0       ??B?$encrypted_string@$0?GJHJCOJGIOBIIHNE@$0L@@cx@@QBE?AV?$basic_string@DU?$char_traits@D@std@@V?$allocator@D@2@@std@@XZ 100149a0 f i Config.obj
 0001:000139d0       ??B?$encrypted_string@$0?GJHJCOJGIOBIIHNF@$04@cx@@QBE?AV?$basic_string@DU?$char_traits@D@std@@V?$allocator@D@2@@std@@XZ 100149d0 f i Config.obj
 0001:00013a00       ??B?$encrypted_string@$0?GJHJCOJGIOBIIHNF@$0L@@cx@@QBE?AV?$basic_string@DU?$char_traits@D@std@@V?$allocator@D@2@@std@@XZ 10014a00 f i Config.obj
 0001:00013a30       ??B?$encrypted_string@$0?GJHJCOJGIOBIIHNH@$0BB@@cx@@QBE?AV?$basic_string@DU?$char_traits@D@std@@V?$allocator@D@2@@std@@XZ 10014a30 f i Config.obj
 0001:00013a60       ??B?$encrypted_string@$0?GJHJCOJGIOBIIHNH@$0L@@cx@@QBE?AV?$basic_string@DU?$char_traits@D@std@@V?$allocator@D@2@@std@@XZ 10014a60 f i Config.obj
 0001:00013a90       ??B?$encrypted_string@$0?GJHJCOJGIOBIIHNI@$03@cx@@QBE?AV?$basic_string@DU?$char_traits@D@std@@V?$allocator@D@2@@std@@XZ 10014a90 f i Config.obj
 0001:00013ac0       ??B?$encrypted_string@$0?GJHJCOJGIOBIIHNI@$0L@@cx@@QBE?AV?$basic_string@DU?$char_traits@D@std@@V?$allocator@D@2@@std@@XZ 10014ac0 f i Config.obj
 0001:00013af0       ??B?$encrypted_string@$0?GJHJCOJGIOBIIHNJ@$05@cx@@QBE?AV?$basic_string@DU?$char_traits@D@std@@V?$allocator@D@2@@std@@XZ 10014af0 f i Config.obj
 0001:00013b20       ??B?$encrypted_string@$0?GJHJCOJGIOBIIHNJ@$0L@@cx@@QBE?AV?$basic_string@DU?$char_traits@D@std@@V?$allocator@D@2@@std@@XZ 10014b20 f i Config.obj
 0001:00013b50       ??B?$encrypted_string@$0?GJHJCOJGIOBIIHNL@$08@cx@@QBE?AV?$basic_string@DU?$char_traits@D@std@@V?$allocator@D@2@@std@@XZ 10014b50 f i Config.obj
 0001:00013b80       ??B?$encrypted_string@$0?GJHJCOJGIOBIIHNM@$0L@@cx@@QBE?AV?$basic_string@DU?$char_traits@D@std@@V?$allocator@D@2@@std@@XZ 10014b80 f i Config.obj
 0001:00013bb0       ??B?$encrypted_string@$0?GJHJCOJGIOBIIHNM@$08@cx@@QBE?AV?$basic_string@DU?$char_traits@D@std@@V?$allocator@D@2@@std@@XZ 10014bb0 f i Config.obj
 0001:00013be0       ??B?$encrypted_string@$0?GJHJCOJGIOBIIHNN@$0BB@@cx@@QBE?AV?$basic_string@DU?$char_traits@D@std@@V?$allocator@D@2@@std@@XZ 10014be0 f i Config.obj
 0001:00013c10       ??B?$encrypted_string@$0?GJHJCOJGIOBIIHNN@$08@cx@@QBE?AV?$basic_string@DU?$char_traits@D@std@@V?$allocator@D@2@@std@@XZ 10014c10 f i Config.obj
 0001:00013c40       ??B?$encrypted_string@$0?GJHJCOJGIOBIIHNO@$0N@@cx@@QBE?AV?$basic_string@DU?$char_traits@D@std@@V?$allocator@D@2@@std@@XZ 10014c40 f i Config.obj
 0001:00013c70       ??B?$encrypted_string@$0?GJHJCOJGIOBIIHNO@$08@cx@@QBE?AV?$basic_string@DU?$char_traits@D@std@@V?$allocator@D@2@@std@@XZ 10014c70 f i Config.obj
 0001:00013ca0       ??B?$encrypted_string@$0?GJHJCOJGIOBIIHNP@$05@cx@@QBE?AV?$basic_string@DU?$char_traits@D@std@@V?$allocator@D@2@@std@@XZ 10014ca0 f i Config.obj
 0001:00013cd0       ??B?$encrypted_string@$0?GJHJCOJGIOBIIHNP@$08@cx@@QBE?AV?$basic_string@DU?$char_traits@D@std@@V?$allocator@D@2@@std@@XZ 10014cd0 f i Config.obj
 0001:00013d00       ??B?$encrypted_string@$0?GJHJCOJGIOBIIHOA@$03@cx@@QBE?AV?$basic_string@DU?$char_traits@D@std@@V?$allocator@D@2@@std@@XZ 10014d00 f i Config.obj
 0001:00013d30       ??B?$encrypted_string@$0?GJHJCOJGIOBIIHOA@$08@cx@@QBE?AV?$basic_string@DU?$char_traits@D@std@@V?$allocator@D@2@@std@@XZ 10014d30 f i Config.obj
 0001:00013d60       ??B?$encrypted_string@$0?GJHJCOJGIOBIIHOB@$07@cx@@QBE?AV?$basic_string@DU?$char_traits@D@std@@V?$allocator@D@2@@std@@XZ 10014d60 f i Config.obj
 0001:00013d90       ??B?$encrypted_string@$0?GJHJCOJGIOBIIHOB@$08@cx@@QBE?AV?$basic_string@DU?$char_traits@D@std@@V?$allocator@D@2@@std@@XZ 10014d90 f i Config.obj
 0001:00013dc0       ??B?$encrypted_string@$0?GJHJCOJGIOBIIHOD@$0P@@cx@@QBE?AV?$basic_string@DU?$char_traits@D@std@@V?$allocator@D@2@@std@@XZ 10014dc0 f i Config.obj
 0001:00013df0       ??B?$encrypted_string@$0?GJHJCOJGIOBIIHOD@$07@cx@@QBE?AV?$basic_string@DU?$char_traits@D@std@@V?$allocator@D@2@@std@@XZ 10014df0 f i Config.obj
 0001:00013e20       ??B?$encrypted_string@$0?GJHJCOJGIOBIIHOG@$0BA@@cx@@QBE?AV?$basic_string@DU?$char_traits@D@std@@V?$allocator@D@2@@std@@XZ 10014e20 f i Config.obj
 0001:00013e50       ??B?$encrypted_string@$0?GJHJCOJGIOBIIHOG@$07@cx@@QBE?AV?$basic_string@DU?$char_traits@D@std@@V?$allocator@D@2@@std@@XZ 10014e50 f i Config.obj
 0001:00013e80       ??B?$encrypted_string@$0?GJHJCOJGIOBIIHOH@$0BC@@cx@@QBE?AV?$basic_string@DU?$char_traits@D@std@@V?$allocator@D@2@@std@@XZ 10014e80 f i Config.obj
 0001:00013eb0       ??B?$encrypted_string@$0?GJHJCOJGIOBIIHOH@$07@cx@@QBE?AV?$basic_string@DU?$char_traits@D@std@@V?$allocator@D@2@@std@@XZ 10014eb0 f i Config.obj
 0001:00013ee0       ??B?$encrypted_string@$0?GJHJCOJGIOBIIHOI@$0O@@cx@@QBE?AV?$basic_string@DU?$char_traits@D@std@@V?$allocator@D@2@@std@@XZ 10014ee0 f i Config.obj
 0001:00013f10       ??B?$encrypted_string@$0?GJHJCOJGIOBIIHOI@$07@cx@@QBE?AV?$basic_string@DU?$char_traits@D@std@@V?$allocator@D@2@@std@@XZ 10014f10 f i Config.obj
 0001:00013f40       ??B?$encrypted_string@$0?GJHJCOJGIOBIIHOJ@$0BB@@cx@@QBE?AV?$basic_string@DU?$char_traits@D@std@@V?$allocator@D@2@@std@@XZ 10014f40 f i Config.obj
 0001:00013f70       ??B?$encrypted_string@$0?GJHJCOJGIOBIIHOJ@$07@cx@@QBE?AV?$basic_string@DU?$char_traits@D@std@@V?$allocator@D@2@@std@@XZ 10014f70 f i Config.obj
 0001:00013fa0       ??B?$encrypted_string@$0?GJHJCOJGIOBIIHOK@$0BB@@cx@@QBE?AV?$basic_string@DU?$char_traits@D@std@@V?$allocator@D@2@@std@@XZ 10014fa0 f i Config.obj
 0001:00013fd0       ??B?$encrypted_string@$0?GJHJCOJGIOBIIHOK@$07@cx@@QBE?AV?$basic_string@DU?$char_traits@D@std@@V?$allocator@D@2@@std@@XZ 10014fd0 f i Config.obj
 0001:00014000       ??B?$encrypted_string@$0?GJHJCOJGIOBIIHOL@$0O@@cx@@QBE?AV?$basic_string@DU?$char_traits@D@std@@V?$allocator@D@2@@std@@XZ 10015000 f i Config.obj
 0001:00014030       ??B?$encrypted_string@$0?GJHJCOJGIOBIIHOL@$07@cx@@QBE?AV?$basic_string@DU?$char_traits@D@std@@V?$allocator@D@2@@std@@XZ 10015030 f i Config.obj
 0001:00014060       ??B?$encrypted_string@$0?GJHJCOJGIOBIIHOM@$0BB@@cx@@QBE?AV?$basic_string@DU?$char_traits@D@std@@V?$allocator@D@2@@std@@XZ 10015060 f i Config.obj
 0001:00014090       ??B?$encrypted_string@$0?GJHJCOJGIOBIIHOM@$07@cx@@QBE?AV?$basic_string@DU?$char_traits@D@std@@V?$allocator@D@2@@std@@XZ 10015090 f i Config.obj
 0001:000140c0       ??B?$encrypted_string@$0?GJHJCOJGIOBIIHON@$0BC@@cx@@QBE?AV?$basic_string@DU?$char_traits@D@std@@V?$allocator@D@2@@std@@XZ 100150c0 f i Config.obj
 0001:000140f0       ??B?$encrypted_string@$0?GJHJCOJGIOBIIHON@$07@cx@@QBE?AV?$basic_string@DU?$char_traits@D@std@@V?$allocator@D@2@@std@@XZ 100150f0 f i Config.obj
 0001:00014120       ??B?$encrypted_string@$0?GJHJCOJGIOBIIHOO@$0BC@@cx@@QBE?AV?$basic_string@DU?$char_traits@D@std@@V?$allocator@D@2@@std@@XZ 10015120 f i Config.obj
 0001:00014150       ??B?$encrypted_string@$0?GJHJCOJGIOBIIHOO@$07@cx@@QBE?AV?$basic_string@DU?$char_traits@D@std@@V?$allocator@D@2@@std@@XZ 10015150 f i Config.obj
 0001:00014180       ??B?$encrypted_string@$0?GJHJCOJGIOBIIHOP@$0BA@@cx@@QBE?AV?$basic_string@DU?$char_traits@D@std@@V?$allocator@D@2@@std@@XZ 10015180 f i Config.obj
 0001:000141b0       ??B?$encrypted_string@$0?GJHJCOJGIOBIIHOP@$07@cx@@QBE?AV?$basic_string@DU?$char_traits@D@std@@V?$allocator@D@2@@std@@XZ 100151b0 f i Config.obj
 0001:000141e0       ??B?$encrypted_string@$0?GJHJCOJGIOBIIHPA@$0BA@@cx@@QBE?AV?$basic_string@DU?$char_traits@D@std@@V?$allocator@D@2@@std@@XZ 100151e0 f i Config.obj
 0001:00014210       ??B?$encrypted_string@$0?GJHJCOJGIOBIIHPA@$07@cx@@QBE?AV?$basic_string@DU?$char_traits@D@std@@V?$allocator@D@2@@std@@XZ 10015210 f i Config.obj
 0001:00014240       ??B?$encrypted_string@$0?GJHJCOJGIOBIIHPB@$0BD@@cx@@QBE?AV?$basic_string@DU?$char_traits@D@std@@V?$allocator@D@2@@std@@XZ 10015240 f i Config.obj
 0001:00014270       ??B?$encrypted_string@$0?GJHJCOJGIOBIIHPB@$07@cx@@QBE?AV?$basic_string@DU?$char_traits@D@std@@V?$allocator@D@2@@std@@XZ 10015270 f i Config.obj
 0001:000142a0       ??B?$encrypted_string@$0?GJHJCOJGIOBIIHPC@$0BF@@cx@@QBE?AV?$basic_string@DU?$char_traits@D@std@@V?$allocator@D@2@@std@@XZ 100152a0 f i Config.obj
 0001:000142d0       ??B?$encrypted_string@$0?GJHJCOJGIOBIIHPC@$07@cx@@QBE?AV?$basic_string@DU?$char_traits@D@std@@V?$allocator@D@2@@std@@XZ 100152d0 f i Config.obj
 0001:00014300       ??B?$encrypted_string@$0?GJHJCOJGIOBIIHPD@$0BA@@cx@@QBE?AV?$basic_string@DU?$char_traits@D@std@@V?$allocator@D@2@@std@@XZ 10015300 f i Config.obj
 0001:00014330       ??B?$encrypted_string@$0?GJHJCOJGIOBIIHPD@$07@cx@@QBE?AV?$basic_string@DU?$char_traits@D@std@@V?$allocator@D@2@@std@@XZ 10015330 f i Config.obj
 0001:00014360       ??B?$encrypted_string@$0?GJHJCOJGIOBIIHPE@$0L@@cx@@QBE?AV?$basic_string@DU?$char_traits@D@std@@V?$allocator@D@2@@std@@XZ 10015360 f i Config.obj
 0001:00014390       ??B?$encrypted_string@$0?GJHJCOJGIOBIIHPE@$07@cx@@QBE?AV?$basic_string@DU?$char_traits@D@std@@V?$allocator@D@2@@std@@XZ 10015390 f i Config.obj
 0001:000143c0       ??B?$encrypted_string@$0?GJHJCOJGIOBIIHPF@$09@cx@@QBE?AV?$basic_string@DU?$char_traits@D@std@@V?$allocator@D@2@@std@@XZ 100153c0 f i Config.obj
 0001:000143f0       ??B?$encrypted_string@$0?GJHJCOJGIOBIIHPF@$07@cx@@QBE?AV?$basic_string@DU?$char_traits@D@std@@V?$allocator@D@2@@std@@XZ 100153f0 f i Config.obj
 0001:00014420       ??B?$encrypted_string@$0?GJHJCOJGIOBIIHPG@$08@cx@@QBE?AV?$basic_string@DU?$char_traits@D@std@@V?$allocator@D@2@@std@@XZ 10015420 f i Config.obj
 0001:00014450       ??B?$encrypted_string@$0?GJHJCOJGIOBIIHPG@$07@cx@@QBE?AV?$basic_string@DU?$char_traits@D@std@@V?$allocator@D@2@@std@@XZ 10015450 f i Config.obj
 0001:00014480       ??B?$encrypted_string@$0?GJHJCOJGIOBIIHPI@$0BA@@cx@@QBE?AV?$basic_string@DU?$char_traits@D@std@@V?$allocator@D@2@@std@@XZ 10015480 f i Config.obj
 0001:000144b0       ??B?$encrypted_string@$0?GJHJCOJGIOBIIHPI@$07@cx@@QBE?AV?$basic_string@DU?$char_traits@D@std@@V?$allocator@D@2@@std@@XZ 100154b0 f i Config.obj
 0001:000144e0       ??B?$encrypted_string@$0?GJHJCOJGIOBIIHPJ@$0N@@cx@@QBE?AV?$basic_string@DU?$char_traits@D@std@@V?$allocator@D@2@@std@@XZ 100154e0 f i Config.obj
 0001:00014510       ??B?$encrypted_string@$0?GJHJCOJGIOBIIHPJ@$07@cx@@QBE?AV?$basic_string@DU?$char_traits@D@std@@V?$allocator@D@2@@std@@XZ 10015510 f i Config.obj
 0001:00014540       ??B?$encrypted_string@$0?GJHJCOJGIOBIIHPK@$0P@@cx@@QBE?AV?$basic_string@DU?$char_traits@D@std@@V?$allocator@D@2@@std@@XZ 10015540 f i Config.obj
 0001:00014570       ??B?$encrypted_string@$0?GJHJCOJGIOBIIHPK@$07@cx@@QBE?AV?$basic_string@DU?$char_traits@D@std@@V?$allocator@D@2@@std@@XZ 10015570 f i Config.obj
 0001:000145a0       ??B?$encrypted_string@$0?GJHJCOJGIOBIIHPL@$07@cx@@QBE?AV?$basic_string@DU?$char_traits@D@std@@V?$allocator@D@2@@std@@XZ 100155a0 f i Config.obj
 0001:000145d0       ??B?$encrypted_string@$0?GJHJCOJGIOBIIHPM@$0BB@@cx@@QBE?AV?$basic_string@DU?$char_traits@D@std@@V?$allocator@D@2@@std@@XZ 100155d0 f i Config.obj
 0001:00014600       ??B?$encrypted_string@$0?GJHJCOJGIOBIIHPM@$07@cx@@QBE?AV?$basic_string@DU?$char_traits@D@std@@V?$allocator@D@2@@std@@XZ 10015600 f i Config.obj
 0001:00014630       ??B?$encrypted_string@$0?GJHJCOJGIOBIIHPN@$09@cx@@QBE?AV?$basic_string@DU?$char_traits@D@std@@V?$allocator@D@2@@std@@XZ 10015630 f i Config.obj
 0001:00014660       ??B?$encrypted_string@$0?GJHJCOJGIOBIIHPN@$07@cx@@QBE?AV?$basic_string@DU?$char_traits@D@std@@V?$allocator@D@2@@std@@XZ 10015660 f i Config.obj
 0001:00014690       ??B?$encrypted_string@$0?GJHJCOJGIOBIIHPO@$0BA@@cx@@QBE?AV?$basic_string@DU?$char_traits@D@std@@V?$allocator@D@2@@std@@XZ 10015690 f i Config.obj
 0001:000146c0       ??B?$encrypted_string@$0?GJHJCOJGIOBIIHPO@$07@cx@@QBE?AV?$basic_string@DU?$char_traits@D@std@@V?$allocator@D@2@@std@@XZ 100156c0 f i Config.obj
 0001:000146f0       ??B?$encrypted_string@$0?GJHJCOJGIOBIIHPP@$08@cx@@QBE?AV?$basic_string@DU?$char_traits@D@std@@V?$allocator@D@2@@std@@XZ 100156f0 f i Config.obj
 0001:00014720       ??B?$encrypted_string@$0?GJHJCOJGIOBIIHPP@$07@cx@@QBE?AV?$basic_string@DU?$char_traits@D@std@@V?$allocator@D@2@@std@@XZ 10015720 f i Config.obj
 0001:00014750       ??B?$encrypted_string@$0?GJHJCOJGIOBIIIAA@$0M@@cx@@QBE?AV?$basic_string@DU?$char_traits@D@std@@V?$allocator@D@2@@std@@XZ 10015750 f i Config.obj
 0001:00014780       ??B?$encrypted_string@$0?GJHJCOJGIOBIIIAA@$07@cx@@QBE?AV?$basic_string@DU?$char_traits@D@std@@V?$allocator@D@2@@std@@XZ 10015780 f i Config.obj
 0001:000147b0       ??B?$encrypted_string@$0?GJHJCOJGIOBIIIAB@$0L@@cx@@QBE?AV?$basic_string@DU?$char_traits@D@std@@V?$allocator@D@2@@std@@XZ 100157b0 f i Config.obj
 0001:000147e0       ??B?$encrypted_string@$0?GJHJCOJGIOBIIIAB@$07@cx@@QBE?AV?$basic_string@DU?$char_traits@D@std@@V?$allocator@D@2@@std@@XZ 100157e0 f i Config.obj
 0001:00014810       ??B?$encrypted_string@$0?GJHJCOJGIOBIIIAC@$09@cx@@QBE?AV?$basic_string@DU?$char_traits@D@std@@V?$allocator@D@2@@std@@XZ 10015810 f i Config.obj
 0001:00014840       ??B?$encrypted_string@$0?GJHJCOJGIOBIIIAC@$07@cx@@QBE?AV?$basic_string@DU?$char_traits@D@std@@V?$allocator@D@2@@std@@XZ 10015840 f i Config.obj
 0001:00014870       ??B?$encrypted_string@$0?GJHJCOJGIOBIIIAD@$0N@@cx@@QBE?AV?$basic_string@DU?$char_traits@D@std@@V?$allocator@D@2@@std@@XZ 10015870 f i Config.obj
 0001:000148a0       ??B?$encrypted_string@$0?GJHJCOJGIOBIIIAD@$07@cx@@QBE?AV?$basic_string@DU?$char_traits@D@std@@V?$allocator@D@2@@std@@XZ 100158a0 f i Config.obj
 0001:000148d0       ??B?$encrypted_string@$0?GJHJCOJGIOBIIIAE@$06@cx@@QBE?AV?$basic_string@DU?$char_traits@D@std@@V?$allocator@D@2@@std@@XZ 100158d0 f i Config.obj
 0001:00014900       ??B?$encrypted_string@$0?GJHJCOJGIOBIIIAE@$07@cx@@QBE?AV?$basic_string@DU?$char_traits@D@std@@V?$allocator@D@2@@std@@XZ 10015900 f i Config.obj
 0001:00014930       ??B?$encrypted_string@$0?GJHJCOJGIOBIIIAF@$06@cx@@QBE?AV?$basic_string@DU?$char_traits@D@std@@V?$allocator@D@2@@std@@XZ 10015930 f i Config.obj
 0001:00014960       ??B?$encrypted_string@$0?GJHJCOJGIOBIIIAF@$07@cx@@QBE?AV?$basic_string@DU?$char_traits@D@std@@V?$allocator@D@2@@std@@XZ 10015960 f i Config.obj
 0001:00014990       ??B?$encrypted_string@$0?GJHJCOJGIOBIIIAG@$03@cx@@QBE?AV?$basic_string@DU?$char_traits@D@std@@V?$allocator@D@2@@std@@XZ 10015990 f i Config.obj
 0001:000149c0       ??B?$encrypted_string@$0?GJHJCOJGIOBIIIAG@$07@cx@@QBE?AV?$basic_string@DU?$char_traits@D@std@@V?$allocator@D@2@@std@@XZ 100159c0 f i Config.obj
 0001:000149f0       ??B?$encrypted_string@$0?GJHJCOJGIOBIIIAH@$0P@@cx@@QBE?AV?$basic_string@DU?$char_traits@D@std@@V?$allocator@D@2@@std@@XZ 100159f0 f i Config.obj
 0001:00014a20       ??B?$encrypted_string@$0?GJHJCOJGIOBIIIAH@$07@cx@@QBE?AV?$basic_string@DU?$char_traits@D@std@@V?$allocator@D@2@@std@@XZ 10015a20 f i Config.obj
 0001:00014a50       ??B?$encrypted_string@$0?GJHJCOJGIOBIIIAI@$07@cx@@QBE?AV?$basic_string@DU?$char_traits@D@std@@V?$allocator@D@2@@std@@XZ 10015a50 f i Config.obj
 0001:00014a80       ??B?$encrypted_string@$0?GJHJCOJGIOBIIIAJ@$0M@@cx@@QBE?AV?$basic_string@DU?$char_traits@D@std@@V?$allocator@D@2@@std@@XZ 10015a80 f i Config.obj
 0001:00014ab0       ??B?$encrypted_string@$0?GJHJCOJGIOBIIIAJ@$07@cx@@QBE?AV?$basic_string@DU?$char_traits@D@std@@V?$allocator@D@2@@std@@XZ 10015ab0 f i Config.obj
 0001:00014ae0       ??B?$encrypted_string@$0?GJHJCOJGIOBIIIAK@$09@cx@@QBE?AV?$basic_string@DU?$char_traits@D@std@@V?$allocator@D@2@@std@@XZ 10015ae0 f i Config.obj
 0001:00014b10       ??B?$encrypted_string@$0?GJHJCOJGIOBIIIAK@$07@cx@@QBE?AV?$basic_string@DU?$char_traits@D@std@@V?$allocator@D@2@@std@@XZ 10015b10 f i Config.obj
 0001:00014b40       ??B?$encrypted_string@$0?GJHJCOJGIOBIIIAL@$09@cx@@QBE?AV?$basic_string@DU?$char_traits@D@std@@V?$allocator@D@2@@std@@XZ 10015b40 f i Config.obj
 0001:00014b70       ??B?$encrypted_string@$0?GJHJCOJGIOBIIIAL@$07@cx@@QBE?AV?$basic_string@DU?$char_traits@D@std@@V?$allocator@D@2@@std@@XZ 10015b70 f i Config.obj
 0001:00014ba0       ??B?$encrypted_string@$0?GJHJCOJGIOBIIIAM@$05@cx@@QBE?AV?$basic_string@DU?$char_traits@D@std@@V?$allocator@D@2@@std@@XZ 10015ba0 f i Config.obj
 0001:00014bd0       ??B?$encrypted_string@$0?GJHJCOJGIOBIIIAM@$07@cx@@QBE?AV?$basic_string@DU?$char_traits@D@std@@V?$allocator@D@2@@std@@XZ 10015bd0 f i Config.obj
 0001:00014c00       ??B?$encrypted_string@$0?GJHJCOJGIOBIIIAN@$09@cx@@QBE?AV?$basic_string@DU?$char_traits@D@std@@V?$allocator@D@2@@std@@XZ 10015c00 f i Config.obj
 0001:00014c30       ??B?$encrypted_string@$0?GJHJCOJGIOBIIIAN@$07@cx@@QBE?AV?$basic_string@DU?$char_traits@D@std@@V?$allocator@D@2@@std@@XZ 10015c30 f i Config.obj
 0001:00014c60       ??B?$encrypted_string@$0?GJHJCOJGIOBIIIAO@$07@cx@@QBE?AV?$basic_string@DU?$char_traits@D@std@@V?$allocator@D@2@@std@@XZ 10015c60 f i Config.obj
 0001:00014c90       ??_E?$basic_fstream@DU?$char_traits@D@std@@@std@@UAEPAXI@Z 10015c90 f i * CIL library *:* CIL module *
 0001:00014c90       ??_G?$basic_fstream@DU?$char_traits@D@std@@@std@@UAEPAXI@Z 10015c90 f i Config.obj
 0001:00014cc0       ??$make_encrypted_string@$0?GJHJCOJGIOBIIHPP@$08@cx@@YA?AV?$encrypted_string@$0?GJHJCOJGIOBIIHPP@$08@0@AAY08$$CBD@Z 10015cc0 f i Config.obj
 0001:00014d80       ??$make_encrypted_string@$0?GJHJCOJGIOBIIHPM@$0BB@@cx@@YA?AV?$encrypted_string@$0?GJHJCOJGIOBIIHPM@$0BB@@0@AAY0BB@$$CBD@Z 10015d80 f i Config.obj
 0001:00014ed0       ??$make_encrypted_string@$0?GJHJCOJGIOBIIHPG@$08@cx@@YA?AV?$encrypted_string@$0?GJHJCOJGIOBIIHPG@$08@0@AAY08$$CBD@Z 10015ed0 f i Config.obj
 0001:00014f90       ??$make_encrypted_string@$0?GJHJCOJGIOBIIHON@$07@cx@@YA?AV?$encrypted_string@$0?GJHJCOJGIOBIIHON@$07@0@AAY07$$CBD@Z 10015f90 f i Config.obj
 0001:00014fd0       ??$make_encrypted_string@$0?GJHJCOJGIOBIIHON@$0BC@@cx@@YA?AV?$encrypted_string@$0?GJHJCOJGIOBIIHON@$0BC@@0@AAY0BC@$$CBD@Z 10015fd0 f i Config.obj
 0001:00015000       ??$make_encrypted_string@$0?GJHJCOJGIOBIIHOM@$07@cx@@YA?AV?$encrypted_string@$0?GJHJCOJGIOBIIHOM@$07@0@AAY07$$CBD@Z 10016000 f i Config.obj
 0001:00015040       ??$make_encrypted_string@$0?GJHJCOJGIOBIIHOM@$0BB@@cx@@YA?AV?$encrypted_string@$0?GJHJCOJGIOBIIHOM@$0BB@@0@AAY0BB@$$CBD@Z 10016040 f i Config.obj
 0001:00015190       ??$make_encrypted_string@$0?GJHJCOJGIOBIIHOL@$07@cx@@YA?AV?$encrypted_string@$0?GJHJCOJGIOBIIHOL@$07@0@AAY07$$CBD@Z 10016190 f i Config.obj
 0001:000151d0       ??$make_encrypted_string@$0?GJHJCOJGIOBIIHOL@$0O@@cx@@YA?AV?$encrypted_string@$0?GJHJCOJGIOBIIHOL@$0O@@0@AAY0O@$$CBD@Z 100161d0 f i Config.obj
 0001:00015210       ??$make_encrypted_string@$0?GJHJCOJGIOBIIHOK@$07@cx@@YA?AV?$encrypted_string@$0?GJHJCOJGIOBIIHOK@$07@0@AAY07$$CBD@Z 10016210 f i Config.obj
 0001:00015250       ??$make_encrypted_string@$0?GJHJCOJGIOBIIHOK@$0BB@@cx@@YA?AV?$encrypted_string@$0?GJHJCOJGIOBIIHOK@$0BB@@0@AAY0BB@$$CBD@Z 10016250 f i Config.obj
 0001:000153a0       ??$make_encrypted_string@$0?GJHJCOJGIOBIIHOJ@$07@cx@@YA?AV?$encrypted_string@$0?GJHJCOJGIOBIIHOJ@$07@0@AAY07$$CBD@Z 100163a0 f i Config.obj
 0001:000153e0       ??$make_encrypted_string@$0?GJHJCOJGIOBIIHOJ@$0BB@@cx@@YA?AV?$encrypted_string@$0?GJHJCOJGIOBIIHOJ@$0BB@@0@AAY0BB@$$CBD@Z 100163e0 f i Config.obj
 0001:00015530       ??$make_encrypted_string@$0?GJHJCOJGIOBIIHOI@$07@cx@@YA?AV?$encrypted_string@$0?GJHJCOJGIOBIIHOI@$07@0@AAY07$$CBD@Z 10016530 f i Config.obj
 0001:00015570       ??$make_encrypted_string@$0?GJHJCOJGIOBIIHOI@$0O@@cx@@YA?AV?$encrypted_string@$0?GJHJCOJGIOBIIHOI@$0O@@0@AAY0O@$$CBD@Z 10016570 f i Config.obj
 0001:000155b0       ??$make_encrypted_string@$0?GJHJCOJGIOBIIHOH@$07@cx@@YA?AV?$encrypted_string@$0?GJHJCOJGIOBIIHOH@$07@0@AAY07$$CBD@Z 100165b0 f i Config.obj
 0001:000155f0       ??$make_encrypted_string@$0?GJHJCOJGIOBIIHOH@$0BC@@cx@@YA?AV?$encrypted_string@$0?GJHJCOJGIOBIIHOH@$0BC@@0@AAY0BC@$$CBD@Z 100165f0 f i Config.obj
 0001:00015620       ??$make_encrypted_string@$0?GJHJCOJGIOBIIHOG@$07@cx@@YA?AV?$encrypted_string@$0?GJHJCOJGIOBIIHOG@$07@0@AAY07$$CBD@Z 10016620 f i Config.obj
 0001:00015660       ??$make_encrypted_string@$0?GJHJCOJGIOBIIHOG@$0BA@@cx@@YA?AV?$encrypted_string@$0?GJHJCOJGIOBIIHOG@$0BA@@0@AAY0BA@$$CBD@Z 10016660 f i Config.obj
 0001:000156a0       ??$make_encrypted_string@$0?GJHJCOJGIOBIIHOD@$07@cx@@YA?AV?$encrypted_string@$0?GJHJCOJGIOBIIHOD@$07@0@AAY07$$CBD@Z 100166a0 f i Config.obj
 0001:000156e0       ??$make_encrypted_string@$0?GJHJCOJGIOBIIHOD@$0P@@cx@@YA?AV?$encrypted_string@$0?GJHJCOJGIOBIIHOD@$0P@@0@AAY0P@$$CBD@Z 100166e0 f i Config.obj
 0001:00015720       ??$make_encrypted_string@$0?GJHJCOJGIOBIIHOB@$08@cx@@YA?AV?$encrypted_string@$0?GJHJCOJGIOBIIHOB@$08@0@AAY08$$CBD@Z 10016720 f i Config.obj
 0001:000157e0       ??$make_encrypted_string@$0?GJHJCOJGIOBIIHOB@$07@cx@@YA?AV?$encrypted_string@$0?GJHJCOJGIOBIIHOB@$07@0@AAY07$$CBD@Z 100167e0 f i Config.obj
 0001:00015820       ??$make_encrypted_string@$0?GJHJCOJGIOBIIHOA@$08@cx@@YA?AV?$encrypted_string@$0?GJHJCOJGIOBIIHOA@$08@0@AAY08$$CBD@Z 10016820 f i Config.obj
 0001:000158e0       ??$make_encrypted_string@$0?GJHJCOJGIOBIIHOA@$03@cx@@YA?AV?$encrypted_string@$0?GJHJCOJGIOBIIHOA@$03@0@AAY03$$CBD@Z 100168e0 f i Config.obj
 0001:00015910       ??$make_encrypted_string@$0?GJHJCOJGIOBIIHNP@$08@cx@@YA?AV?$encrypted_string@$0?GJHJCOJGIOBIIHNP@$08@0@AAY08$$CBD@Z 10016910 f i Config.obj
 0001:000159d0       ??$make_encrypted_string@$0?GJHJCOJGIOBIIHNP@$05@cx@@YA?AV?$encrypted_string@$0?GJHJCOJGIOBIIHNP@$05@0@AAY05$$CBD@Z 100169d0 f i Config.obj
 0001:00015a00       ??$make_encrypted_string@$0?GJHJCOJGIOBIIHNO@$08@cx@@YA?AV?$encrypted_string@$0?GJHJCOJGIOBIIHNO@$08@0@AAY08$$CBD@Z 10016a00 f i Config.obj
 0001:00015ac0       ??$make_encrypted_string@$0?GJHJCOJGIOBIIHNO@$0N@@cx@@YA?AV?$encrypted_string@$0?GJHJCOJGIOBIIHNO@$0N@@0@AAY0N@$$CBD@Z 10016ac0 f i Config.obj
 0001:00015af0       ??$make_encrypted_string@$0?GJHJCOJGIOBIIHNN@$08@cx@@YA?AV?$encrypted_string@$0?GJHJCOJGIOBIIHNN@$08@0@AAY08$$CBD@Z 10016af0 f i Config.obj
 0001:00015bb0       ??$make_encrypted_string@$0?GJHJCOJGIOBIIHNN@$0BB@@cx@@YA?AV?$encrypted_string@$0?GJHJCOJGIOBIIHNN@$0BB@@0@AAY0BB@$$CBD@Z 10016bb0 f i Config.obj
 0001:00015d00       ??$make_encrypted_string@$0?GJHJCOJGIOBIIHNM@$08@cx@@YA?AV?$encrypted_string@$0?GJHJCOJGIOBIIHNM@$08@0@AAY08$$CBD@Z 10016d00 f i Config.obj
 0001:00015dc0       ??$make_encrypted_string@$0?GJHJCOJGIOBIIHNM@$0L@@cx@@YA?AV?$encrypted_string@$0?GJHJCOJGIOBIIHNM@$0L@@0@AAY0L@$$CBD@Z 10016dc0 f i Config.obj
 0001:00015df0       ??$make_encrypted_string@$0?GJHJCOJGIOBIIHNL@$08@cx@@YA?AV?$encrypted_string@$0?GJHJCOJGIOBIIHNL@$08@0@AAY08$$CBD@Z 10016df0 f i Config.obj
 0001:00015ea0       ??$make_encrypted_string@$0?GJHJCOJGIOBIIHNJ@$0L@@cx@@YA?AV?$encrypted_string@$0?GJHJCOJGIOBIIHNJ@$0L@@0@AAY0L@$$CBD@Z 10016ea0 f i Config.obj
 0001:00015ed0       ??$make_encrypted_string@$0?GJHJCOJGIOBIIHNJ@$05@cx@@YA?AV?$encrypted_string@$0?GJHJCOJGIOBIIHNJ@$05@0@AAY05$$CBD@Z 10016ed0 f i Config.obj
 0001:00015f00       ??$make_encrypted_string@$0?GJHJCOJGIOBIIHNI@$0L@@cx@@YA?AV?$encrypted_string@$0?GJHJCOJGIOBIIHNI@$0L@@0@AAY0L@$$CBD@Z 10016f00 f i Config.obj
 0001:00015f30       ??$make_encrypted_string@$0?GJHJCOJGIOBIIHNI@$03@cx@@YA?AV?$encrypted_string@$0?GJHJCOJGIOBIIHNI@$03@0@AAY03$$CBD@Z 10016f30 f i Config.obj
 0001:00015f60       ??$make_encrypted_string@$0?GJHJCOJGIOBIIHNH@$0L@@cx@@YA?AV?$encrypted_string@$0?GJHJCOJGIOBIIHNH@$0L@@0@AAY0L@$$CBD@Z 10016f60 f i Config.obj
 0001:00015fa0       ??$make_encrypted_string@$0?GJHJCOJGIOBIIHNH@$0BB@@cx@@YA?AV?$encrypted_string@$0?GJHJCOJGIOBIIHNH@$0BB@@0@AAY0BB@$$CBD@Z 10016fa0 f i Config.obj
 0001:000160f0       ??$make_encrypted_string@$0?GJHJCOJGIOBIIHNF@$0L@@cx@@YA?AV?$encrypted_string@$0?GJHJCOJGIOBIIHNF@$0L@@0@AAY0L@$$CBD@Z 100170f0 f i Config.obj
 0001:00016120       ??$make_encrypted_string@$0?GJHJCOJGIOBIIHNF@$04@cx@@YA?AV?$encrypted_string@$0?GJHJCOJGIOBIIHNF@$04@0@AAY04$$CBD@Z 10017120 f i Config.obj
 0001:00016140       ??$make_encrypted_string@$0?GJHJCOJGIOBIIHNE@$0L@@cx@@YA?AV?$encrypted_string@$0?GJHJCOJGIOBIIHNE@$0L@@0@AAY0L@$$CBD@Z 10017140 f i Config.obj
 0001:00016170       ??$make_encrypted_string@$0?GJHJCOJGIOBIIHNE@$05@cx@@YA?AV?$encrypted_string@$0?GJHJCOJGIOBIIHNE@$05@0@AAY05$$CBD@Z 10017170 f i Config.obj
 0001:000161a0       ??$make_encrypted_string@$0?GJHJCOJGIOBIIHND@$0L@@cx@@YA?AV?$encrypted_string@$0?GJHJCOJGIOBIIHND@$0L@@0@AAY0L@$$CBD@Z 100171a0 f i Config.obj
 0001:000161d0       ??$make_encrypted_string@$0?GJHJCOJGIOBIIHND@$04@cx@@YA?AV?$encrypted_string@$0?GJHJCOJGIOBIIHND@$04@0@AAY04$$CBD@Z 100171d0 f i Config.obj
 0001:000161f0       ??$make_encrypted_string@$0?GJHJCOJGIOBIIHNC@$0L@@cx@@YA?AV?$encrypted_string@$0?GJHJCOJGIOBIIHNC@$0L@@0@AAY0L@$$CBD@Z 100171f0 f i Config.obj
 0001:00016220       ??$make_encrypted_string@$0?GJHJCOJGIOBIIHNC@$04@cx@@YA?AV?$encrypted_string@$0?GJHJCOJGIOBIIHNC@$04@0@AAY04$$CBD@Z 10017220 f i Config.obj
 0001:00016240       ??$make_encrypted_string@$0?GJHJCOJGIOBIIHNB@$0L@@cx@@YA?AV?$encrypted_string@$0?GJHJCOJGIOBIIHNB@$0L@@0@AAY0L@$$CBD@Z 10017240 f i Config.obj
 0001:00016270       ??$make_encrypted_string@$0?GJHJCOJGIOBIIHNB@$07@cx@@YA?AV?$encrypted_string@$0?GJHJCOJGIOBIIHNB@$07@0@AAY07$$CBD@Z 10017270 f i Config.obj
 0001:000162b0       ??$make_encrypted_string@$0?GJHJCOJGIOBIIHMN@$0M@@cx@@YA?AV?$encrypted_string@$0?GJHJCOJGIOBIIHMN@$0M@@0@AAY0M@$$CBD@Z 100172b0 f i Config.obj
 0001:000162f0       ??$make_encrypted_string@$0?GJHJCOJGIOBIIHMM@$03@cx@@YA?AV?$encrypted_string@$0?GJHJCOJGIOBIIHMM@$03@0@AAY03$$CBD@Z 100172f0 f i Config.obj
 0001:00016320       ??$make_encrypted_string@$0?GJHJCOJGIOBIIHMK@$07@cx@@YA?AV?$encrypted_string@$0?GJHJCOJGIOBIIHMK@$07@0@AAY07$$CBD@Z 10017320 f i Config.obj
 0001:00016360       ??$make_encrypted_string@$0?GJHJCOJGIOBIIHMJ@$06@cx@@YA?AV?$encrypted_string@$0?GJHJCOJGIOBIIHMJ@$06@0@AAY06$$CBD@Z 10017360 f i Config.obj
 0001:00016390       ??$make_encrypted_string@$0?GJHJCOJGIOBIIHMI@$06@cx@@YA?AV?$encrypted_string@$0?GJHJCOJGIOBIIHMI@$06@0@AAY06$$CBD@Z 10017390 f i Config.obj
 0001:000163c0       ??$make_encrypted_string@$0?GJHJCOJGIOBIIHMG@$0L@@cx@@YA?AV?$encrypted_string@$0?GJHJCOJGIOBIIHMG@$0L@@0@AAY0L@$$CBD@Z 100173c0 f i Config.obj
 0001:000163f0       ??$make_encrypted_string@$0?GJHJCOJGIOBIIHMF@$0L@@cx@@YA?AV?$encrypted_string@$0?GJHJCOJGIOBIIHMF@$0L@@0@AAY0L@$$CBD@Z 100173f0 f i Config.obj
 0001:00016420       ??$make_encrypted_string@$0?GJHJCOJGIOBIIHME@$08@cx@@YA?AV?$encrypted_string@$0?GJHJCOJGIOBIIHME@$08@0@AAY08$$CBD@Z 10017420 f i Config.obj
 0001:000164b0       ??$make_encrypted_string@$0?GJHJCOJGIOBIIHMD@$04@cx@@YA?AV?$encrypted_string@$0?GJHJCOJGIOBIIHMD@$04@0@AAY04$$CBD@Z 100174b0 f i Config.obj
 0001:000164d0       ??$make_encrypted_string@$0?GJHJCOJGIOBIIHMB@$0BB@@cx@@YA?AV?$encrypted_string@$0?GJHJCOJGIOBIIHMB@$0BB@@0@AAY0BB@$$CBD@Z 100174d0 f i Config.obj
 0001:000165d0       ??$make_encrypted_string@$0?GJHJCOJGIOBIIHMA@$09@cx@@YA?AV?$encrypted_string@$0?GJHJCOJGIOBIIHMA@$09@0@AAY09$$CBD@Z 100175d0 f i Config.obj
 0001:00016600       ??$make_encrypted_string@$0?GJHJCOJGIOBIIHLP@$07@cx@@YA?AV?$encrypted_string@$0?GJHJCOJGIOBIIHLP@$07@0@AAY07$$CBD@Z 10017600 f i Config.obj
 0001:00016640       ??$make_encrypted_string@$0?GJHJCOJGIOBIIHLL@$0M@@cx@@YA?AV?$encrypted_string@$0?GJHJCOJGIOBIIHLL@$0M@@0@AAY0M@$$CBD@Z 10017640 f i Config.obj
 0001:00016680       ??$make_encrypted_string@$0?GJHJCOJGIOBIIHLK@$0P@@cx@@YA?AV?$encrypted_string@$0?GJHJCOJGIOBIIHLK@$0P@@0@AAY0P@$$CBD@Z 10017680 f i Config.obj
 0001:000166c0       ??$make_encrypted_string@$0?GJHJCOJGIOBIIHLJ@$0BA@@cx@@YA?AV?$encrypted_string@$0?GJHJCOJGIOBIIHLJ@$0BA@@0@AAY0BA@$$CBD@Z 100176c0 f i Config.obj
 0001:00016700       ??$make_encrypted_string@$0?GJHJCOJGIOBIIHLH@$07@cx@@YA?AV?$encrypted_string@$0?GJHJCOJGIOBIIHLH@$07@0@AAY07$$CBD@Z 10017700 f i Config.obj
 0001:00016740       ??$make_encrypted_string@$0?GJHJCOJGIOBIIHLG@$07@cx@@YA?AV?$encrypted_string@$0?GJHJCOJGIOBIIHLG@$07@0@AAY07$$CBD@Z 10017740 f i Config.obj
 0001:00016780       ??$make_encrypted_string@$0?GJHJCOJGIOBIIHLF@$07@cx@@YA?AV?$encrypted_string@$0?GJHJCOJGIOBIIHLF@$07@0@AAY07$$CBD@Z 10017780 f i Config.obj
 0001:000167c0       ??$make_encrypted_string@$0?GJHJCOJGIOBIIHLE@$07@cx@@YA?AV?$encrypted_string@$0?GJHJCOJGIOBIIHLE@$07@0@AAY07$$CBD@Z 100177c0 f i Config.obj
 0001:00016800       ??$make_encrypted_string@$0?GJHJCOJGIOBIIHLC@$0BA@@cx@@YA?AV?$encrypted_string@$0?GJHJCOJGIOBIIHLC@$0BA@@0@AAY0BA@$$CBD@Z 10017800 f i Config.obj
 0001:00016840       ??$make_encrypted_string@$0?GJHJCOJGIOBIIHLB@$0M@@cx@@YA?AV?$encrypted_string@$0?GJHJCOJGIOBIIHLB@$0M@@0@AAY0M@$$CBD@Z 10017840 f i Config.obj
 0001:00016880       ??$make_encrypted_string@$0?GJHJCOJGIOBIIHLA@$0P@@cx@@YA?AV?$encrypted_string@$0?GJHJCOJGIOBIIHLA@$0P@@0@AAY0P@$$CBD@Z 10017880 f i Config.obj
 0001:000168c0       ??$make_encrypted_string@$0?GJHJCOJGIOBIIHKI@$04@cx@@YA?AV?$encrypted_string@$0?GJHJCOJGIOBIIHKI@$04@0@AAY04$$CBD@Z 100178c0 f i Config.obj
 0001:000168e0       ??$make_encrypted_string@$0?GJHJCOJGIOBIIHKE@$07@cx@@YA?AV?$encrypted_string@$0?GJHJCOJGIOBIIHKE@$07@0@AAY07$$CBD@Z 100178e0 f i Config.obj
 0001:00016920       ??$make_encrypted_string@$0?GJHJCOJGIOBIIHKD@$07@cx@@YA?AV?$encrypted_string@$0?GJHJCOJGIOBIIHKD@$07@0@AAY07$$CBD@Z 10017920 f i Config.obj
 0001:00016960       ??$make_encrypted_string@$0?GJHJCOJGIOBIIHKD@$06@cx@@YA?AV?$encrypted_string@$0?GJHJCOJGIOBIIHKD@$06@0@AAY06$$CBD@Z 10017960 f i Config.obj
 0001:00016990       ??$make_encrypted_string@$0?GJHJCOJGIOBIIHKC@$07@cx@@YA?AV?$encrypted_string@$0?GJHJCOJGIOBIIHKC@$07@0@AAY07$$CBD@Z 10017990 f i Config.obj
 0001:000169d0       ??$make_encrypted_string@$0?GJHJCOJGIOBIIHKC@$06@cx@@YA?AV?$encrypted_string@$0?GJHJCOJGIOBIIHKC@$06@0@AAY06$$CBD@Z 100179d0 f i Config.obj
 0001:00016a00       ??$make_encrypted_string@$0?GJHJCOJGIOBIIHKB@$07@cx@@YA?AV?$encrypted_string@$0?GJHJCOJGIOBIIHKB@$07@0@AAY07$$CBD@Z 10017a00 f i Config.obj
 0001:00016a40       ??$make_encrypted_string@$0?GJHJCOJGIOBIIHKB@$08@cx@@YA?AV?$encrypted_string@$0?GJHJCOJGIOBIIHKB@$08@0@AAY08$$CBD@Z 10017a40 f i Config.obj
 0001:00016b00       ??$make_encrypted_string@$0?GJHJCOJGIOBIIHKA@$07@cx@@YA?AV?$encrypted_string@$0?GJHJCOJGIOBIIHKA@$07@0@AAY07$$CBD@Z 10017b00 f i Config.obj
 0001:00016b40       ??$make_encrypted_string@$0?GJHJCOJGIOBIIHKA@$0O@@cx@@YA?AV?$encrypted_string@$0?GJHJCOJGIOBIIHKA@$0O@@0@AAY0O@$$CBD@Z 10017b40 f i Config.obj
 0001:00016b80       ??$make_encrypted_string@$0?GJHJCOJGIOBIIHJP@$07@cx@@YA?AV?$encrypted_string@$0?GJHJCOJGIOBIIHJP@$07@0@AAY07$$CBD@Z 10017b80 f i Config.obj
 0001:00016bc0       ??$make_encrypted_string@$0?GJHJCOJGIOBIIHJP@$0N@@cx@@YA?AV?$encrypted_string@$0?GJHJCOJGIOBIIHJP@$0N@@0@AAY0N@$$CBD@Z 10017bc0 f i Config.obj
 0001:00016bf0       ??$make_encrypted_string@$0?GJHJCOJGIOBIIHJN@$07@cx@@YA?AV?$encrypted_string@$0?GJHJCOJGIOBIIHJN@$07@0@AAY07$$CBD@Z 10017bf0 f i Config.obj
 0001:00016c30       ??$make_encrypted_string@$0?GJHJCOJGIOBIIHJN@$0N@@cx@@YA?AV?$encrypted_string@$0?GJHJCOJGIOBIIHJN@$0N@@0@AAY0N@$$CBD@Z 10017c30 f i Config.obj
 0001:00016c60       ??$make_encrypted_string@$0?GJHJCOJGIOBIIHJM@$07@cx@@YA?AV?$encrypted_string@$0?GJHJCOJGIOBIIHJM@$07@0@AAY07$$CBD@Z 10017c60 f i Config.obj
 0001:00016ca0       ??$make_encrypted_string@$0?GJHJCOJGIOBIIHJM@$0L@@cx@@YA?AV?$encrypted_string@$0?GJHJCOJGIOBIIHJM@$0L@@0@AAY0L@$$CBD@Z 10017ca0 f i Config.obj
 0001:00016cd0       ??$make_encrypted_string@$0?GJHJCOJGIOBIIHJL@$07@cx@@YA?AV?$encrypted_string@$0?GJHJCOJGIOBIIHJL@$07@0@AAY07$$CBD@Z 10017cd0 f i Config.obj
 0001:00016d10       ??$make_encrypted_string@$0?GJHJCOJGIOBIIHJK@$07@cx@@YA?AV?$encrypted_string@$0?GJHJCOJGIOBIIHJK@$07@0@AAY07$$CBD@Z 10017d10 f i Config.obj
 0001:00016d50       ??$make_encrypted_string@$0?GJHJCOJGIOBIIHJK@$0N@@cx@@YA?AV?$encrypted_string@$0?GJHJCOJGIOBIIHJK@$0N@@0@AAY0N@$$CBD@Z 10017d50 f i Config.obj
 0001:00016d80       ??$make_encrypted_string@$0?GJHJCOJGIOBIIHJJ@$07@cx@@YA?AV?$encrypted_string@$0?GJHJCOJGIOBIIHJJ@$07@0@AAY07$$CBD@Z 10017d80 f i Config.obj
 0001:00016dc0       ??$make_encrypted_string@$0?GJHJCOJGIOBIIHJJ@$0BB@@cx@@YA?AV?$encrypted_string@$0?GJHJCOJGIOBIIHJJ@$0BB@@0@AAY0BB@$$CBD@Z 10017dc0 f i Config.obj
 0001:00016f10       ??$make_encrypted_string@$0?GJHJCOJGIOBIIHJI@$07@cx@@YA?AV?$encrypted_string@$0?GJHJCOJGIOBIIHJI@$07@0@AAY07$$CBD@Z 10017f10 f i Config.obj
 0001:00016f50       ??$make_encrypted_string@$0?GJHJCOJGIOBIIHJI@$0P@@cx@@YA?AV?$encrypted_string@$0?GJHJCOJGIOBIIHJI@$0P@@0@AAY0P@$$CBD@Z 10017f50 f i Config.obj
 0001:00016f90       ??$make_encrypted_string@$0?GJHJCOJGIOBIIHJH@$07@cx@@YA?AV?$encrypted_string@$0?GJHJCOJGIOBIIHJH@$07@0@AAY07$$CBD@Z 10017f90 f i Config.obj
 0001:00016fd0       ??$make_encrypted_string@$0?GJHJCOJGIOBIIHJH@$0BC@@cx@@YA?AV?$encrypted_string@$0?GJHJCOJGIOBIIHJH@$0BC@@0@AAY0BC@$$CBD@Z 10017fd0 f i Config.obj
 0001:00017000       ??$make_encrypted_string@$0?GJHJCOJGIOBIIHJG@$07@cx@@YA?AV?$encrypted_string@$0?GJHJCOJGIOBIIHJG@$07@0@AAY07$$CBD@Z 10018000 f i Config.obj
 0001:00017040       ??$make_encrypted_string@$0?GJHJCOJGIOBIIHJG@$0M@@cx@@YA?AV?$encrypted_string@$0?GJHJCOJGIOBIIHJG@$0M@@0@AAY0M@$$CBD@Z 10018040 f i Config.obj
 0001:00017080       ??$make_encrypted_string@$0?GJHJCOJGIOBIIHJF@$07@cx@@YA?AV?$encrypted_string@$0?GJHJCOJGIOBIIHJF@$07@0@AAY07$$CBD@Z 10018080 f i Config.obj
 0001:000170c0       ??$make_encrypted_string@$0?GJHJCOJGIOBIIHJF@$0M@@cx@@YA?AV?$encrypted_string@$0?GJHJCOJGIOBIIHJF@$0M@@0@AAY0M@$$CBD@Z 100180c0 f i Config.obj
 0001:00017100       ??$make_encrypted_string@$0?GJHJCOJGIOBIIHJE@$07@cx@@YA?AV?$encrypted_string@$0?GJHJCOJGIOBIIHJE@$07@0@AAY07$$CBD@Z 10018100 f i Config.obj
 0001:00017140       ??$make_encrypted_string@$0?GJHJCOJGIOBIIHJE@$0L@@cx@@YA?AV?$encrypted_string@$0?GJHJCOJGIOBIIHJE@$0L@@0@AAY0L@$$CBD@Z 10018140 f i Config.obj
 0001:00017170       ??$make_encrypted_string@$0?GJHJCOJGIOBIIHJD@$07@cx@@YA?AV?$encrypted_string@$0?GJHJCOJGIOBIIHJD@$07@0@AAY07$$CBD@Z 10018170 f i Config.obj
 0001:000171b0       ??$make_encrypted_string@$0?GJHJCOJGIOBIIHJD@$0P@@cx@@YA?AV?$encrypted_string@$0?GJHJCOJGIOBIIHJD@$0P@@0@AAY0P@$$CBD@Z 100181b0 f i Config.obj
 0001:000171f0       ??$make_encrypted_string@$0?GJHJCOJGIOBIIHJC@$07@cx@@YA?AV?$encrypted_string@$0?GJHJCOJGIOBIIHJC@$07@0@AAY07$$CBD@Z 100181f0 f i Config.obj
 0001:00017230       ??$make_encrypted_string@$0?GJHJCOJGIOBIIHJC@$0BC@@cx@@YA?AV?$encrypted_string@$0?GJHJCOJGIOBIIHJC@$0BC@@0@AAY0BC@$$CBD@Z 10018230 f i Config.obj
 0001:00017260       ??$make_encrypted_string@$0?GJHJCOJGIOBIIHJB@$07@cx@@YA?AV?$encrypted_string@$0?GJHJCOJGIOBIIHJB@$07@0@AAY07$$CBD@Z 10018260 f i Config.obj
 0001:000172a0       ??$make_encrypted_string@$0?GJHJCOJGIOBIIHJB@$09@cx@@YA?AV?$encrypted_string@$0?GJHJCOJGIOBIIHJB@$09@0@AAY09$$CBD@Z 100182a0 f i Config.obj
 0001:000172d0       ??$make_encrypted_string@$0?GJHJCOJGIOBIIHJA@$07@cx@@YA?AV?$encrypted_string@$0?GJHJCOJGIOBIIHJA@$07@0@AAY07$$CBD@Z 100182d0 f i Config.obj
 0001:00017310       ??$make_encrypted_string@$0?GJHJCOJGIOBIIHJA@$0O@@cx@@YA?AV?$encrypted_string@$0?GJHJCOJGIOBIIHJA@$0O@@0@AAY0O@$$CBD@Z 10018310 f i Config.obj
 0001:00017350       ??$make_encrypted_string@$0?GJHJCOJGIOBIIHIP@$07@cx@@YA?AV?$encrypted_string@$0?GJHJCOJGIOBIIHIP@$07@0@AAY07$$CBD@Z 10018350 f i Config.obj
 0001:00017390       ??$make_encrypted_string@$0?GJHJCOJGIOBIIHIP@$0L@@cx@@YA?AV?$encrypted_string@$0?GJHJCOJGIOBIIHIP@$0L@@0@AAY0L@$$CBD@Z 10018390 f i Config.obj
 0001:000173c0       ??$make_encrypted_string@$0?GJHJCOJGIOBIIHIO@$07@cx@@YA?AV?$encrypted_string@$0?GJHJCOJGIOBIIHIO@$07@0@AAY07$$CBD@Z 100183c0 f i Config.obj
 0001:00017400       ??$make_encrypted_string@$0?GJHJCOJGIOBIIHIO@$09@cx@@YA?AV?$encrypted_string@$0?GJHJCOJGIOBIIHIO@$09@0@AAY09$$CBD@Z 10018400 f i Config.obj
 0001:00017430       ??$make_encrypted_string@$0?GJHJCOJGIOBIIHIN@$07@cx@@YA?AV?$encrypted_string@$0?GJHJCOJGIOBIIHIN@$07@0@AAY07$$CBD@Z 10018430 f i Config.obj
 0001:00017470       ??$make_encrypted_string@$0?GJHJCOJGIOBIIHIN@$0M@@cx@@YA?AV?$encrypted_string@$0?GJHJCOJGIOBIIHIN@$0M@@0@AAY0M@$$CBD@Z 10018470 f i Config.obj
 0001:000174b0       ??$make_encrypted_string@$0?GJHJCOJGIOBIIHIM@$07@cx@@YA?AV?$encrypted_string@$0?GJHJCOJGIOBIIHIM@$07@0@AAY07$$CBD@Z 100184b0 f i Config.obj
 0001:000174f0       ??$make_encrypted_string@$0?GJHJCOJGIOBIIHIM@$0N@@cx@@YA?AV?$encrypted_string@$0?GJHJCOJGIOBIIHIM@$0N@@0@AAY0N@$$CBD@Z 100184f0 f i Config.obj
 0001:00017520       ??$make_encrypted_string@$0?GJHJCOJGIOBIIHIL@$07@cx@@YA?AV?$encrypted_string@$0?GJHJCOJGIOBIIHIL@$07@0@AAY07$$CBD@Z 10018520 f i Config.obj
 0001:00017560       ??$make_encrypted_string@$0?GJHJCOJGIOBIIHIL@$0M@@cx@@YA?AV?$encrypted_string@$0?GJHJCOJGIOBIIHIL@$0M@@0@AAY0M@$$CBD@Z 10018560 f i Config.obj
 0001:000175a0       ??$make_encrypted_string@$0?GJHJCOJGIOBIIHIK@$07@cx@@YA?AV?$encrypted_string@$0?GJHJCOJGIOBIIHIK@$07@0@AAY07$$CBD@Z 100185a0 f i Config.obj
 0001:000175e0       ??$make_encrypted_string@$0?GJHJCOJGIOBIIHIK@$0BB@@cx@@YA?AV?$encrypted_string@$0?GJHJCOJGIOBIIHIK@$0BB@@0@AAY0BB@$$CBD@Z 100185e0 f i Config.obj
 0001:00017730       ??$make_encrypted_string@$0?GJHJCOJGIOBIIHIJ@$07@cx@@YA?AV?$encrypted_string@$0?GJHJCOJGIOBIIHIJ@$07@0@AAY07$$CBD@Z 10018730 f i Config.obj
 0001:00017770       ??$make_encrypted_string@$0?GJHJCOJGIOBIIHIJ@$0O@@cx@@YA?AV?$encrypted_string@$0?GJHJCOJGIOBIIHIJ@$0O@@0@AAY0O@$$CBD@Z 10018770 f i Config.obj
 0001:000177b0       ??$make_encrypted_string@$0?GJHJCOJGIOBIIHII@$07@cx@@YA?AV?$encrypted_string@$0?GJHJCOJGIOBIIHII@$07@0@AAY07$$CBD@Z 100187b0 f i Config.obj
 0001:000177f0       ??$make_encrypted_string@$0?GJHJCOJGIOBIIHII@$0N@@cx@@YA?AV?$encrypted_string@$0?GJHJCOJGIOBIIHII@$0N@@0@AAY0N@$$CBD@Z 100187f0 f i Config.obj
 0001:00017820       ??$make_encrypted_string@$0?GJHJCOJGIOBIIHIF@$07@cx@@YA?AV?$encrypted_string@$0?GJHJCOJGIOBIIHIF@$07@0@AAY07$$CBD@Z 10018820 f i Config.obj
 0001:00017860       ??$make_encrypted_string@$0?GJHJCOJGIOBIIHIF@$09@cx@@YA?AV?$encrypted_string@$0?GJHJCOJGIOBIIHIF@$09@0@AAY09$$CBD@Z 10018860 f i Config.obj
 0001:00017890       ??$make_encrypted_string@$0?GJHJCOJGIOBIIHIE@$07@cx@@YA?AV?$encrypted_string@$0?GJHJCOJGIOBIIHIE@$07@0@AAY07$$CBD@Z 10018890 f i Config.obj
 0001:000178d0       ??$make_encrypted_string@$0?GJHJCOJGIOBIIHIE@$09@cx@@YA?AV?$encrypted_string@$0?GJHJCOJGIOBIIHIE@$09@0@AAY09$$CBD@Z 100188d0 f i Config.obj
 0001:00017900       ??$make_encrypted_string@$0?GJHJCOJGIOBIIHID@$07@cx@@YA?AV?$encrypted_string@$0?GJHJCOJGIOBIIHID@$07@0@AAY07$$CBD@Z 10018900 f i Config.obj
 0001:00017940       ??$make_encrypted_string@$0?GJHJCOJGIOBIIHID@$09@cx@@YA?AV?$encrypted_string@$0?GJHJCOJGIOBIIHID@$09@0@AAY09$$CBD@Z 10018940 f i Config.obj
 0001:00017970       ??$make_encrypted_string@$0?GJHJCOJGIOBIIHIB@$07@cx@@YA?AV?$encrypted_string@$0?GJHJCOJGIOBIIHIB@$07@0@AAY07$$CBD@Z 10018970 f i Config.obj
 0001:000179b0       ??$make_encrypted_string@$0?GJHJCOJGIOBIIHIB@$09@cx@@YA?AV?$encrypted_string@$0?GJHJCOJGIOBIIHIB@$09@0@AAY09$$CBD@Z 100189b0 f i Config.obj
 0001:000179e0       ??$make_encrypted_string@$0?GJHJCOJGIOBIIHIA@$07@cx@@YA?AV?$encrypted_string@$0?GJHJCOJGIOBIIHIA@$07@0@AAY07$$CBD@Z 100189e0 f i Config.obj
 0001:00017a20       ??$make_encrypted_string@$0?GJHJCOJGIOBIIHIA@$09@cx@@YA?AV?$encrypted_string@$0?GJHJCOJGIOBIIHIA@$09@0@AAY09$$CBD@Z 10018a20 f i Config.obj
 0001:00017a50       ??$make_encrypted_string@$0?GJHJCOJGIOBIIHHP@$07@cx@@YA?AV?$encrypted_string@$0?GJHJCOJGIOBIIHHP@$07@0@AAY07$$CBD@Z 10018a50 f i Config.obj
 0001:00017a90       ??$make_encrypted_string@$0?GJHJCOJGIOBIIHHP@$09@cx@@YA?AV?$encrypted_string@$0?GJHJCOJGIOBIIHHP@$09@0@AAY09$$CBD@Z 10018a90 f i Config.obj
 0001:00017ac0       ??$make_encrypted_string@$0?GJHJCOJGIOBIIHHM@$04@cx@@YA?AV?$encrypted_string@$0?GJHJCOJGIOBIIHHM@$04@0@AAY04$$CBD@Z 10018ac0 f i Config.obj
 0001:00017ae0       ??$make_encrypted_string@$0?GJHJCOJGIOBIIHHM@$0N@@cx@@YA?AV?$encrypted_string@$0?GJHJCOJGIOBIIHHM@$0N@@0@AAY0N@$$CBD@Z 10018ae0 f i Config.obj
 0001:00017b10       ??$make_encrypted_string@$0?GJHJCOJGIOBIIHHL@$04@cx@@YA?AV?$encrypted_string@$0?GJHJCOJGIOBIIHHL@$04@0@AAY04$$CBD@Z 10018b10 f i Config.obj
 0001:00017b30       ??$make_encrypted_string@$0?GJHJCOJGIOBIIHHL@$0P@@cx@@YA?AV?$encrypted_string@$0?GJHJCOJGIOBIIHHL@$0P@@0@AAY0P@$$CBD@Z 10018b30 f i Config.obj
 0001:00017b70       ??$make_encrypted_string@$0?GJHJCOJGIOBIIHHK@$04@cx@@YA?AV?$encrypted_string@$0?GJHJCOJGIOBIIHHK@$04@0@AAY04$$CBD@Z 10018b70 f i Config.obj
 0001:00017b90       ??$make_encrypted_string@$0?GJHJCOJGIOBIIHHJ@$04@cx@@YA?AV?$encrypted_string@$0?GJHJCOJGIOBIIHHJ@$04@0@AAY04$$CBD@Z 10018b90 f i Config.obj
 0001:00017bb0       ??$make_encrypted_string@$0?GJHJCOJGIOBIIHHJ@$0M@@cx@@YA?AV?$encrypted_string@$0?GJHJCOJGIOBIIHHJ@$0M@@0@AAY0M@$$CBD@Z 10018bb0 f i Config.obj
 0001:00017bf0       ??$make_encrypted_string@$0?GJHJCOJGIOBIIHHI@$04@cx@@YA?AV?$encrypted_string@$0?GJHJCOJGIOBIIHHI@$04@0@AAY04$$CBD@Z 10018bf0 f i Config.obj
 0001:00017c10       ??$make_encrypted_string@$0?GJHJCOJGIOBIIHHI@$0L@@cx@@YA?AV?$encrypted_string@$0?GJHJCOJGIOBIIHHI@$0L@@0@AAY0L@$$CBD@Z 10018c10 f i Config.obj
 0001:00017c40       ??$make_encrypted_string@$0?GJHJCOJGIOBIIHHH@$04@cx@@YA?AV?$encrypted_string@$0?GJHJCOJGIOBIIHHH@$04@0@AAY04$$CBD@Z 10018c40 f i Config.obj
 0001:00017c60       ??$make_encrypted_string@$0?GJHJCOJGIOBIIHHH@$0N@@cx@@YA?AV?$encrypted_string@$0?GJHJCOJGIOBIIHHH@$0N@@0@AAY0N@$$CBD@Z 10018c60 f i Config.obj
 0001:00017c90       ??$make_encrypted_string@$0?GJHJCOJGIOBIIHHG@$04@cx@@YA?AV?$encrypted_string@$0?GJHJCOJGIOBIIHHG@$04@0@AAY04$$CBD@Z 10018c90 f i Config.obj
 0001:00017cb0       ??$make_encrypted_string@$0?GJHJCOJGIOBIIHHG@$0P@@cx@@YA?AV?$encrypted_string@$0?GJHJCOJGIOBIIHHG@$0P@@0@AAY0P@$$CBD@Z 10018cb0 f i Config.obj
 0001:00017cf0       ??$make_encrypted_string@$0?GJHJCOJGIOBIIHHF@$04@cx@@YA?AV?$encrypted_string@$0?GJHJCOJGIOBIIHHF@$04@0@AAY04$$CBD@Z 10018cf0 f i Config.obj
 0001:00017d10       ??$make_encrypted_string@$0?GJHJCOJGIOBIIHHF@$09@cx@@YA?AV?$encrypted_string@$0?GJHJCOJGIOBIIHHF@$09@0@AAY09$$CBD@Z 10018d10 f i Config.obj
 0001:00017d40       ??$make_encrypted_string@$0?GJHJCOJGIOBIIHHD@$04@cx@@YA?AV?$encrypted_string@$0?GJHJCOJGIOBIIHHD@$04@0@AAY04$$CBD@Z 10018d40 f i Config.obj
 0001:00017d60       ??$make_encrypted_string@$0?GJHJCOJGIOBIIHHD@$05@cx@@YA?AV?$encrypted_string@$0?GJHJCOJGIOBIIHHD@$05@0@AAY05$$CBD@Z 10018d60 f i Config.obj
 0001:00017d90       ??$make_encrypted_string@$0?GJHJCOJGIOBIIHHC@$04@cx@@YA?AV?$encrypted_string@$0?GJHJCOJGIOBIIHHC@$04@0@AAY04$$CBD@Z 10018d90 f i Config.obj
 0001:00017db0       ??$make_encrypted_string@$0?GJHJCOJGIOBIIHHC@$08@cx@@YA?AV?$encrypted_string@$0?GJHJCOJGIOBIIHHC@$08@0@AAY08$$CBD@Z 10018db0 f i Config.obj
 0001:00017e70       ??$make_encrypted_string@$0?GJHJCOJGIOBIIHHB@$04@cx@@YA?AV?$encrypted_string@$0?GJHJCOJGIOBIIHHB@$04@0@AAY04$$CBD@Z 10018e70 f i Config.obj
 0001:00017e90       ??$make_encrypted_string@$0?GJHJCOJGIOBIIHHB@$0N@@cx@@YA?AV?$encrypted_string@$0?GJHJCOJGIOBIIHHB@$0N@@0@AAY0N@$$CBD@Z 10018e90 f i Config.obj
 0001:00017ec0       ??$make_encrypted_string@$0?GJHJCOJGIOBIIHGP@$0N@@cx@@YA?AV?$encrypted_string@$0?GJHJCOJGIOBIIHGP@$0N@@0@AAY0N@$$CBD@Z 10018ec0 f i Config.obj
 0001:00017ef0       ??$make_encrypted_string@$0?GJHJCOJGIOBIIHGO@$07@cx@@YA?AV?$encrypted_string@$0?GJHJCOJGIOBIIHGO@$07@0@AAY07$$CBD@Z 10018ef0 f i Config.obj
 0001:00017f30       ??$make_encrypted_string@$0?GJHJCOJGIOBIIHGO@$04@cx@@YA?AV?$encrypted_string@$0?GJHJCOJGIOBIIHGO@$04@0@AAY04$$CBD@Z 10018f30 f i Config.obj
 0001:00017f50       ??$make_encrypted_string@$0?GJHJCOJGIOBIIHGN@$07@cx@@YA?AV?$encrypted_string@$0?GJHJCOJGIOBIIHGN@$07@0@AAY07$$CBD@Z 10018f50 f i Config.obj
 0001:00017f90       ??$make_encrypted_string@$0?GJHJCOJGIOBIIHGN@$04@cx@@YA?AV?$encrypted_string@$0?GJHJCOJGIOBIIHGN@$04@0@AAY04$$CBD@Z 10018f90 f i Config.obj
 0001:00017fb0       ??$make_encrypted_string@$0?GJHJCOJGIOBIIHGE@$06@cx@@YA?AV?$encrypted_string@$0?GJHJCOJGIOBIIHGE@$06@0@AAY06$$CBD@Z 10018fb0 f i Config.obj
 0001:00017fe0       ??$make_encrypted_string@$0?GJHJCOJGIOBIIHGD@$06@cx@@YA?AV?$encrypted_string@$0?GJHJCOJGIOBIIHGD@$06@0@AAY06$$CBD@Z 10018fe0 f i Config.obj
 0001:00018010       ??$make_encrypted_string@$0?GJHJCOJGIOBIIHGC@$06@cx@@YA?AV?$encrypted_string@$0?GJHJCOJGIOBIIHGC@$06@0@AAY06$$CBD@Z 10019010 f i Config.obj
 0001:00018040       ??$make_encrypted_string@$0?GJHJCOJGIOBIIHGA@$06@cx@@YA?AV?$encrypted_string@$0?GJHJCOJGIOBIIHGA@$06@0@AAY06$$CBD@Z 10019040 f i Config.obj
 0001:00018070       ??$make_encrypted_string@$0?GJHJCOJGIOBIIHFP@$06@cx@@YA?AV?$encrypted_string@$0?GJHJCOJGIOBIIHFP@$06@0@AAY06$$CBD@Z 10019070 f i Config.obj
 0001:000180a0       ??$make_encrypted_string@$0?GJHJCOJGIOBIIHFO@$06@cx@@YA?AV?$encrypted_string@$0?GJHJCOJGIOBIIHFO@$06@0@AAY06$$CBD@Z 100190a0 f i Config.obj
 0001:000180d0       ??$make_encrypted_string@$0?GJHJCOJGIOBIIHFM@$06@cx@@YA?AV?$encrypted_string@$0?GJHJCOJGIOBIIHFM@$06@0@AAY06$$CBD@Z 100190d0 f i Config.obj
 0001:00018100       ??$make_encrypted_string@$0?GJHJCOJGIOBIIHFL@$06@cx@@YA?AV?$encrypted_string@$0?GJHJCOJGIOBIIHFL@$06@0@AAY06$$CBD@Z 10019100 f i Config.obj
 0001:00018130       ??$make_encrypted_string@$0?GJHJCOJGIOBIIHFK@$06@cx@@YA?AV?$encrypted_string@$0?GJHJCOJGIOBIIHFK@$06@0@AAY06$$CBD@Z 10019130 f i Config.obj
 0001:00018160       ??$make_encrypted_string@$0?GJHJCOJGIOBIIHFH@$06@cx@@YA?AV?$encrypted_string@$0?GJHJCOJGIOBIIHFH@$06@0@AAY06$$CBD@Z 10019160 f i Config.obj
 0001:00018190       ??$make_encrypted_string@$0?GJHJCOJGIOBIIHFH@$0L@@cx@@YA?AV?$encrypted_string@$0?GJHJCOJGIOBIIHFH@$0L@@0@AAY0L@$$CBD@Z 10019190 f i Config.obj
 0001:000181c0       ??$make_encrypted_string@$0?GJHJCOJGIOBIIHFG@$06@cx@@YA?AV?$encrypted_string@$0?GJHJCOJGIOBIIHFG@$06@0@AAY06$$CBD@Z 100191c0 f i Config.obj
 0001:000181f0       ??$make_encrypted_string@$0?GJHJCOJGIOBIIHFG@$0L@@cx@@YA?AV?$encrypted_string@$0?GJHJCOJGIOBIIHFG@$0L@@0@AAY0L@$$CBD@Z 100191f0 f i Config.obj
 0001:00018220       ??$make_encrypted_string@$0?GJHJCOJGIOBIIHFF@$06@cx@@YA?AV?$encrypted_string@$0?GJHJCOJGIOBIIHFF@$06@0@AAY06$$CBD@Z 10019220 f i Config.obj
 0001:00018250       ??$make_encrypted_string@$0?GJHJCOJGIOBIIHFF@$0L@@cx@@YA?AV?$encrypted_string@$0?GJHJCOJGIOBIIHFF@$0L@@0@AAY0L@$$CBD@Z 10019250 f i Config.obj
 0001:00018280       ??$make_encrypted_string@$0?GJHJCOJGIOBIIHFD@$06@cx@@YA?AV?$encrypted_string@$0?GJHJCOJGIOBIIHFD@$06@0@AAY06$$CBD@Z 10019280 f i Config.obj
 0001:000182b0       ??$make_encrypted_string@$0?GJHJCOJGIOBIIHFD@$0L@@cx@@YA?AV?$encrypted_string@$0?GJHJCOJGIOBIIHFD@$0L@@0@AAY0L@$$CBD@Z 100192b0 f i Config.obj
 0001:000182e0       ??$make_encrypted_string@$0?GJHJCOJGIOBIIHFC@$06@cx@@YA?AV?$encrypted_string@$0?GJHJCOJGIOBIIHFC@$06@0@AAY06$$CBD@Z 100192e0 f i Config.obj
 0001:00018310       ??$make_encrypted_string@$0?GJHJCOJGIOBIIHFC@$0L@@cx@@YA?AV?$encrypted_string@$0?GJHJCOJGIOBIIHFC@$0L@@0@AAY0L@$$CBD@Z 10019310 f i Config.obj
 0001:00018340       ??$make_encrypted_string@$0?GJHJCOJGIOBIIHFB@$06@cx@@YA?AV?$encrypted_string@$0?GJHJCOJGIOBIIHFB@$06@0@AAY06$$CBD@Z 10019340 f i Config.obj
 0001:00018370       ??$make_encrypted_string@$0?GJHJCOJGIOBIIHFB@$0L@@cx@@YA?AV?$encrypted_string@$0?GJHJCOJGIOBIIHFB@$0L@@0@AAY0L@$$CBD@Z 10019370 f i Config.obj
 0001:000183a0       ??$make_encrypted_string@$0?GJHJCOJGIOBIIHEP@$06@cx@@YA?AV?$encrypted_string@$0?GJHJCOJGIOBIIHEP@$06@0@AAY06$$CBD@Z 100193a0 f i Config.obj
 0001:000183d0       ??$make_encrypted_string@$0?GJHJCOJGIOBIIHEP@$0M@@cx@@YA?AV?$encrypted_string@$0?GJHJCOJGIOBIIHEP@$0M@@0@AAY0M@$$CBD@Z 100193d0 f i Config.obj
 0001:00018410       ??$make_encrypted_string@$0?GJHJCOJGIOBIIHEO@$06@cx@@YA?AV?$encrypted_string@$0?GJHJCOJGIOBIIHEO@$06@0@AAY06$$CBD@Z 10019410 f i Config.obj
 0001:00018440       ??$make_encrypted_string@$0?GJHJCOJGIOBIIHEO@$0M@@cx@@YA?AV?$encrypted_string@$0?GJHJCOJGIOBIIHEO@$0M@@0@AAY0M@$$CBD@Z 10019440 f i Config.obj
 0001:00018480       ??$make_encrypted_string@$0?GJHJCOJGIOBIIHEN@$06@cx@@YA?AV?$encrypted_string@$0?GJHJCOJGIOBIIHEN@$06@0@AAY06$$CBD@Z 10019480 f i Config.obj
 0001:000184b0       ??$make_encrypted_string@$0?GJHJCOJGIOBIIHEN@$0M@@cx@@YA?AV?$encrypted_string@$0?GJHJCOJGIOBIIHEN@$0M@@0@AAY0M@$$CBD@Z 100194b0 f i Config.obj
 0001:000184f0       ??$make_encrypted_string@$0?GJHJCOJGIOBIIHEL@$06@cx@@YA?AV?$encrypted_string@$0?GJHJCOJGIOBIIHEL@$06@0@AAY06$$CBD@Z 100194f0 f i Config.obj
 0001:00018520       ??$make_encrypted_string@$0?GJHJCOJGIOBIIHEL@$0M@@cx@@YA?AV?$encrypted_string@$0?GJHJCOJGIOBIIHEL@$0M@@0@AAY0M@$$CBD@Z 10019520 f i Config.obj
 0001:00018560       ??$make_encrypted_string@$0?GJHJCOJGIOBIIHEK@$06@cx@@YA?AV?$encrypted_string@$0?GJHJCOJGIOBIIHEK@$06@0@AAY06$$CBD@Z 10019560 f i Config.obj
 0001:00018590       ??$make_encrypted_string@$0?GJHJCOJGIOBIIHEK@$0M@@cx@@YA?AV?$encrypted_string@$0?GJHJCOJGIOBIIHEK@$0M@@0@AAY0M@$$CBD@Z 10019590 f i Config.obj
 0001:000185d0       ??$make_encrypted_string@$0?GJHJCOJGIOBIIHEJ@$06@cx@@YA?AV?$encrypted_string@$0?GJHJCOJGIOBIIHEJ@$06@0@AAY06$$CBD@Z 100195d0 f i Config.obj
 0001:00018600       ??$make_encrypted_string@$0?GJHJCOJGIOBIIHEJ@$0M@@cx@@YA?AV?$encrypted_string@$0?GJHJCOJGIOBIIHEJ@$0M@@0@AAY0M@$$CBD@Z 10019600 f i Config.obj
 0001:00018640       ??$make_encrypted_string@$0?GJHJCOJGIOBIIHEF@$09@cx@@YA?AV?$encrypted_string@$0?GJHJCOJGIOBIIHEF@$09@0@AAY09$$CBD@Z 10019640 f i Config.obj
 0001:00018670       ??$make_encrypted_string@$0?GJHJCOJGIOBIIHEF@$0N@@cx@@YA?AV?$encrypted_string@$0?GJHJCOJGIOBIIHEF@$0N@@0@AAY0N@$$CBD@Z 10019670 f i Config.obj
 0001:000186a0       ??$make_encrypted_string@$0?GJHJCOJGIOBIIHEE@$09@cx@@YA?AV?$encrypted_string@$0?GJHJCOJGIOBIIHEE@$09@0@AAY09$$CBD@Z 100196a0 f i Config.obj
 0001:000186d0       ??$make_encrypted_string@$0?GJHJCOJGIOBIIHEE@$0N@@cx@@YA?AV?$encrypted_string@$0?GJHJCOJGIOBIIHEE@$0N@@0@AAY0N@$$CBD@Z 100196d0 f i Config.obj
 0001:00018700       ??$make_encrypted_string@$0?GJHJCOJGIOBIIHED@$09@cx@@YA?AV?$encrypted_string@$0?GJHJCOJGIOBIIHED@$09@0@AAY09$$CBD@Z 10019700 f i Config.obj
 0001:00018730       ??$make_encrypted_string@$0?GJHJCOJGIOBIIHED@$0P@@cx@@YA?AV?$encrypted_string@$0?GJHJCOJGIOBIIHED@$0P@@0@AAY0P@$$CBD@Z 10019730 f i Config.obj
 0001:00018770       ??$make_encrypted_string@$0?GJHJCOJGIOBIIHEC@$09@cx@@YA?AV?$encrypted_string@$0?GJHJCOJGIOBIIHEC@$09@0@AAY09$$CBD@Z 10019770 f i Config.obj
 0001:000187a0       ??$make_encrypted_string@$0?GJHJCOJGIOBIIHEC@$0O@@cx@@YA?AV?$encrypted_string@$0?GJHJCOJGIOBIIHEC@$0O@@0@AAY0O@$$CBD@Z 100197a0 f i Config.obj
 0001:000187e0       ??$make_encrypted_string@$0?GJHJCOJGIOBIIHEB@$09@cx@@YA?AV?$encrypted_string@$0?GJHJCOJGIOBIIHEB@$09@0@AAY09$$CBD@Z 100197e0 f i Config.obj
 0001:00018810       ??$make_encrypted_string@$0?GJHJCOJGIOBIIHEB@$0N@@cx@@YA?AV?$encrypted_string@$0?GJHJCOJGIOBIIHEB@$0N@@0@AAY0N@$$CBD@Z 10019810 f i Config.obj
 0001:00018840       ??$make_encrypted_string@$0?GJHJCOJGIOBIIHEA@$09@cx@@YA?AV?$encrypted_string@$0?GJHJCOJGIOBIIHEA@$09@0@AAY09$$CBD@Z 10019840 f i Config.obj
 0001:00018870       ??$make_encrypted_string@$0?GJHJCOJGIOBIIHEA@$0N@@cx@@YA?AV?$encrypted_string@$0?GJHJCOJGIOBIIHEA@$0N@@0@AAY0N@$$CBD@Z 10019870 f i Config.obj
 0001:000188a0       ??$make_encrypted_string@$0?GJHJCOJGIOBIIHDO@$05@cx@@YA?AV?$encrypted_string@$0?GJHJCOJGIOBIIHDO@$05@0@AAY05$$CBD@Z 100198a0 f i Config.obj
 0001:000188d0       ??$make_encrypted_string@$0?GJHJCOJGIOBIIHDO@$0L@@cx@@YA?AV?$encrypted_string@$0?GJHJCOJGIOBIIHDO@$0L@@0@AAY0L@$$CBD@Z 100198d0 f i Config.obj
 0001:00018900       ??$make_encrypted_string@$0?GJHJCOJGIOBIIHDN@$05@cx@@YA?AV?$encrypted_string@$0?GJHJCOJGIOBIIHDN@$05@0@AAY05$$CBD@Z 10019900 f i Config.obj
 0001:00018930       ??$make_encrypted_string@$0?GJHJCOJGIOBIIHDN@$09@cx@@YA?AV?$encrypted_string@$0?GJHJCOJGIOBIIHDN@$09@0@AAY09$$CBD@Z 10019930 f i Config.obj
 0001:00018960       ??$make_encrypted_string@$0?GJHJCOJGIOBIIHDM@$05@cx@@YA?AV?$encrypted_string@$0?GJHJCOJGIOBIIHDM@$05@0@AAY05$$CBD@Z 10019960 f i Config.obj
 0001:00018990       ??$make_encrypted_string@$0?GJHJCOJGIOBIIHDM@$0L@@cx@@YA?AV?$encrypted_string@$0?GJHJCOJGIOBIIHDM@$0L@@0@AAY0L@$$CBD@Z 10019990 f i Config.obj
 0001:000189c0       ??$make_encrypted_string@$0?GJHJCOJGIOBIIHDK@$07@cx@@YA?AV?$encrypted_string@$0?GJHJCOJGIOBIIHDK@$07@0@AAY07$$CBD@Z 100199c0 f i Config.obj
 0001:00018a00       ??$make_encrypted_string@$0?GJHJCOJGIOBIIHDK@$0O@@cx@@YA?AV?$encrypted_string@$0?GJHJCOJGIOBIIHDK@$0O@@0@AAY0O@$$CBD@Z 10019a00 f i Config.obj
 0001:00018a40       ??$make_encrypted_string@$0?GJHJCOJGIOBIIHDJ@$07@cx@@YA?AV?$encrypted_string@$0?GJHJCOJGIOBIIHDJ@$07@0@AAY07$$CBD@Z 10019a40 f i Config.obj
 0001:00018a80       ??$make_encrypted_string@$0?GJHJCOJGIOBIIHDJ@$0P@@cx@@YA?AV?$encrypted_string@$0?GJHJCOJGIOBIIHDJ@$0P@@0@AAY0P@$$CBD@Z 10019a80 f i Config.obj
 0001:00018ac0       ??$make_encrypted_string@$0?GJHJCOJGIOBIIHDI@$04@cx@@YA?AV?$encrypted_string@$0?GJHJCOJGIOBIIHDI@$04@0@AAY04$$CBD@Z 10019ac0 f i Config.obj
 0001:00018ae0       ??$make_encrypted_string@$0?GJHJCOJGIOBIIHDI@$0L@@cx@@YA?AV?$encrypted_string@$0?GJHJCOJGIOBIIHDI@$0L@@0@AAY0L@$$CBD@Z 10019ae0 f i Config.obj
 0001:00018b10       ??$make_encrypted_string@$0?GJHJCOJGIOBIIHDH@$07@cx@@YA?AV?$encrypted_string@$0?GJHJCOJGIOBIIHDH@$07@0@AAY07$$CBD@Z 10019b10 f i Config.obj
 0001:00018b50       ??$make_encrypted_string@$0?GJHJCOJGIOBIIHDH@$0O@@cx@@YA?AV?$encrypted_string@$0?GJHJCOJGIOBIIHDH@$0O@@0@AAY0O@$$CBD@Z 10019b50 f i Config.obj
 0001:00018b90       ??$make_encrypted_string@$0?GJHJCOJGIOBIIHDG@$07@cx@@YA?AV?$encrypted_string@$0?GJHJCOJGIOBIIHDG@$07@0@AAY07$$CBD@Z 10019b90 f i Config.obj
 0001:00018bd0       ??$make_encrypted_string@$0?GJHJCOJGIOBIIHDG@$0M@@cx@@YA?AV?$encrypted_string@$0?GJHJCOJGIOBIIHDG@$0M@@0@AAY0M@$$CBD@Z 10019bd0 f i Config.obj
 0001:00018c10       ??$make_encrypted_string@$0?GJHJCOJGIOBIIHDF@$07@cx@@YA?AV?$encrypted_string@$0?GJHJCOJGIOBIIHDF@$07@0@AAY07$$CBD@Z 10019c10 f i Config.obj
 0001:00018c50       ??$make_encrypted_string@$0?GJHJCOJGIOBIIHDF@$0M@@cx@@YA?AV?$encrypted_string@$0?GJHJCOJGIOBIIHDF@$0M@@0@AAY0M@$$CBD@Z 10019c50 f i Config.obj
 0001:00018c90       ??$make_encrypted_string@$0?GJHJCOJGIOBIIHDE@$07@cx@@YA?AV?$encrypted_string@$0?GJHJCOJGIOBIIHDE@$07@0@AAY07$$CBD@Z 10019c90 f i Config.obj
 0001:00018cd0       ??$make_encrypted_string@$0?GJHJCOJGIOBIIHDE@$04@cx@@YA?AV?$encrypted_string@$0?GJHJCOJGIOBIIHDE@$04@0@AAY04$$CBD@Z 10019cd0 f i Config.obj
 0001:00018cf0       ??$make_encrypted_string@$0?GJHJCOJGIOBIIHDD@$07@cx@@YA?AV?$encrypted_string@$0?GJHJCOJGIOBIIHDD@$07@0@AAY07$$CBD@Z 10019cf0 f i Config.obj
 0001:00018d30       ??$_Emplace_reallocate@ABV?$basic_string@DU?$char_traits@D@std@@V?$allocator@D@2@@std@@@?$vector@V?$basic_string@DU?$char_traits@D@std@@V?$allocator@D@2@@std@@V?$allocator@V?$basic_string@DU?$char_traits@D@std@@V?$allocator@D@2@@std@@@2@@std@@QAEPAV?$basic_string@DU?$char_traits@D@std@@V?$allocator@D@2@@1@QAV21@ABV21@@Z 10019d30 f i Config.obj
 0001:00018f30       ??$getline@DU?$char_traits@D@std@@V?$allocator@D@2@@std@@YAAAV?$basic_istream@DU?$char_traits@D@std@@@0@$$QAV10@AAV?$basic_string@DU?$char_traits@D@std@@V?$allocator@D@2@@0@D@Z 10019f30 f i Config.obj
 0001:000190f0       ??$encrypt@$0?GJHJCOJGIOBIIHDD@$0A@$00$01$02$03$04$05@detail@cx@@YA?AU?$char_array@$06@01@PBDU?$integer_sequence@I$0A@$00$01$02$03$04$05@std@@@Z 1001a0f0 f i Config.obj
 0001:00019170       ??$encrypt@$0?GJHJCOJGIOBIIHDE@$0A@$00$01$02@detail@cx@@YA?AU?$char_array@$03@01@PBDU?$integer_sequence@I$0A@$00$01$02@std@@@Z 1001a170 f i Config.obj
 0001:000191d0       ??$encrypt@$0?GJHJCOJGIOBIIHDE@$0A@$00$01$02$03$04$05@detail@cx@@YA?AU?$char_array@$06@01@PBDU?$integer_sequence@I$0A@$00$01$02$03$04$05@std@@@Z 1001a1d0 f i Config.obj
 0001:00019260       ??$encrypt@$0?GJHJCOJGIOBIIHDF@$0A@$00$01$02$03$04$05$06$07$08$09@detail@cx@@YA?AU?$char_array@$0L@@01@PBDU?$integer_sequence@I$0A@$00$01$02$03$04$05$06$07$08$09@std@@@Z 1001a260 f i Config.obj
 0001:00019340       ??$encrypt@$0?GJHJCOJGIOBIIHDF@$0A@$00$01$02$03$04$05@detail@cx@@YA?AU?$char_array@$06@01@PBDU?$integer_sequence@I$0A@$00$01$02$03$04$05@std@@@Z 1001a340 f i Config.obj
 0001:000193d0       ??$encrypt@$0?GJHJCOJGIOBIIHDG@$0A@$00$01$02$03$04$05$06$07$08$09@detail@cx@@YA?AU?$char_array@$0L@@01@PBDU?$integer_sequence@I$0A@$00$01$02$03$04$05$06$07$08$09@std@@@Z 1001a3d0 f i Config.obj
 0001:000194b0       ??$encrypt@$0?GJHJCOJGIOBIIHDG@$0A@$00$01$02$03$04$05@detail@cx@@YA?AU?$char_array@$06@01@PBDU?$integer_sequence@I$0A@$00$01$02$03$04$05@std@@@Z 1001a4b0 f i Config.obj
 0001:00019540       ??$encrypt@$0?GJHJCOJGIOBIIHDH@$0A@$00$01$02$03$04$05$06$07$08$09$0L@$0M@@detail@cx@@YA?AU?$char_array@$0N@@01@PBDU?$integer_sequence@I$0A@$00$01$02$03$04$05$06$07$08$09$0L@$0M@@std@@@Z 1001a540 f i Config.obj
 0001:00019640       ??$encrypt@$0?GJHJCOJGIOBIIHDH@$0A@$00$01$02$03$04$05@detail@cx@@YA?AU?$char_array@$06@01@PBDU?$integer_sequence@I$0A@$00$01$02$03$04$05@std@@@Z 1001a640 f i Config.obj
 0001:000196d0       ??$encrypt@$0?GJHJCOJGIOBIIHDI@$0A@$00$01$02$03$04$05$06$07$08@detail@cx@@YA?AU?$char_array@$09@01@PBDU?$integer_sequence@I$0A@$00$01$02$03$04$05$06$07$08@std@@@Z 1001a6d0 f i Config.obj
 0001:000197a0       ??$encrypt@$0?GJHJCOJGIOBIIHDI@$0A@$00$01$02@detail@cx@@YA?AU?$char_array@$03@01@PBDU?$integer_sequence@I$0A@$00$01$02@std@@@Z 1001a7a0 f i Config.obj
 0001:00019800       ??$encrypt@$0?GJHJCOJGIOBIIHDJ@$0A@$00$01$02$03$04$05$06$07$08$09$0L@$0M@$0N@@detail@cx@@YA?AU?$char_array@$0O@@01@PBDU?$integer_sequence@I$0A@$00$01$02$03$04$05$06$07$08$09$0L@$0M@$0N@@std@@@Z 1001a800 f i Config.obj
 0001:00019910       ??$encrypt@$0?GJHJCOJGIOBIIHDJ@$0A@$00$01$02$03$04$05@detail@cx@@YA?AU?$char_array@$06@01@PBDU?$integer_sequence@I$0A@$00$01$02$03$04$05@std@@@Z 1001a910 f i Config.obj
 0001:000199a0       ??$encrypt@$0?GJHJCOJGIOBIIHDK@$0A@$00$01$02$03$04$05$06$07$08$09$0L@$0M@@detail@cx@@YA?AU?$char_array@$0N@@01@PBDU?$integer_sequence@I$0A@$00$01$02$03$04$05$06$07$08$09$0L@$0M@@std@@@Z 1001a9a0 f i Config.obj
 0001:00019aa0       ??$encrypt@$0?GJHJCOJGIOBIIHDK@$0A@$00$01$02$03$04$05@detail@cx@@YA?AU?$char_array@$06@01@PBDU?$integer_sequence@I$0A@$00$01$02$03$04$05@std@@@Z 1001aaa0 f i Config.obj
 0001:00019b30       ??$encrypt@$0?GJHJCOJGIOBIIHDM@$0A@$00$01$02$03$04$05$06$07$08@detail@cx@@YA?AU?$char_array@$09@01@PBDU?$integer_sequence@I$0A@$00$01$02$03$04$05$06$07$08@std@@@Z 1001ab30 f i Config.obj
 0001:00019c00       ??$encrypt@$0?GJHJCOJGIOBIIHDM@$0A@$00$01$02$03@detail@cx@@YA?AU?$char_array@$04@01@PBDU?$integer_sequence@I$0A@$00$01$02$03@std@@@Z 1001ac00 f i Config.obj
 0001:00019c70       ??$encrypt@$0?GJHJCOJGIOBIIHDN@$0A@$00$01$02$03$04$05$06$07@detail@cx@@YA?AU?$char_array@$08@01@PBDU?$integer_sequence@I$0A@$00$01$02$03$04$05$06$07@std@@@Z 1001ac70 f i Config.obj
 0001:00019d20       ??$encrypt@$0?GJHJCOJGIOBIIHDN@$0A@$00$01$02$03@detail@cx@@YA?AU?$char_array@$04@01@PBDU?$integer_sequence@I$0A@$00$01$02$03@std@@@Z 1001ad20 f i Config.obj
 0001:00019d90       ??$encrypt@$0?GJHJCOJGIOBIIHDO@$0A@$00$01$02$03$04$05$06$07$08@detail@cx@@YA?AU?$char_array@$09@01@PBDU?$integer_sequence@I$0A@$00$01$02$03$04$05$06$07$08@std@@@Z 1001ad90 f i Config.obj
 0001:00019e60       ??$encrypt@$0?GJHJCOJGIOBIIHDO@$0A@$00$01$02$03@detail@cx@@YA?AU?$char_array@$04@01@PBDU?$integer_sequence@I$0A@$00$01$02$03@std@@@Z 1001ae60 f i Config.obj
 0001:00019ed0       ??$encrypt@$0?GJHJCOJGIOBIIHEA@$0A@$00$01$02$03$04$05$06$07$08$09$0L@@detail@cx@@YA?AU?$char_array@$0M@@01@PBDU?$integer_sequence@I$0A@$00$01$02$03$04$05$06$07$08$09$0L@@std@@@Z 1001aed0 f i Config.obj
 0001:00019fc0       ??$encrypt@$0?GJHJCOJGIOBIIHEA@$0A@$00$01$02$03$04$05$06$07@detail@cx@@YA?AU?$char_array@$08@01@PBDU?$integer_sequence@I$0A@$00$01$02$03$04$05$06$07@std@@@Z 1001afc0 f i Config.obj
 0001:0001a070       ??$encrypt@$0?GJHJCOJGIOBIIHEB@$0A@$00$01$02$03$04$05$06$07$08$09$0L@@detail@cx@@YA?AU?$char_array@$0M@@01@PBDU?$integer_sequence@I$0A@$00$01$02$03$04$05$06$07$08$09$0L@@std@@@Z 1001b070 f i Config.obj
 0001:0001a160       ??$encrypt@$0?GJHJCOJGIOBIIHEB@$0A@$00$01$02$03$04$05$06$07@detail@cx@@YA?AU?$char_array@$08@01@PBDU?$integer_sequence@I$0A@$00$01$02$03$04$05$06$07@std@@@Z 1001b160 f i Config.obj
 0001:0001a210       ??$encrypt@$0?GJHJCOJGIOBIIHEC@$0A@$00$01$02$03$04$05$06$07$08$09$0L@$0M@@detail@cx@@YA?AU?$char_array@$0N@@01@PBDU?$integer_sequence@I$0A@$00$01$02$03$04$05$06$07$08$09$0L@$0M@@std@@@Z 1001b210 f i Config.obj
 0001:0001a310       ??$encrypt@$0?GJHJCOJGIOBIIHEC@$0A@$00$01$02$03$04$05$06$07@detail@cx@@YA?AU?$char_array@$08@01@PBDU?$integer_sequence@I$0A@$00$01$02$03$04$05$06$07@std@@@Z 1001b310 f i Config.obj
 0001:0001a3c0       ??$encrypt@$0?GJHJCOJGIOBIIHED@$0A@$00$01$02$03$04$05$06$07$08$09$0L@$0M@$0N@@detail@cx@@YA?AU?$char_array@$0O@@01@PBDU?$integer_sequence@I$0A@$00$01$02$03$04$05$06$07$08$09$0L@$0M@$0N@@std@@@Z 1001b3c0 f i Config.obj
 0001:0001a4d0       ??$encrypt@$0?GJHJCOJGIOBIIHED@$0A@$00$01$02$03$04$05$06$07@detail@cx@@YA?AU?$char_array@$08@01@PBDU?$integer_sequence@I$0A@$00$01$02$03$04$05$06$07@std@@@Z 1001b4d0 f i Config.obj
 0001:0001a580       ??$encrypt@$0?GJHJCOJGIOBIIHEE@$0A@$00$01$02$03$04$05$06$07$08$09$0L@@detail@cx@@YA?AU?$char_array@$0M@@01@PBDU?$integer_sequence@I$0A@$00$01$02$03$04$05$06$07$08$09$0L@@std@@@Z 1001b580 f i Config.obj
 0001:0001a670       ??$encrypt@$0?GJHJCOJGIOBIIHEE@$0A@$00$01$02$03$04$05$06$07@detail@cx@@YA?AU?$char_array@$08@01@PBDU?$integer_sequence@I$0A@$00$01$02$03$04$05$06$07@std@@@Z 1001b670 f i Config.obj
 0001:0001a720       ??$encrypt@$0?GJHJCOJGIOBIIHEF@$0A@$00$01$02$03$04$05$06$07$08$09$0L@@detail@cx@@YA?AU?$char_array@$0M@@01@PBDU?$integer_sequence@I$0A@$00$01$02$03$04$05$06$07$08$09$0L@@std@@@Z 1001b720 f i Config.obj
 0001:0001a810       ??$encrypt@$0?GJHJCOJGIOBIIHEF@$0A@$00$01$02$03$04$05$06$07@detail@cx@@YA?AU?$char_array@$08@01@PBDU?$integer_sequence@I$0A@$00$01$02$03$04$05$06$07@std@@@Z 1001b810 f i Config.obj
 0001:0001a8c0       ??$encrypt@$0?GJHJCOJGIOBIIHEJ@$0A@$00$01$02$03$04$05$06$07$08$09@detail@cx@@YA?AU?$char_array@$0L@@01@PBDU?$integer_sequence@I$0A@$00$01$02$03$04$05$06$07$08$09@std@@@Z 1001b8c0 f i Config.obj
 0001:0001a9a0       ??$encrypt@$0?GJHJCOJGIOBIIHEJ@$0A@$00$01$02$03$04@detail@cx@@YA?AU?$char_array@$05@01@PBDU?$integer_sequence@I$0A@$00$01$02$03$04@std@@@Z 1001b9a0 f i Config.obj
 0001:0001aa20       ??$encrypt@$0?GJHJCOJGIOBIIHEK@$0A@$00$01$02$03$04$05$06$07$08$09@detail@cx@@YA?AU?$char_array@$0L@@01@PBDU?$integer_sequence@I$0A@$00$01$02$03$04$05$06$07$08$09@std@@@Z 1001ba20 f i Config.obj
 0001:0001ab00       ??$encrypt@$0?GJHJCOJGIOBIIHEK@$0A@$00$01$02$03$04@detail@cx@@YA?AU?$char_array@$05@01@PBDU?$integer_sequence@I$0A@$00$01$02$03$04@std@@@Z 1001bb00 f i Config.obj
 0001:0001ab80       ??$encrypt@$0?GJHJCOJGIOBIIHEL@$0A@$00$01$02$03$04$05$06$07$08$09@detail@cx@@YA?AU?$char_array@$0L@@01@PBDU?$integer_sequence@I$0A@$00$01$02$03$04$05$06$07$08$09@std@@@Z 1001bb80 f i Config.obj
 0001:0001ac60       ??$encrypt@$0?GJHJCOJGIOBIIHEL@$0A@$00$01$02$03$04@detail@cx@@YA?AU?$char_array@$05@01@PBDU?$integer_sequence@I$0A@$00$01$02$03$04@std@@@Z 1001bc60 f i Config.obj
 0001:0001ace0       ??$encrypt@$0?GJHJCOJGIOBIIHEN@$0A@$00$01$02$03$04$05$06$07$08$09@detail@cx@@YA?AU?$char_array@$0L@@01@PBDU?$integer_sequence@I$0A@$00$01$02$03$04$05$06$07$08$09@std@@@Z 1001bce0 f i Config.obj
 0001:0001adc0       ??$encrypt@$0?GJHJCOJGIOBIIHEN@$0A@$00$01$02$03$04@detail@cx@@YA?AU?$char_array@$05@01@PBDU?$integer_sequence@I$0A@$00$01$02$03$04@std@@@Z 1001bdc0 f i Config.obj
 0001:0001ae40       ??$encrypt@$0?GJHJCOJGIOBIIHEO@$0A@$00$01$02$03$04$05$06$07$08$09@detail@cx@@YA?AU?$char_array@$0L@@01@PBDU?$integer_sequence@I$0A@$00$01$02$03$04$05$06$07$08$09@std@@@Z 1001be40 f i Config.obj
 0001:0001af20       ??$encrypt@$0?GJHJCOJGIOBIIHEO@$0A@$00$01$02$03$04@detail@cx@@YA?AU?$char_array@$05@01@PBDU?$integer_sequence@I$0A@$00$01$02$03$04@std@@@Z 1001bf20 f i Config.obj
 0001:0001afa0       ??$encrypt@$0?GJHJCOJGIOBIIHEP@$0A@$00$01$02$03$04$05$06$07$08$09@detail@cx@@YA?AU?$char_array@$0L@@01@PBDU?$integer_sequence@I$0A@$00$01$02$03$04$05$06$07$08$09@std@@@Z 1001bfa0 f i Config.obj
 0001:0001b080       ??$encrypt@$0?GJHJCOJGIOBIIHEP@$0A@$00$01$02$03$04@detail@cx@@YA?AU?$char_array@$05@01@PBDU?$integer_sequence@I$0A@$00$01$02$03$04@std@@@Z 1001c080 f i Config.obj
 0001:0001b100       ??$encrypt@$0?GJHJCOJGIOBIIHFB@$0A@$00$01$02$03$04$05$06$07$08@detail@cx@@YA?AU?$char_array@$09@01@PBDU?$integer_sequence@I$0A@$00$01$02$03$04$05$06$07$08@std@@@Z 1001c100 f i Config.obj
 0001:0001b1d0       ??$encrypt@$0?GJHJCOJGIOBIIHFB@$0A@$00$01$02$03$04@detail@cx@@YA?AU?$char_array@$05@01@PBDU?$integer_sequence@I$0A@$00$01$02$03$04@std@@@Z 1001c1d0 f i Config.obj
 0001:0001b250       ??$encrypt@$0?GJHJCOJGIOBIIHFC@$0A@$00$01$02$03$04$05$06$07$08@detail@cx@@YA?AU?$char_array@$09@01@PBDU?$integer_sequence@I$0A@$00$01$02$03$04$05$06$07$08@std@@@Z 1001c250 f i Config.obj
 0001:0001b320       ??$encrypt@$0?GJHJCOJGIOBIIHFC@$0A@$00$01$02$03$04@detail@cx@@YA?AU?$char_array@$05@01@PBDU?$integer_sequence@I$0A@$00$01$02$03$04@std@@@Z 1001c320 f i Config.obj
 0001:0001b3a0       ??$encrypt@$0?GJHJCOJGIOBIIHFD@$0A@$00$01$02$03$04$05$06$07$08@detail@cx@@YA?AU?$char_array@$09@01@PBDU?$integer_sequence@I$0A@$00$01$02$03$04$05$06$07$08@std@@@Z 1001c3a0 f i Config.obj
 0001:0001b470       ??$encrypt@$0?GJHJCOJGIOBIIHFD@$0A@$00$01$02$03$04@detail@cx@@YA?AU?$char_array@$05@01@PBDU?$integer_sequence@I$0A@$00$01$02$03$04@std@@@Z 1001c470 f i Config.obj
 0001:0001b4f0       ??$encrypt@$0?GJHJCOJGIOBIIHFF@$0A@$00$01$02$03$04$05$06$07$08@detail@cx@@YA?AU?$char_array@$09@01@PBDU?$integer_sequence@I$0A@$00$01$02$03$04$05$06$07$08@std@@@Z 1001c4f0 f i Config.obj
 0001:0001b5c0       ??$encrypt@$0?GJHJCOJGIOBIIHFF@$0A@$00$01$02$03$04@detail@cx@@YA?AU?$char_array@$05@01@PBDU?$integer_sequence@I$0A@$00$01$02$03$04@std@@@Z 1001c5c0 f i Config.obj
 0001:0001b640       ??$encrypt@$0?GJHJCOJGIOBIIHFG@$0A@$00$01$02$03$04$05$06$07$08@detail@cx@@YA?AU?$char_array@$09@01@PBDU?$integer_sequence@I$0A@$00$01$02$03$04$05$06$07$08@std@@@Z 1001c640 f i Config.obj
 0001:0001b710       ??$encrypt@$0?GJHJCOJGIOBIIHFG@$0A@$00$01$02$03$04@detail@cx@@YA?AU?$char_array@$05@01@PBDU?$integer_sequence@I$0A@$00$01$02$03$04@std@@@Z 1001c710 f i Config.obj
 0001:0001b790       ??$encrypt@$0?GJHJCOJGIOBIIHFH@$0A@$00$01$02$03$04$05$06$07$08@detail@cx@@YA?AU?$char_array@$09@01@PBDU?$integer_sequence@I$0A@$00$01$02$03$04$05$06$07$08@std@@@Z 1001c790 f i Config.obj
 0001:0001b860       ??$encrypt@$0?GJHJCOJGIOBIIHFH@$0A@$00$01$02$03$04@detail@cx@@YA?AU?$char_array@$05@01@PBDU?$integer_sequence@I$0A@$00$01$02$03$04@std@@@Z 1001c860 f i Config.obj
 0001:0001b8e0       ??$encrypt@$0?GJHJCOJGIOBIIHFK@$0A@$00$01$02$03$04@detail@cx@@YA?AU?$char_array@$05@01@PBDU?$integer_sequence@I$0A@$00$01$02$03$04@std@@@Z 1001c8e0 f i Config.obj
 0001:0001b950       ??$encrypt@$0?GJHJCOJGIOBIIHFL@$0A@$00$01$02$03$04@detail@cx@@YA?AU?$char_array@$05@01@PBDU?$integer_sequence@I$0A@$00$01$02$03$04@std@@@Z 1001c950 f i Config.obj
 0001:0001b9c0       ??$encrypt@$0?GJHJCOJGIOBIIHFM@$0A@$00$01$02$03$04@detail@cx@@YA?AU?$char_array@$05@01@PBDU?$integer_sequence@I$0A@$00$01$02$03$04@std@@@Z 1001c9c0 f i Config.obj
 0001:0001ba30       ??$encrypt@$0?GJHJCOJGIOBIIHFO@$0A@$00$01$02$03$04@detail@cx@@YA?AU?$char_array@$05@01@PBDU?$integer_sequence@I$0A@$00$01$02$03$04@std@@@Z 1001ca30 f i Config.obj
 0001:0001baa0       ??$encrypt@$0?GJHJCOJGIOBIIHFP@$0A@$00$01$02$03$04@detail@cx@@YA?AU?$char_array@$05@01@PBDU?$integer_sequence@I$0A@$00$01$02$03$04@std@@@Z 1001caa0 f i Config.obj
 0001:0001bb10       ??$encrypt@$0?GJHJCOJGIOBIIHGA@$0A@$00$01$02$03$04@detail@cx@@YA?AU?$char_array@$05@01@PBDU?$integer_sequence@I$0A@$00$01$02$03$04@std@@@Z 1001cb10 f i Config.obj
 0001:0001bb80       ??$encrypt@$0?GJHJCOJGIOBIIHGC@$0A@$00$01$02$03$04@detail@cx@@YA?AU?$char_array@$05@01@PBDU?$integer_sequence@I$0A@$00$01$02$03$04@std@@@Z 1001cb80 f i Config.obj
 0001:0001bbf0       ??$encrypt@$0?GJHJCOJGIOBIIHGD@$0A@$00$01$02$03$04@detail@cx@@YA?AU?$char_array@$05@01@PBDU?$integer_sequence@I$0A@$00$01$02$03$04@std@@@Z 1001cbf0 f i Config.obj
 0001:0001bc60       ??$encrypt@$0?GJHJCOJGIOBIIHGE@$0A@$00$01$02$03$04@detail@cx@@YA?AU?$char_array@$05@01@PBDU?$integer_sequence@I$0A@$00$01$02$03$04@std@@@Z 1001cc60 f i Config.obj
 0001:0001bcd0       ??$encrypt@$0?GJHJCOJGIOBIIHGN@$0A@$00$01$02@detail@cx@@YA?AU?$char_array@$03@01@PBDU?$integer_sequence@I$0A@$00$01$02@std@@@Z 1001ccd0 f i Config.obj
 0001:0001bd30       ??$encrypt@$0?GJHJCOJGIOBIIHGN@$0A@$00$01$02$03$04$05@detail@cx@@YA?AU?$char_array@$06@01@PBDU?$integer_sequence@I$0A@$00$01$02$03$04$05@std@@@Z 1001cd30 f i Config.obj
 0001:0001bdc0       ??$encrypt@$0?GJHJCOJGIOBIIHGO@$0A@$00$01$02@detail@cx@@YA?AU?$char_array@$03@01@PBDU?$integer_sequence@I$0A@$00$01$02@std@@@Z 1001cdc0 f i Config.obj
 0001:0001be20       ??$encrypt@$0?GJHJCOJGIOBIIHGO@$0A@$00$01$02$03$04$05@detail@cx@@YA?AU?$char_array@$06@01@PBDU?$integer_sequence@I$0A@$00$01$02$03$04$05@std@@@Z 1001ce20 f i Config.obj
 0001:0001beb0       ??$encrypt@$0?GJHJCOJGIOBIIHGP@$0A@$00$01$02$03$04$05$06$07$08$09$0L@@detail@cx@@YA?AU?$char_array@$0M@@01@PBDU?$integer_sequence@I$0A@$00$01$02$03$04$05$06$07$08$09$0L@@std@@@Z 1001ceb0 f i Config.obj
 0001:0001bf70       ??$encrypt@$0?GJHJCOJGIOBIIHHB@$0A@$00$01$02$03$04$05$06$07$08$09$0L@@detail@cx@@YA?AU?$char_array@$0M@@01@PBDU?$integer_sequence@I$0A@$00$01$02$03$04$05$06$07$08$09$0L@@std@@@Z 1001cf70 f i Config.obj
 0001:0001c060       ??$encrypt@$0?GJHJCOJGIOBIIHHB@$0A@$00$01$02@detail@cx@@YA?AU?$char_array@$03@01@PBDU?$integer_sequence@I$0A@$00$01$02@std@@@Z 1001d060 f i Config.obj
 0001:0001c0c0       ??$encrypt@$0?GJHJCOJGIOBIIHHC@$0A@$00$01$02@detail@cx@@YA?AU?$char_array@$03@01@PBDU?$integer_sequence@I$0A@$00$01$02@std@@@Z 1001d0c0 f i Config.obj
 0001:0001c120       ??$encrypt@$0?GJHJCOJGIOBIIHHD@$0A@$00$01$02$03@detail@cx@@YA?AU?$char_array@$04@01@PBDU?$integer_sequence@I$0A@$00$01$02$03@std@@@Z 1001d120 f i Config.obj
 0001:0001c190       ??$encrypt@$0?GJHJCOJGIOBIIHHD@$0A@$00$01$02@detail@cx@@YA?AU?$char_array@$03@01@PBDU?$integer_sequence@I$0A@$00$01$02@std@@@Z 1001d190 f i Config.obj
 0001:0001c1f0       ??$encrypt@$0?GJHJCOJGIOBIIHHF@$0A@$00$01$02$03$04$05$06$07@detail@cx@@YA?AU?$char_array@$08@01@PBDU?$integer_sequence@I$0A@$00$01$02$03$04$05$06$07@std@@@Z 1001d1f0 f i Config.obj
 0001:0001c2a0       ??$encrypt@$0?GJHJCOJGIOBIIHHF@$0A@$00$01$02@detail@cx@@YA?AU?$char_array@$03@01@PBDU?$integer_sequence@I$0A@$00$01$02@std@@@Z 1001d2a0 f i Config.obj
 0001:0001c300       ??$encrypt@$0?GJHJCOJGIOBIIHHG@$0A@$00$01$02$03$04$05$06$07$08$09$0L@$0M@$0N@@detail@cx@@YA?AU?$char_array@$0O@@01@PBDU?$integer_sequence@I$0A@$00$01$02$03$04$05$06$07$08$09$0L@$0M@$0N@@std@@@Z 1001d300 f i Config.obj
 0001:0001c410       ??$encrypt@$0?GJHJCOJGIOBIIHHG@$0A@$00$01$02@detail@cx@@YA?AU?$char_array@$03@01@PBDU?$integer_sequence@I$0A@$00$01$02@std@@@Z 1001d410 f i Config.obj
 0001:0001c470       ??$encrypt@$0?GJHJCOJGIOBIIHHH@$0A@$00$01$02$03$04$05$06$07$08$09$0L@@detail@cx@@YA?AU?$char_array@$0M@@01@PBDU?$integer_sequence@I$0A@$00$01$02$03$04$05$06$07$08$09$0L@@std@@@Z 1001d470 f i Config.obj
 0001:0001c560       ??$encrypt@$0?GJHJCOJGIOBIIHHH@$0A@$00$01$02@detail@cx@@YA?AU?$char_array@$03@01@PBDU?$integer_sequence@I$0A@$00$01$02@std@@@Z 1001d560 f i Config.obj
 0001:0001c5c0       ??$encrypt@$0?GJHJCOJGIOBIIHHI@$0A@$00$01$02$03$04$05$06$07$08@detail@cx@@YA?AU?$char_array@$09@01@PBDU?$integer_sequence@I$0A@$00$01$02$03$04$05$06$07$08@std@@@Z 1001d5c0 f i Config.obj
 0001:0001c690       ??$encrypt@$0?GJHJCOJGIOBIIHHI@$0A@$00$01$02@detail@cx@@YA?AU?$char_array@$03@01@PBDU?$integer_sequence@I$0A@$00$01$02@std@@@Z 1001d690 f i Config.obj
 0001:0001c6f0       ??$encrypt@$0?GJHJCOJGIOBIIHHJ@$0A@$00$01$02$03$04$05$06$07$08$09@detail@cx@@YA?AU?$char_array@$0L@@01@PBDU?$integer_sequence@I$0A@$00$01$02$03$04$05$06$07$08$09@std@@@Z 1001d6f0 f i Config.obj
 0001:0001c7d0       ??$encrypt@$0?GJHJCOJGIOBIIHHJ@$0A@$00$01$02@detail@cx@@YA?AU?$char_array@$03@01@PBDU?$integer_sequence@I$0A@$00$01$02@std@@@Z 1001d7d0 f i Config.obj
 0001:0001c830       ??$encrypt@$0?GJHJCOJGIOBIIHHK@$0A@$00$01$02@detail@cx@@YA?AU?$char_array@$03@01@PBDU?$integer_sequence@I$0A@$00$01$02@std@@@Z 1001d830 f i Config.obj
 0001:0001c880       ??$encrypt@$0?GJHJCOJGIOBIIHHL@$0A@$00$01$02$03$04$05$06$07$08$09$0L@$0M@$0N@@detail@cx@@YA?AU?$char_array@$0O@@01@PBDU?$integer_sequence@I$0A@$00$01$02$03$04$05$06$07$08$09$0L@$0M@$0N@@std@@@Z 1001d880 f i Config.obj
 0001:0001c990       ??$encrypt@$0?GJHJCOJGIOBIIHHL@$0A@$00$01$02@detail@cx@@YA?AU?$char_array@$03@01@PBDU?$integer_sequence@I$0A@$00$01$02@std@@@Z 1001d990 f i Config.obj
 0001:0001c9f0       ??$encrypt@$0?GJHJCOJGIOBIIHHM@$0A@$00$01$02$03$04$05$06$07$08$09$0L@@detail@cx@@YA?AU?$char_array@$0M@@01@PBDU?$integer_sequence@I$0A@$00$01$02$03$04$05$06$07$08$09$0L@@std@@@Z 1001d9f0 f i Config.obj
 0001:0001cae0       ??$encrypt@$0?GJHJCOJGIOBIIHHM@$0A@$00$01$02@detail@cx@@YA?AU?$char_array@$03@01@PBDU?$integer_sequence@I$0A@$00$01$02@std@@@Z 1001dae0 f i Config.obj
 0001:0001cb40       ??$encrypt@$0?GJHJCOJGIOBIIHHP@$0A@$00$01$02$03$04$05$06$07@detail@cx@@YA?AU?$char_array@$08@01@PBDU?$integer_sequence@I$0A@$00$01$02$03$04$05$06$07@std@@@Z 1001db40 f i Config.obj
 0001:0001cbf0       ??$encrypt@$0?GJHJCOJGIOBIIHHP@$0A@$00$01$02$03$04$05@detail@cx@@YA?AU?$char_array@$06@01@PBDU?$integer_sequence@I$0A@$00$01$02$03$04$05@std@@@Z 1001dbf0 f i Config.obj
 0001:0001cc80       ??$encrypt@$0?GJHJCOJGIOBIIHIA@$0A@$00$01$02$03$04$05$06$07@detail@cx@@YA?AU?$char_array@$08@01@PBDU?$integer_sequence@I$0A@$00$01$02$03$04$05$06$07@std@@@Z 1001dc80 f i Config.obj
 0001:0001cd30       ??$encrypt@$0?GJHJCOJGIOBIIHIA@$0A@$00$01$02$03$04$05@detail@cx@@YA?AU?$char_array@$06@01@PBDU?$integer_sequence@I$0A@$00$01$02$03$04$05@std@@@Z 1001dd30 f i Config.obj
 0001:0001cdc0       ??$encrypt@$0?GJHJCOJGIOBIIHIB@$0A@$00$01$02$03$04$05$06$07@detail@cx@@YA?AU?$char_array@$08@01@PBDU?$integer_sequence@I$0A@$00$01$02$03$04$05$06$07@std@@@Z 1001ddc0 f i Config.obj
 0001:0001ce70       ??$encrypt@$0?GJHJCOJGIOBIIHIB@$0A@$00$01$02$03$04$05@detail@cx@@YA?AU?$char_array@$06@01@PBDU?$integer_sequence@I$0A@$00$01$02$03$04$05@std@@@Z 1001de70 f i Config.obj
 0001:0001cf00       ??$encrypt@$0?GJHJCOJGIOBIIHID@$0A@$00$01$02$03$04$05$06$07@detail@cx@@YA?AU?$char_array@$08@01@PBDU?$integer_sequence@I$0A@$00$01$02$03$04$05$06$07@std@@@Z 1001df00 f i Config.obj
 0001:0001cfb0       ??$encrypt@$0?GJHJCOJGIOBIIHID@$0A@$00$01$02$03$04$05@detail@cx@@YA?AU?$char_array@$06@01@PBDU?$integer_sequence@I$0A@$00$01$02$03$04$05@std@@@Z 1001dfb0 f i Config.obj
 0001:0001d040       ??$encrypt@$0?GJHJCOJGIOBIIHIE@$0A@$00$01$02$03$04$05$06$07@detail@cx@@YA?AU?$char_array@$08@01@PBDU?$integer_sequence@I$0A@$00$01$02$03$04$05$06$07@std@@@Z 1001e040 f i Config.obj
 0001:0001d0f0       ??$encrypt@$0?GJHJCOJGIOBIIHIE@$0A@$00$01$02$03$04$05@detail@cx@@YA?AU?$char_array@$06@01@PBDU?$integer_sequence@I$0A@$00$01$02$03$04$05@std@@@Z 1001e0f0 f i Config.obj
 0001:0001d180       ??$encrypt@$0?GJHJCOJGIOBIIHIF@$0A@$00$01$02$03$04$05$06$07@detail@cx@@YA?AU?$char_array@$08@01@PBDU?$integer_sequence@I$0A@$00$01$02$03$04$05$06$07@std@@@Z 1001e180 f i Config.obj
 0001:0001d230       ??$encrypt@$0?GJHJCOJGIOBIIHIF@$0A@$00$01$02$03$04$05@detail@cx@@YA?AU?$char_array@$06@01@PBDU?$integer_sequence@I$0A@$00$01$02$03$04$05@std@@@Z 1001e230 f i Config.obj
 0001:0001d2c0       ??$encrypt@$0?GJHJCOJGIOBIIHII@$0A@$00$01$02$03$04$05$06$07$08$09$0L@@detail@cx@@YA?AU?$char_array@$0M@@01@PBDU?$integer_sequence@I$0A@$00$01$02$03$04$05$06$07$08$09$0L@@std@@@Z 1001e2c0 f i Config.obj
 0001:0001d3b0       ??$encrypt@$0?GJHJCOJGIOBIIHII@$0A@$00$01$02$03$04$05@detail@cx@@YA?AU?$char_array@$06@01@PBDU?$integer_sequence@I$0A@$00$01$02$03$04$05@std@@@Z 1001e3b0 f i Config.obj
 0001:0001d440       ??$encrypt@$0?GJHJCOJGIOBIIHIJ@$0A@$00$01$02$03$04$05$06$07$08$09$0L@$0M@@detail@cx@@YA?AU?$char_array@$0N@@01@PBDU?$integer_sequence@I$0A@$00$01$02$03$04$05$06$07$08$09$0L@$0M@@std@@@Z 1001e440 f i Config.obj
 0001:0001d540       ??$encrypt@$0?GJHJCOJGIOBIIHIJ@$0A@$00$01$02$03$04$05@detail@cx@@YA?AU?$char_array@$06@01@PBDU?$integer_sequence@I$0A@$00$01$02$03$04$05@std@@@Z 1001e540 f i Config.obj
 0001:0001d5d0       ??$encrypt@$0?GJHJCOJGIOBIIHIK@$0A@$00$01$02$03$04$05@detail@cx@@YA?AU?$char_array@$06@01@PBDU?$integer_sequence@I$0A@$00$01$02$03$04$05@std@@@Z 1001e5d0 f i Config.obj
 0001:0001d660       ??$encrypt@$0?GJHJCOJGIOBIIHIL@$0A@$00$01$02$03$04$05$06$07$08$09@detail@cx@@YA?AU?$char_array@$0L@@01@PBDU?$integer_sequence@I$0A@$00$01$02$03$04$05$06$07$08$09@std@@@Z 1001e660 f i Config.obj
 0001:0001d740       ??$encrypt@$0?GJHJCOJGIOBIIHIL@$0A@$00$01$02$03$04$05@detail@cx@@YA?AU?$char_array@$06@01@PBDU?$integer_sequence@I$0A@$00$01$02$03$04$05@std@@@Z 1001e740 f i Config.obj
 0001:0001d7d0       ??$encrypt@$0?GJHJCOJGIOBIIHIM@$0A@$00$01$02$03$04$05$06$07$08$09$0L@@detail@cx@@YA?AU?$char_array@$0M@@01@PBDU?$integer_sequence@I$0A@$00$01$02$03$04$05$06$07$08$09$0L@@std@@@Z 1001e7d0 f i Config.obj
 0001:0001d8c0       ??$encrypt@$0?GJHJCOJGIOBIIHIM@$0A@$00$01$02$03$04$05@detail@cx@@YA?AU?$char_array@$06@01@PBDU?$integer_sequence@I$0A@$00$01$02$03$04$05@std@@@Z 1001e8c0 f i Config.obj
 0001:0001d950       ??$encrypt@$0?GJHJCOJGIOBIIHIN@$0A@$00$01$02$03$04$05$06$07$08$09@detail@cx@@YA?AU?$char_array@$0L@@01@PBDU?$integer_sequence@I$0A@$00$01$02$03$04$05$06$07$08$09@std@@@Z 1001e950 f i Config.obj
 0001:0001da30       ??$encrypt@$0?GJHJCOJGIOBIIHIN@$0A@$00$01$02$03$04$05@detail@cx@@YA?AU?$char_array@$06@01@PBDU?$integer_sequence@I$0A@$00$01$02$03$04$05@std@@@Z 1001ea30 f i Config.obj
 0001:0001dac0       ??$encrypt@$0?GJHJCOJGIOBIIHIO@$0A@$00$01$02$03$04$05$06$07@detail@cx@@YA?AU?$char_array@$08@01@PBDU?$integer_sequence@I$0A@$00$01$02$03$04$05$06$07@std@@@Z 1001eac0 f i Config.obj
 0001:0001db70       ??$encrypt@$0?GJHJCOJGIOBIIHIO@$0A@$00$01$02$03$04$05@detail@cx@@YA?AU?$char_array@$06@01@PBDU?$integer_sequence@I$0A@$00$01$02$03$04$05@std@@@Z 1001eb70 f i Config.obj
 0001:0001dc00       ??$encrypt@$0?GJHJCOJGIOBIIHIP@$0A@$00$01$02$03$04$05$06$07$08@detail@cx@@YA?AU?$char_array@$09@01@PBDU?$integer_sequence@I$0A@$00$01$02$03$04$05$06$07$08@std@@@Z 1001ec00 f i Config.obj
 0001:0001dcd0       ??$encrypt@$0?GJHJCOJGIOBIIHIP@$0A@$00$01$02$03$04$05@detail@cx@@YA?AU?$char_array@$06@01@PBDU?$integer_sequence@I$0A@$00$01$02$03$04$05@std@@@Z 1001ecd0 f i Config.obj
 0001:0001dd60       ??$encrypt@$0?GJHJCOJGIOBIIHJA@$0A@$00$01$02$03$04$05$06$07$08$09$0L@$0M@@detail@cx@@YA?AU?$char_array@$0N@@01@PBDU?$integer_sequence@I$0A@$00$01$02$03$04$05$06$07$08$09$0L@$0M@@std@@@Z 1001ed60 f i Config.obj
 0001:0001de60       ??$encrypt@$0?GJHJCOJGIOBIIHJA@$0A@$00$01$02$03$04$05@detail@cx@@YA?AU?$char_array@$06@01@PBDU?$integer_sequence@I$0A@$00$01$02$03$04$05@std@@@Z 1001ee60 f i Config.obj
 0001:0001def0       ??$encrypt@$0?GJHJCOJGIOBIIHJB@$0A@$00$01$02$03$04$05$06$07@detail@cx@@YA?AU?$char_array@$08@01@PBDU?$integer_sequence@I$0A@$00$01$02$03$04$05$06$07@std@@@Z 1001eef0 f i Config.obj
 0001:0001dfa0       ??$encrypt@$0?GJHJCOJGIOBIIHJB@$0A@$00$01$02$03$04$05@detail@cx@@YA?AU?$char_array@$06@01@PBDU?$integer_sequence@I$0A@$00$01$02$03$04$05@std@@@Z 1001efa0 f i Config.obj
 0001:0001e030       ??$encrypt@$0?GJHJCOJGIOBIIHJC@$0A@$00$01$02$03$04$05$06$07$08$09$0L@$0M@$0N@$0O@$0P@$0BA@@detail@cx@@YA?AU?$char_array@$0BB@@01@PBDU?$integer_sequence@I$0A@$00$01$02$03$04$05$06$07$08$09$0L@$0M@$0N@$0O@$0P@$0BA@@std@@@Z 1001f030 f i Config.obj
 0001:0001e170       ??$encrypt@$0?GJHJCOJGIOBIIHJC@$0A@$00$01$02$03$04$05@detail@cx@@YA?AU?$char_array@$06@01@PBDU?$integer_sequence@I$0A@$00$01$02$03$04$05@std@@@Z 1001f170 f i Config.obj
 0001:0001e200       ??$encrypt@$0?GJHJCOJGIOBIIHJD@$0A@$00$01$02$03$04$05$06$07$08$09$0L@$0M@$0N@@detail@cx@@YA?AU?$char_array@$0O@@01@PBDU?$integer_sequence@I$0A@$00$01$02$03$04$05$06$07$08$09$0L@$0M@$0N@@std@@@Z 1001f200 f i Config.obj
 0001:0001e310       ??$encrypt@$0?GJHJCOJGIOBIIHJD@$0A@$00$01$02$03$04$05@detail@cx@@YA?AU?$char_array@$06@01@PBDU?$integer_sequence@I$0A@$00$01$02$03$04$05@std@@@Z 1001f310 f i Config.obj
 0001:0001e3a0       ??$encrypt@$0?GJHJCOJGIOBIIHJE@$0A@$00$01$02$03$04$05$06$07$08@detail@cx@@YA?AU?$char_array@$09@01@PBDU?$integer_sequence@I$0A@$00$01$02$03$04$05$06$07$08@std@@@Z 1001f3a0 f i Config.obj
 0001:0001e470       ??$encrypt@$0?GJHJCOJGIOBIIHJE@$0A@$00$01$02$03$04$05@detail@cx@@YA?AU?$char_array@$06@01@PBDU?$integer_sequence@I$0A@$00$01$02$03$04$05@std@@@Z 1001f470 f i Config.obj
 0001:0001e500       ??$encrypt@$0?GJHJCOJGIOBIIHJF@$0A@$00$01$02$03$04$05$06$07$08$09@detail@cx@@YA?AU?$char_array@$0L@@01@PBDU?$integer_sequence@I$0A@$00$01$02$03$04$05$06$07$08$09@std@@@Z 1001f500 f i Config.obj
 0001:0001e5e0       ??$encrypt@$0?GJHJCOJGIOBIIHJF@$0A@$00$01$02$03$04$05@detail@cx@@YA?AU?$char_array@$06@01@PBDU?$integer_sequence@I$0A@$00$01$02$03$04$05@std@@@Z 1001f5e0 f i Config.obj
 0001:0001e670       ??$encrypt@$0?GJHJCOJGIOBIIHJG@$0A@$00$01$02$03$04$05$06$07$08$09@detail@cx@@YA?AU?$char_array@$0L@@01@PBDU?$integer_sequence@I$0A@$00$01$02$03$04$05$06$07$08$09@std@@@Z 1001f670 f i Config.obj
 0001:0001e750       ??$encrypt@$0?GJHJCOJGIOBIIHJG@$0A@$00$01$02$03$04$05@detail@cx@@YA?AU?$char_array@$06@01@PBDU?$integer_sequence@I$0A@$00$01$02$03$04$05@std@@@Z 1001f750 f i Config.obj
 0001:0001e7e0       ??$encrypt@$0?GJHJCOJGIOBIIHJH@$0A@$00$01$02$03$04$05$06$07$08$09$0L@$0M@$0N@$0O@$0P@$0BA@@detail@cx@@YA?AU?$char_array@$0BB@@01@PBDU?$integer_sequence@I$0A@$00$01$02$03$04$05$06$07$08$09$0L@$0M@$0N@$0O@$0P@$0BA@@std@@@Z 1001f7e0 f i Config.obj
 0001:0001e920       ??$encrypt@$0?GJHJCOJGIOBIIHJH@$0A@$00$01$02$03$04$05@detail@cx@@YA?AU?$char_array@$06@01@PBDU?$integer_sequence@I$0A@$00$01$02$03$04$05@std@@@Z 1001f920 f i Config.obj
 0001:0001e9b0       ??$encrypt@$0?GJHJCOJGIOBIIHJI@$0A@$00$01$02$03$04$05$06$07$08$09$0L@$0M@$0N@@detail@cx@@YA?AU?$char_array@$0O@@01@PBDU?$integer_sequence@I$0A@$00$01$02$03$04$05$06$07$08$09$0L@$0M@$0N@@std@@@Z 1001f9b0 f i Config.obj
 0001:0001eac0       ??$encrypt@$0?GJHJCOJGIOBIIHJI@$0A@$00$01$02$03$04$05@detail@cx@@YA?AU?$char_array@$06@01@PBDU?$integer_sequence@I$0A@$00$01$02$03$04$05@std@@@Z 1001fac0 f i Config.obj
 0001:0001eb50       ??$encrypt@$0?GJHJCOJGIOBIIHJJ@$0A@$00$01$02$03$04$05@detail@cx@@YA?AU?$char_array@$06@01@PBDU?$integer_sequence@I$0A@$00$01$02$03$04$05@std@@@Z 1001fb50 f i Config.obj
 0001:0001ebe0       ??$encrypt@$0?GJHJCOJGIOBIIHJK@$0A@$00$01$02$03$04$05$06$07$08$09$0L@@detail@cx@@YA?AU?$char_array@$0M@@01@PBDU?$integer_sequence@I$0A@$00$01$02$03$04$05$06$07$08$09$0L@@std@@@Z 1001fbe0 f i Config.obj
 0001:0001ecd0       ??$encrypt@$0?GJHJCOJGIOBIIHJK@$0A@$00$01$02$03$04$05@detail@cx@@YA?AU?$char_array@$06@01@PBDU?$integer_sequence@I$0A@$00$01$02$03$04$05@std@@@Z 1001fcd0 f i Config.obj
 0001:0001ed60       ??$encrypt@$0?GJHJCOJGIOBIIHJL@$0A@$00$01$02$03$04$05@detail@cx@@YA?AU?$char_array@$06@01@PBDU?$integer_sequence@I$0A@$00$01$02$03$04$05@std@@@Z 1001fd60 f i Config.obj
 0001:0001ede0       ??$encrypt@$0?GJHJCOJGIOBIIHJM@$0A@$00$01$02$03$04$05$06$07$08@detail@cx@@YA?AU?$char_array@$09@01@PBDU?$integer_sequence@I$0A@$00$01$02$03$04$05$06$07$08@std@@@Z 1001fde0 f i Config.obj
 0001:0001eeb0       ??$encrypt@$0?GJHJCOJGIOBIIHJM@$0A@$00$01$02$03$04$05@detail@cx@@YA?AU?$char_array@$06@01@PBDU?$integer_sequence@I$0A@$00$01$02$03$04$05@std@@@Z 1001feb0 f i Config.obj
 0001:0001ef40       ??$encrypt@$0?GJHJCOJGIOBIIHJN@$0A@$00$01$02$03$04$05$06$07$08$09$0L@@detail@cx@@YA?AU?$char_array@$0M@@01@PBDU?$integer_sequence@I$0A@$00$01$02$03$04$05$06$07$08$09$0L@@std@@@Z 1001ff40 f i Config.obj
 0001:0001f030       ??$encrypt@$0?GJHJCOJGIOBIIHJN@$0A@$00$01$02$03$04$05@detail@cx@@YA?AU?$char_array@$06@01@PBDU?$integer_sequence@I$0A@$00$01$02$03$04$05@std@@@Z 10020030 f i Config.obj
 0001:0001f0c0       ??$encrypt@$0?GJHJCOJGIOBIIHJP@$0A@$00$01$02$03$04$05$06$07$08$09$0L@@detail@cx@@YA?AU?$char_array@$0M@@01@PBDU?$integer_sequence@I$0A@$00$01$02$03$04$05$06$07$08$09$0L@@std@@@Z 100200c0 f i Config.obj
 0001:0001f1b0       ??$encrypt@$0?GJHJCOJGIOBIIHJP@$0A@$00$01$02$03$04$05@detail@cx@@YA?AU?$char_array@$06@01@PBDU?$integer_sequence@I$0A@$00$01$02$03$04$05@std@@@Z 100201b0 f i Config.obj
 0001:0001f240       ??$encrypt@$0?GJHJCOJGIOBIIHKA@$0A@$00$01$02$03$04$05$06$07$08$09$0L@$0M@@detail@cx@@YA?AU?$char_array@$0N@@01@PBDU?$integer_sequence@I$0A@$00$01$02$03$04$05$06$07$08$09$0L@$0M@@std@@@Z 10020240 f i Config.obj
 0001:0001f340       ??$encrypt@$0?GJHJCOJGIOBIIHKA@$0A@$00$01$02$03$04$05@detail@cx@@YA?AU?$char_array@$06@01@PBDU?$integer_sequence@I$0A@$00$01$02$03$04$05@std@@@Z 10020340 f i Config.obj
 0001:0001f3d0       ??$encrypt@$0?GJHJCOJGIOBIIHKB@$0A@$00$01$02$03$04$05@detail@cx@@YA?AU?$char_array@$06@01@PBDU?$integer_sequence@I$0A@$00$01$02$03$04$05@std@@@Z 100203d0 f i Config.obj
 0001:0001f460       ??$encrypt@$0?GJHJCOJGIOBIIHKC@$0A@$00$01$02$03$04@detail@cx@@YA?AU?$char_array@$05@01@PBDU?$integer_sequence@I$0A@$00$01$02$03$04@std@@@Z 10020460 f i Config.obj
 0001:0001f4e0       ??$encrypt@$0?GJHJCOJGIOBIIHKC@$0A@$00$01$02$03$04$05@detail@cx@@YA?AU?$char_array@$06@01@PBDU?$integer_sequence@I$0A@$00$01$02$03$04$05@std@@@Z 100204e0 f i Config.obj
 0001:0001f570       ??$encrypt@$0?GJHJCOJGIOBIIHKD@$0A@$00$01$02$03$04@detail@cx@@YA?AU?$char_array@$05@01@PBDU?$integer_sequence@I$0A@$00$01$02$03$04@std@@@Z 10020570 f i Config.obj
 0001:0001f5f0       ??$encrypt@$0?GJHJCOJGIOBIIHKD@$0A@$00$01$02$03$04$05@detail@cx@@YA?AU?$char_array@$06@01@PBDU?$integer_sequence@I$0A@$00$01$02$03$04$05@std@@@Z 100205f0 f i Config.obj
 0001:0001f680       ??$encrypt@$0?GJHJCOJGIOBIIHKE@$0A@$00$01$02$03$04$05@detail@cx@@YA?AU?$char_array@$06@01@PBDU?$integer_sequence@I$0A@$00$01$02$03$04$05@std@@@Z 10020680 f i Config.obj
 0001:0001f700       ??$encrypt@$0?GJHJCOJGIOBIIHKI@$0A@$00$01$02@detail@cx@@YA?AU?$char_array@$03@01@PBDU?$integer_sequence@I$0A@$00$01$02@std@@@Z 10020700 f i Config.obj
 0001:0001f750       ??$encrypt@$0?GJHJCOJGIOBIIHLA@$0A@$00$01$02$03$04$05$06$07$08$09$0L@$0M@$0N@@detail@cx@@YA?AU?$char_array@$0O@@01@PBDU?$integer_sequence@I$0A@$00$01$02$03$04$05$06$07$08$09$0L@$0M@$0N@@std@@@Z 10020750 f i Config.obj
 0001:0001f820       ??$encrypt@$0?GJHJCOJGIOBIIHLB@$0A@$00$01$02$03$04$05$06$07$08$09@detail@cx@@YA?AU?$char_array@$0L@@01@PBDU?$integer_sequence@I$0A@$00$01$02$03$04$05$06$07$08$09@std@@@Z 10020820 f i Config.obj
 0001:0001f8c0       ??$encrypt@$0?GJHJCOJGIOBIIHLC@$0A@$00$01$02$03$04$05$06$07$08$09$0L@$0M@$0N@$0O@@detail@cx@@YA?AU?$char_array@$0P@@01@PBDU?$integer_sequence@I$0A@$00$01$02$03$04$05$06$07$08$09$0L@$0M@$0N@$0O@@std@@@Z 100208c0 f i Config.obj
 0001:0001f9a0       ??$encrypt@$0?GJHJCOJGIOBIIHLE@$0A@$00$01$02$03$04$05@detail@cx@@YA?AU?$char_array@$06@01@PBDU?$integer_sequence@I$0A@$00$01$02$03$04$05@std@@@Z 100209a0 f i Config.obj
 0001:0001fa10       ??$encrypt@$0?GJHJCOJGIOBIIHLF@$0A@$00$01$02$03$04$05@detail@cx@@YA?AU?$char_array@$06@01@PBDU?$integer_sequence@I$0A@$00$01$02$03$04$05@std@@@Z 10020a10 f i Config.obj
 0001:0001fa80       ??$encrypt@$0?GJHJCOJGIOBIIHLG@$0A@$00$01$02$03$04$05@detail@cx@@YA?AU?$char_array@$06@01@PBDU?$integer_sequence@I$0A@$00$01$02$03$04$05@std@@@Z 10020a80 f i Config.obj
 0001:0001faf0       ??$encrypt@$0?GJHJCOJGIOBIIHLH@$0A@$00$01$02$03$04$05@detail@cx@@YA?AU?$char_array@$06@01@PBDU?$integer_sequence@I$0A@$00$01$02$03$04$05@std@@@Z 10020af0 f i Config.obj
 0001:0001fb60       ??$encrypt@$0?GJHJCOJGIOBIIHLJ@$0A@$00$01$02$03$04$05$06$07$08$09$0L@$0M@$0N@$0O@@detail@cx@@YA?AU?$char_array@$0P@@01@PBDU?$integer_sequence@I$0A@$00$01$02$03$04$05$06$07$08$09$0L@$0M@$0N@$0O@@std@@@Z 10020b60 f i Config.obj
 0001:0001fc40       ??$encrypt@$0?GJHJCOJGIOBIIHLK@$0A@$00$01$02$03$04$05$06$07$08$09$0L@$0M@$0N@@detail@cx@@YA?AU?$char_array@$0O@@01@PBDU?$integer_sequence@I$0A@$00$01$02$03$04$05$06$07$08$09$0L@$0M@$0N@@std@@@Z 10020c40 f i Config.obj
 0001:0001fd10       ??$encrypt@$0?GJHJCOJGIOBIIHLL@$0A@$00$01$02$03$04$05$06$07$08$09@detail@cx@@YA?AU?$char_array@$0L@@01@PBDU?$integer_sequence@I$0A@$00$01$02$03$04$05$06$07$08$09@std@@@Z 10020d10 f i Config.obj
 0001:0001fdb0       ??$encrypt@$0?GJHJCOJGIOBIIHLP@$0A@$00$01$02$03$04$05@detail@cx@@YA?AU?$char_array@$06@01@PBDU?$integer_sequence@I$0A@$00$01$02$03$04$05@std@@@Z 10020db0 f i Config.obj
 0001:0001fe20       ??$encrypt@$0?GJHJCOJGIOBIIHMA@$0A@$00$01$02$03$04$05$06$07@detail@cx@@YA?AU?$char_array@$08@01@PBDU?$integer_sequence@I$0A@$00$01$02$03$04$05$06$07@std@@@Z 10020e20 f i Config.obj
 0001:0001feb0       ??$encrypt@$0?GJHJCOJGIOBIIHMD@$0A@$00$01$02@detail@cx@@YA?AU?$char_array@$03@01@PBDU?$integer_sequence@I$0A@$00$01$02@std@@@Z 10020eb0 f i Config.obj
 0001:0001ff00       ??$encrypt@$0?GJHJCOJGIOBIIHMF@$0A@$00$01$02$03$04$05$06$07$08@detail@cx@@YA?AU?$char_array@$09@01@PBDU?$integer_sequence@I$0A@$00$01$02$03$04$05$06$07$08@std@@@Z 10020f00 f i Config.obj
 0001:0001ff90       ??$encrypt@$0?GJHJCOJGIOBIIHMG@$0A@$00$01$02$03$04$05$06$07$08@detail@cx@@YA?AU?$char_array@$09@01@PBDU?$integer_sequence@I$0A@$00$01$02$03$04$05$06$07$08@std@@@Z 10020f90 f i Config.obj
 0001:00020020       ??$encrypt@$0?GJHJCOJGIOBIIHMI@$0A@$00$01$02$03$04@detail@cx@@YA?AU?$char_array@$05@01@PBDU?$integer_sequence@I$0A@$00$01$02$03$04@std@@@Z 10021020 f i Config.obj
 0001:00020080       ??$encrypt@$0?GJHJCOJGIOBIIHMJ@$0A@$00$01$02$03$04@detail@cx@@YA?AU?$char_array@$05@01@PBDU?$integer_sequence@I$0A@$00$01$02$03$04@std@@@Z 10021080 f i Config.obj
 0001:000200e0       ??$encrypt@$0?GJHJCOJGIOBIIHMK@$0A@$00$01$02$03$04$05@detail@cx@@YA?AU?$char_array@$06@01@PBDU?$integer_sequence@I$0A@$00$01$02$03$04$05@std@@@Z 100210e0 f i Config.obj
 0001:00020150       ??$encrypt@$0?GJHJCOJGIOBIIHMM@$0A@$00$01@detail@cx@@YA?AU?$char_array@$02@01@PBDU?$integer_sequence@I$0A@$00$01@std@@@Z 10021150 f i Config.obj
 0001:00020190       ??$encrypt@$0?GJHJCOJGIOBIIHMN@$0A@$00$01$02$03$04$05$06$07$08$09@detail@cx@@YA?AU?$char_array@$0L@@01@PBDU?$integer_sequence@I$0A@$00$01$02$03$04$05$06$07$08$09@std@@@Z 10021190 f i Config.obj
 0001:00020230       ??$encrypt@$0?GJHJCOJGIOBIIHNB@$0A@$00$01$02$03$04$05@detail@cx@@YA?AU?$char_array@$06@01@PBDU?$integer_sequence@I$0A@$00$01$02$03$04$05@std@@@Z 10021230 f i Config.obj
 0001:000202c0       ??$encrypt@$0?GJHJCOJGIOBIIHNB@$0A@$00$01$02$03$04$05$06$07$08@detail@cx@@YA?AU?$char_array@$09@01@PBDU?$integer_sequence@I$0A@$00$01$02$03$04$05$06$07$08@std@@@Z 100212c0 f i Config.obj
 0001:00020390       ??$encrypt@$0?GJHJCOJGIOBIIHNC@$0A@$00$01$02@detail@cx@@YA?AU?$char_array@$03@01@PBDU?$integer_sequence@I$0A@$00$01$02@std@@@Z 10021390 f i Config.obj
 0001:000203f0       ??$encrypt@$0?GJHJCOJGIOBIIHNC@$0A@$00$01$02$03$04$05$06$07$08@detail@cx@@YA?AU?$char_array@$09@01@PBDU?$integer_sequence@I$0A@$00$01$02$03$04$05$06$07$08@std@@@Z 100213f0 f i Config.obj
 0001:000204c0       ??$encrypt@$0?GJHJCOJGIOBIIHND@$0A@$00$01$02@detail@cx@@YA?AU?$char_array@$03@01@PBDU?$integer_sequence@I$0A@$00$01$02@std@@@Z 100214c0 f i Config.obj
 0001:00020520       ??$encrypt@$0?GJHJCOJGIOBIIHND@$0A@$00$01$02$03$04$05$06$07$08@detail@cx@@YA?AU?$char_array@$09@01@PBDU?$integer_sequence@I$0A@$00$01$02$03$04$05$06$07$08@std@@@Z 10021520 f i Config.obj
 0001:000205f0       ??$encrypt@$0?GJHJCOJGIOBIIHNE@$0A@$00$01$02$03@detail@cx@@YA?AU?$char_array@$04@01@PBDU?$integer_sequence@I$0A@$00$01$02$03@std@@@Z 100215f0 f i Config.obj
 0001:00020660       ??$encrypt@$0?GJHJCOJGIOBIIHNE@$0A@$00$01$02$03$04$05$06$07$08@detail@cx@@YA?AU?$char_array@$09@01@PBDU?$integer_sequence@I$0A@$00$01$02$03$04$05$06$07$08@std@@@Z 10021660 f i Config.obj
 0001:00020730       ??$encrypt@$0?GJHJCOJGIOBIIHNF@$0A@$00$01$02@detail@cx@@YA?AU?$char_array@$03@01@PBDU?$integer_sequence@I$0A@$00$01$02@std@@@Z 10021730 f i Config.obj
 0001:00020790       ??$encrypt@$0?GJHJCOJGIOBIIHNF@$0A@$00$01$02$03$04$05$06$07$08@detail@cx@@YA?AU?$char_array@$09@01@PBDU?$integer_sequence@I$0A@$00$01$02$03$04$05$06$07$08@std@@@Z 10021790 f i Config.obj
 0001:00020860       ??$encrypt@$0?GJHJCOJGIOBIIHNH@$0A@$00$01$02$03$04$05$06$07$08@detail@cx@@YA?AU?$char_array@$09@01@PBDU?$integer_sequence@I$0A@$00$01$02$03$04$05$06$07$08@std@@@Z 10021860 f i Config.obj
 0001:00020930       ??$encrypt@$0?GJHJCOJGIOBIIHNI@$0A@$00$01@detail@cx@@YA?AU?$char_array@$02@01@PBDU?$integer_sequence@I$0A@$00$01@std@@@Z 10021930 f i Config.obj
 0001:00020980       ??$encrypt@$0?GJHJCOJGIOBIIHNI@$0A@$00$01$02$03$04$05$06$07$08@detail@cx@@YA?AU?$char_array@$09@01@PBDU?$integer_sequence@I$0A@$00$01$02$03$04$05$06$07$08@std@@@Z 10021980 f i Config.obj
 0001:00020a50       ??$encrypt@$0?GJHJCOJGIOBIIHNJ@$0A@$00$01$02$03@detail@cx@@YA?AU?$char_array@$04@01@PBDU?$integer_sequence@I$0A@$00$01$02$03@std@@@Z 10021a50 f i Config.obj
 0001:00020ac0       ??$encrypt@$0?GJHJCOJGIOBIIHNJ@$0A@$00$01$02$03$04$05$06$07$08@detail@cx@@YA?AU?$char_array@$09@01@PBDU?$integer_sequence@I$0A@$00$01$02$03$04$05$06$07$08@std@@@Z 10021ac0 f i Config.obj
 0001:00020b90       ??$encrypt@$0?GJHJCOJGIOBIIHNM@$0A@$00$01$02$03$04$05$06$07$08@detail@cx@@YA?AU?$char_array@$09@01@PBDU?$integer_sequence@I$0A@$00$01$02$03$04$05$06$07$08@std@@@Z 10021b90 f i Config.obj
 0001:00020c60       ??$encrypt@$0?GJHJCOJGIOBIIHNO@$0A@$00$01$02$03$04$05$06$07$08$09$0L@@detail@cx@@YA?AU?$char_array@$0M@@01@PBDU?$integer_sequence@I$0A@$00$01$02$03$04$05$06$07$08$09$0L@@std@@@Z 10021c60 f i Config.obj
 0001:00020d50       ??$encrypt@$0?GJHJCOJGIOBIIHNP@$0A@$00$01$02$03@detail@cx@@YA?AU?$char_array@$04@01@PBDU?$integer_sequence@I$0A@$00$01$02$03@std@@@Z 10021d50 f i Config.obj
 0001:00020dc0       ??$encrypt@$0?GJHJCOJGIOBIIHOA@$0A@$00$01@detail@cx@@YA?AU?$char_array@$02@01@PBDU?$integer_sequence@I$0A@$00$01@std@@@Z 10021dc0 f i Config.obj
 0001:00020e10       ??$encrypt@$0?GJHJCOJGIOBIIHOB@$0A@$00$01$02$03$04$05@detail@cx@@YA?AU?$char_array@$06@01@PBDU?$integer_sequence@I$0A@$00$01$02$03$04$05@std@@@Z 10021e10 f i Config.obj
 0001:00020ea0       ??$encrypt@$0?GJHJCOJGIOBIIHOD@$0A@$00$01$02$03$04$05$06$07$08$09$0L@$0M@$0N@@detail@cx@@YA?AU?$char_array@$0O@@01@PBDU?$integer_sequence@I$0A@$00$01$02$03$04$05$06$07$08$09$0L@$0M@$0N@@std@@@Z 10021ea0 f i Config.obj
 0001:00020fb0       ??$encrypt@$0?GJHJCOJGIOBIIHOD@$0A@$00$01$02$03$04$05@detail@cx@@YA?AU?$char_array@$06@01@PBDU?$integer_sequence@I$0A@$00$01$02$03$04$05@std@@@Z 10021fb0 f i Config.obj
 0001:00021040       ??$encrypt@$0?GJHJCOJGIOBIIHOG@$0A@$00$01$02$03$04$05$06$07$08$09$0L@$0M@$0N@$0O@@detail@cx@@YA?AU?$char_array@$0P@@01@PBDU?$integer_sequence@I$0A@$00$01$02$03$04$05$06$07$08$09$0L@$0M@$0N@$0O@@std@@@Z 10022040 f i Config.obj
 0001:00021160       ??$encrypt@$0?GJHJCOJGIOBIIHOG@$0A@$00$01$02$03$04$05@detail@cx@@YA?AU?$char_array@$06@01@PBDU?$integer_sequence@I$0A@$00$01$02$03$04$05@std@@@Z 10022160 f i Config.obj
 0001:000211f0       ??$encrypt@$0?GJHJCOJGIOBIIHOH@$0A@$00$01$02$03$04$05$06$07$08$09$0L@$0M@$0N@$0O@$0P@$0BA@@detail@cx@@YA?AU?$char_array@$0BB@@01@PBDU?$integer_sequence@I$0A@$00$01$02$03$04$05$06$07$08$09$0L@$0M@$0N@$0O@$0P@$0BA@@std@@@Z 100221f0 f i Config.obj
 0001:00021330       ??$encrypt@$0?GJHJCOJGIOBIIHOH@$0A@$00$01$02$03$04$05@detail@cx@@YA?AU?$char_array@$06@01@PBDU?$integer_sequence@I$0A@$00$01$02$03$04$05@std@@@Z 10022330 f i Config.obj
 0001:000213c0       ??$encrypt@$0?GJHJCOJGIOBIIHOI@$0A@$00$01$02$03$04$05$06$07$08$09$0L@$0M@@detail@cx@@YA?AU?$char_array@$0N@@01@PBDU?$integer_sequence@I$0A@$00$01$02$03$04$05$06$07$08$09$0L@$0M@@std@@@Z 100223c0 f i Config.obj
 0001:000214c0       ??$encrypt@$0?GJHJCOJGIOBIIHOI@$0A@$00$01$02$03$04$05@detail@cx@@YA?AU?$char_array@$06@01@PBDU?$integer_sequence@I$0A@$00$01$02$03$04$05@std@@@Z 100224c0 f i Config.obj
 0001:00021550       ??$encrypt@$0?GJHJCOJGIOBIIHOJ@$0A@$00$01$02$03$04$05@detail@cx@@YA?AU?$char_array@$06@01@PBDU?$integer_sequence@I$0A@$00$01$02$03$04$05@std@@@Z 10022550 f i Config.obj
 0001:000215e0       ??$encrypt@$0?GJHJCOJGIOBIIHOK@$0A@$00$01$02$03$04$05@detail@cx@@YA?AU?$char_array@$06@01@PBDU?$integer_sequence@I$0A@$00$01$02$03$04$05@std@@@Z 100225e0 f i Config.obj
 0001:00021670       ??$encrypt@$0?GJHJCOJGIOBIIHOL@$0A@$00$01$02$03$04$05$06$07$08$09$0L@$0M@@detail@cx@@YA?AU?$char_array@$0N@@01@PBDU?$integer_sequence@I$0A@$00$01$02$03$04$05$06$07$08$09$0L@$0M@@std@@@Z 10022670 f i Config.obj
 0001:00021770       ??$encrypt@$0?GJHJCOJGIOBIIHOL@$0A@$00$01$02$03$04$05@detail@cx@@YA?AU?$char_array@$06@01@PBDU?$integer_sequence@I$0A@$00$01$02$03$04$05@std@@@Z 10022770 f i Config.obj
 0001:00021800       ??$encrypt@$0?GJHJCOJGIOBIIHOM@$0A@$00$01$02$03$04$05@detail@cx@@YA?AU?$char_array@$06@01@PBDU?$integer_sequence@I$0A@$00$01$02$03$04$05@std@@@Z 10022800 f i Config.obj
 0001:00021890       ??$encrypt@$0?GJHJCOJGIOBIIHON@$0A@$00$01$02$03$04$05$06$07$08$09$0L@$0M@$0N@$0O@$0P@$0BA@@detail@cx@@YA?AU?$char_array@$0BB@@01@PBDU?$integer_sequence@I$0A@$00$01$02$03$04$05$06$07$08$09$0L@$0M@$0N@$0O@$0P@$0BA@@std@@@Z 10022890 f i Config.obj
 0001:000219d0       ??$encrypt@$0?GJHJCOJGIOBIIHON@$0A@$00$01$02$03$04$05@detail@cx@@YA?AU?$char_array@$06@01@PBDU?$integer_sequence@I$0A@$00$01$02$03$04$05@std@@@Z 100229d0 f i Config.obj
 0001:00021a60       ??$encrypt@$0?GJHJCOJGIOBIIHOO@$0A@$00$01$02$03$04$05$06$07$08$09$0L@$0M@$0N@$0O@$0P@$0BA@@detail@cx@@YA?AU?$char_array@$0BB@@01@PBDU?$integer_sequence@I$0A@$00$01$02$03$04$05$06$07$08$09$0L@$0M@$0N@$0O@$0P@$0BA@@std@@@Z 10022a60 f i Config.obj
 0001:00021ba0       ??$encrypt@$0?GJHJCOJGIOBIIHOO@$0A@$00$01$02$03$04$05@detail@cx@@YA?AU?$char_array@$06@01@PBDU?$integer_sequence@I$0A@$00$01$02$03$04$05@std@@@Z 10022ba0 f i Config.obj
 0001:00021c30       ??$encrypt@$0?GJHJCOJGIOBIIHOP@$0A@$00$01$02$03$04$05$06$07$08$09$0L@$0M@$0N@$0O@@detail@cx@@YA?AU?$char_array@$0P@@01@PBDU?$integer_sequence@I$0A@$00$01$02$03$04$05$06$07$08$09$0L@$0M@$0N@$0O@@std@@@Z 10022c30 f i Config.obj
 0001:00021d50       ??$encrypt@$0?GJHJCOJGIOBIIHOP@$0A@$00$01$02$03$04$05@detail@cx@@YA?AU?$char_array@$06@01@PBDU?$integer_sequence@I$0A@$00$01$02$03$04$05@std@@@Z 10022d50 f i Config.obj
 0001:00021de0       ??$encrypt@$0?GJHJCOJGIOBIIHPA@$0A@$00$01$02$03$04$05$06$07$08$09$0L@$0M@$0N@$0O@@detail@cx@@YA?AU?$char_array@$0P@@01@PBDU?$integer_sequence@I$0A@$00$01$02$03$04$05$06$07$08$09$0L@$0M@$0N@$0O@@std@@@Z 10022de0 f i Config.obj
 0001:00021f00       ??$encrypt@$0?GJHJCOJGIOBIIHPA@$0A@$00$01$02$03$04$05@detail@cx@@YA?AU?$char_array@$06@01@PBDU?$integer_sequence@I$0A@$00$01$02$03$04$05@std@@@Z 10022f00 f i Config.obj
 0001:00021f90       ??$encrypt@$0?GJHJCOJGIOBIIHPB@$0A@$00$01$02$03$04$05$06$07$08$09$0L@$0M@$0N@$0O@$0P@$0BA@$0BB@@detail@cx@@YA?AU?$char_array@$0BC@@01@PBDU?$integer_sequence@I$0A@$00$01$02$03$04$05$06$07$08$09$0L@$0M@$0N@$0O@$0P@$0BA@$0BB@@std@@@Z 10022f90 f i Config.obj
 0001:000220f0       ??$encrypt@$0?GJHJCOJGIOBIIHPB@$0A@$00$01$02$03$04$05@detail@cx@@YA?AU?$char_array@$06@01@PBDU?$integer_sequence@I$0A@$00$01$02$03$04$05@std@@@Z 100230f0 f i Config.obj
 0001:00022180       ??$encrypt@$0?GJHJCOJGIOBIIHPC@$0A@$00$01$02$03$04$05$06$07$08$09$0L@$0M@$0N@$0O@$0P@$0BA@$0BB@$0BC@$0BD@@detail@cx@@YA?AU?$char_array@$0BE@@01@PBDU?$integer_sequence@I$0A@$00$01$02$03$04$05$06$07$08$09$0L@$0M@$0N@$0O@$0P@$0BA@$0BB@$0BC@$0BD@@std@@@Z 10023180 f i Config.obj
 0001:00022300       ??$encrypt@$0?GJHJCOJGIOBIIHPC@$0A@$00$01$02$03$04$05@detail@cx@@YA?AU?$char_array@$06@01@PBDU?$integer_sequence@I$0A@$00$01$02$03$04$05@std@@@Z 10023300 f i Config.obj
 0001:00022390       ??$encrypt@$0?GJHJCOJGIOBIIHPD@$0A@$00$01$02$03$04$05$06$07$08$09$0L@$0M@$0N@$0O@@detail@cx@@YA?AU?$char_array@$0P@@01@PBDU?$integer_sequence@I$0A@$00$01$02$03$04$05$06$07$08$09$0L@$0M@$0N@$0O@@std@@@Z 10023390 f i Config.obj
 0001:000224b0       ??$encrypt@$0?GJHJCOJGIOBIIHPD@$0A@$00$01$02$03$04$05@detail@cx@@YA?AU?$char_array@$06@01@PBDU?$integer_sequence@I$0A@$00$01$02$03$04$05@std@@@Z 100234b0 f i Config.obj
 0001:00022540       ??$encrypt@$0?GJHJCOJGIOBIIHPE@$0A@$00$01$02$03$04$05$06$07$08@detail@cx@@YA?AU?$char_array@$09@01@PBDU?$integer_sequence@I$0A@$00$01$02$03$04$05$06$07$08@std@@@Z 10023540 f i Config.obj
 0001:00022610       ??$encrypt@$0?GJHJCOJGIOBIIHPE@$0A@$00$01$02$03$04$05@detail@cx@@YA?AU?$char_array@$06@01@PBDU?$integer_sequence@I$0A@$00$01$02$03$04$05@std@@@Z 10023610 f i Config.obj
 0001:000226a0       ??$encrypt@$0?GJHJCOJGIOBIIHPF@$0A@$00$01$02$03$04$05$06$07@detail@cx@@YA?AU?$char_array@$08@01@PBDU?$integer_sequence@I$0A@$00$01$02$03$04$05$06$07@std@@@Z 100236a0 f i Config.obj
 0001:00022750       ??$encrypt@$0?GJHJCOJGIOBIIHPF@$0A@$00$01$02$03$04$05@detail@cx@@YA?AU?$char_array@$06@01@PBDU?$integer_sequence@I$0A@$00$01$02$03$04$05@std@@@Z 10023750 f i Config.obj
 0001:000227e0       ??$encrypt@$0?GJHJCOJGIOBIIHPG@$0A@$00$01$02$03$04$05@detail@cx@@YA?AU?$char_array@$06@01@PBDU?$integer_sequence@I$0A@$00$01$02$03$04$05@std@@@Z 100237e0 f i Config.obj
 0001:00022870       ??$encrypt@$0?GJHJCOJGIOBIIHPI@$0A@$00$01$02$03$04$05$06$07$08$09$0L@$0M@$0N@$0O@@detail@cx@@YA?AU?$char_array@$0P@@01@PBDU?$integer_sequence@I$0A@$00$01$02$03$04$05$06$07$08$09$0L@$0M@$0N@$0O@@std@@@Z 10023870 f i Config.obj
 0001:00022990       ??$encrypt@$0?GJHJCOJGIOBIIHPI@$0A@$00$01$02$03$04$05@detail@cx@@YA?AU?$char_array@$06@01@PBDU?$integer_sequence@I$0A@$00$01$02$03$04$05@std@@@Z 10023990 f i Config.obj
 0001:00022a20       ??$encrypt@$0?GJHJCOJGIOBIIHPJ@$0A@$00$01$02$03$04$05$06$07$08$09$0L@@detail@cx@@YA?AU?$char_array@$0M@@01@PBDU?$integer_sequence@I$0A@$00$01$02$03$04$05$06$07$08$09$0L@@std@@@Z 10023a20 f i Config.obj
 0001:00022b10       ??$encrypt@$0?GJHJCOJGIOBIIHPJ@$0A@$00$01$02$03$04$05@detail@cx@@YA?AU?$char_array@$06@01@PBDU?$integer_sequence@I$0A@$00$01$02$03$04$05@std@@@Z 10023b10 f i Config.obj
 0001:00022ba0       ??$encrypt@$0?GJHJCOJGIOBIIHPK@$0A@$00$01$02$03$04$05$06$07$08$09$0L@$0M@$0N@@detail@cx@@YA?AU?$char_array@$0O@@01@PBDU?$integer_sequence@I$0A@$00$01$02$03$04$05$06$07$08$09$0L@$0M@$0N@@std@@@Z 10023ba0 f i Config.obj
 0001:00022cb0       ??$encrypt@$0?GJHJCOJGIOBIIHPK@$0A@$00$01$02$03$04$05@detail@cx@@YA?AU?$char_array@$06@01@PBDU?$integer_sequence@I$0A@$00$01$02$03$04$05@std@@@Z 10023cb0 f i Config.obj
 0001:00022d40       ??$encrypt@$0?GJHJCOJGIOBIIHPL@$0A@$00$01$02$03$04$05@detail@cx@@YA?AU?$char_array@$06@01@PBDU?$integer_sequence@I$0A@$00$01$02$03$04$05@std@@@Z 10023d40 f i Config.obj
 0001:00022dc0       ??$encrypt@$0?GJHJCOJGIOBIIHPM@$0A@$00$01$02$03$04$05@detail@cx@@YA?AU?$char_array@$06@01@PBDU?$integer_sequence@I$0A@$00$01$02$03$04$05@std@@@Z 10023dc0 f i Config.obj
 0001:00022e50       ??$encrypt@$0?GJHJCOJGIOBIIHPN@$0A@$00$01$02$03$04$05$06$07@detail@cx@@YA?AU?$char_array@$08@01@PBDU?$integer_sequence@I$0A@$00$01$02$03$04$05$06$07@std@@@Z 10023e50 f i Config.obj
 0001:00022f00       ??$encrypt@$0?GJHJCOJGIOBIIHPN@$0A@$00$01$02$03$04$05@detail@cx@@YA?AU?$char_array@$06@01@PBDU?$integer_sequence@I$0A@$00$01$02$03$04$05@std@@@Z 10023f00 f i Config.obj
 0001:00022f90       ??$encrypt@$0?GJHJCOJGIOBIIHPO@$0A@$00$01$02$03$04$05$06$07$08$09$0L@$0M@$0N@$0O@@detail@cx@@YA?AU?$char_array@$0P@@01@PBDU?$integer_sequence@I$0A@$00$01$02$03$04$05$06$07$08$09$0L@$0M@$0N@$0O@@std@@@Z 10023f90 f i Config.obj
 0001:000230b0       ??$encrypt@$0?GJHJCOJGIOBIIHPO@$0A@$00$01$02$03$04$05@detail@cx@@YA?AU?$char_array@$06@01@PBDU?$integer_sequence@I$0A@$00$01$02$03$04$05@std@@@Z 100240b0 f i Config.obj
 0001:00023140       ??$encrypt@$0?GJHJCOJGIOBIIHPP@$0A@$00$01$02$03$04$05@detail@cx@@YA?AU?$char_array@$06@01@PBDU?$integer_sequence@I$0A@$00$01$02$03$04$05@std@@@Z 10024140 f i Config.obj
 0001:000231d0       ??$encrypt@$0?GJHJCOJGIOBIIIAA@$0A@$00$01$02$03$04$05$06$07$08$09@detail@cx@@YA?AU?$char_array@$0L@@01@PBDU?$integer_sequence@I$0A@$00$01$02$03$04$05$06$07$08$09@std@@@Z 100241d0 f i Config.obj
 0001:000232b0       ??$encrypt@$0?GJHJCOJGIOBIIIAA@$0A@$00$01$02$03$04$05@detail@cx@@YA?AU?$char_array@$06@01@PBDU?$integer_sequence@I$0A@$00$01$02$03$04$05@std@@@Z 100242b0 f i Config.obj
 0001:00023340       ??$encrypt@$0?GJHJCOJGIOBIIIAB@$0A@$00$01$02$03$04$05$06$07$08@detail@cx@@YA?AU?$char_array@$09@01@PBDU?$integer_sequence@I$0A@$00$01$02$03$04$05$06$07$08@std@@@Z 10024340 f i Config.obj
 0001:00023410       ??$encrypt@$0?GJHJCOJGIOBIIIAB@$0A@$00$01$02$03$04$05@detail@cx@@YA?AU?$char_array@$06@01@PBDU?$integer_sequence@I$0A@$00$01$02$03$04$05@std@@@Z 10024410 f i Config.obj
 0001:000234a0       ??$encrypt@$0?GJHJCOJGIOBIIIAC@$0A@$00$01$02$03$04$05$06$07@detail@cx@@YA?AU?$char_array@$08@01@PBDU?$integer_sequence@I$0A@$00$01$02$03$04$05$06$07@std@@@Z 100244a0 f i Config.obj
 0001:00023550       ??$encrypt@$0?GJHJCOJGIOBIIIAC@$0A@$00$01$02$03$04$05@detail@cx@@YA?AU?$char_array@$06@01@PBDU?$integer_sequence@I$0A@$00$01$02$03$04$05@std@@@Z 10024550 f i Config.obj
 0001:000235e0       ??$encrypt@$0?GJHJCOJGIOBIIIAD@$0A@$00$01$02$03$04$05$06$07$08$09$0L@@detail@cx@@YA?AU?$char_array@$0M@@01@PBDU?$integer_sequence@I$0A@$00$01$02$03$04$05$06$07$08$09$0L@@std@@@Z 100245e0 f i Config.obj
 0001:000236d0       ??$encrypt@$0?GJHJCOJGIOBIIIAD@$0A@$00$01$02$03$04$05@detail@cx@@YA?AU?$char_array@$06@01@PBDU?$integer_sequence@I$0A@$00$01$02$03$04$05@std@@@Z 100246d0 f i Config.obj
 0001:00023760       ??$encrypt@$0?GJHJCOJGIOBIIIAE@$0A@$00$01$02$03$04@detail@cx@@YA?AU?$char_array@$05@01@PBDU?$integer_sequence@I$0A@$00$01$02$03$04@std@@@Z 10024760 f i Config.obj
 0001:000237e0       ??$encrypt@$0?GJHJCOJGIOBIIIAE@$0A@$00$01$02$03$04$05@detail@cx@@YA?AU?$char_array@$06@01@PBDU?$integer_sequence@I$0A@$00$01$02$03$04$05@std@@@Z 100247e0 f i Config.obj
 0001:00023870       ??$encrypt@$0?GJHJCOJGIOBIIIAF@$0A@$00$01$02$03$04@detail@cx@@YA?AU?$char_array@$05@01@PBDU?$integer_sequence@I$0A@$00$01$02$03$04@std@@@Z 10024870 f i Config.obj
 0001:000238f0       ??$encrypt@$0?GJHJCOJGIOBIIIAF@$0A@$00$01$02$03$04$05@detail@cx@@YA?AU?$char_array@$06@01@PBDU?$integer_sequence@I$0A@$00$01$02$03$04$05@std@@@Z 100248f0 f i Config.obj
 0001:00023980       ??$encrypt@$0?GJHJCOJGIOBIIIAG@$0A@$00$01@detail@cx@@YA?AU?$char_array@$02@01@PBDU?$integer_sequence@I$0A@$00$01@std@@@Z 10024980 f i Config.obj
 0001:000239d0       ??$encrypt@$0?GJHJCOJGIOBIIIAG@$0A@$00$01$02$03$04$05@detail@cx@@YA?AU?$char_array@$06@01@PBDU?$integer_sequence@I$0A@$00$01$02$03$04$05@std@@@Z 100249d0 f i Config.obj
 0001:00023a60       ??$encrypt@$0?GJHJCOJGIOBIIIAH@$0A@$00$01$02$03$04$05$06$07$08$09$0L@$0M@$0N@@detail@cx@@YA?AU?$char_array@$0O@@01@PBDU?$integer_sequence@I$0A@$00$01$02$03$04$05$06$07$08$09$0L@$0M@$0N@@std@@@Z 10024a60 f i Config.obj
 0001:00023b70       ??$encrypt@$0?GJHJCOJGIOBIIIAH@$0A@$00$01$02$03$04$05@detail@cx@@YA?AU?$char_array@$06@01@PBDU?$integer_sequence@I$0A@$00$01$02$03$04$05@std@@@Z 10024b70 f i Config.obj
 0001:00023c00       ??$encrypt@$0?GJHJCOJGIOBIIIAI@$0A@$00$01$02$03$04$05@detail@cx@@YA?AU?$char_array@$06@01@PBDU?$integer_sequence@I$0A@$00$01$02$03$04$05@std@@@Z 10024c00 f i Config.obj
 0001:00023c80       ??$encrypt@$0?GJHJCOJGIOBIIIAJ@$0A@$00$01$02$03$04$05$06$07$08$09@detail@cx@@YA?AU?$char_array@$0L@@01@PBDU?$integer_sequence@I$0A@$00$01$02$03$04$05$06$07$08$09@std@@@Z 10024c80 f i Config.obj
 0001:00023d60       ??$encrypt@$0?GJHJCOJGIOBIIIAJ@$0A@$00$01$02$03$04$05@detail@cx@@YA?AU?$char_array@$06@01@PBDU?$integer_sequence@I$0A@$00$01$02$03$04$05@std@@@Z 10024d60 f i Config.obj
 0001:00023df0       ??$encrypt@$0?GJHJCOJGIOBIIIAK@$0A@$00$01$02$03$04$05$06$07@detail@cx@@YA?AU?$char_array@$08@01@PBDU?$integer_sequence@I$0A@$00$01$02$03$04$05$06$07@std@@@Z 10024df0 f i Config.obj
 0001:00023ea0       ??$encrypt@$0?GJHJCOJGIOBIIIAK@$0A@$00$01$02$03$04$05@detail@cx@@YA?AU?$char_array@$06@01@PBDU?$integer_sequence@I$0A@$00$01$02$03$04$05@std@@@Z 10024ea0 f i Config.obj
 0001:00023f30       ??$encrypt@$0?GJHJCOJGIOBIIIAL@$0A@$00$01$02$03$04$05$06$07@detail@cx@@YA?AU?$char_array@$08@01@PBDU?$integer_sequence@I$0A@$00$01$02$03$04$05$06$07@std@@@Z 10024f30 f i Config.obj
 0001:00023ff0       ??$encrypt@$0?GJHJCOJGIOBIIIAL@$0A@$00$01$02$03$04$05@detail@cx@@YA?AU?$char_array@$06@01@PBDU?$integer_sequence@I$0A@$00$01$02$03$04$05@std@@@Z 10024ff0 f i Config.obj
 0001:00024080       ??$encrypt@$0?GJHJCOJGIOBIIIAM@$0A@$00$01$02$03@detail@cx@@YA?AU?$char_array@$04@01@PBDU?$integer_sequence@I$0A@$00$01$02$03@std@@@Z 10025080 f i Config.obj
 0001:000240f0       ??$encrypt@$0?GJHJCOJGIOBIIIAM@$0A@$00$01$02$03$04$05@detail@cx@@YA?AU?$char_array@$06@01@PBDU?$integer_sequence@I$0A@$00$01$02$03$04$05@std@@@Z 100250f0 f i Config.obj
 0001:00024180       ??$encrypt@$0?GJHJCOJGIOBIIIAN@$0A@$00$01$02$03$04$05$06$07@detail@cx@@YA?AU?$char_array@$08@01@PBDU?$integer_sequence@I$0A@$00$01$02$03$04$05$06$07@std@@@Z 10025180 f i Config.obj
 0001:00024230       ??$encrypt@$0?GJHJCOJGIOBIIIAN@$0A@$00$01$02$03$04$05@detail@cx@@YA?AU?$char_array@$06@01@PBDU?$integer_sequence@I$0A@$00$01$02$03$04$05@std@@@Z 10025230 f i Config.obj
 0001:000242c0       ??$encrypt@$0?GJHJCOJGIOBIIIAO@$0A@$00$01$02$03$04$05@detail@cx@@YA?AU?$char_array@$06@01@PBDU?$integer_sequence@I$0A@$00$01$02$03$04$05@std@@@Z 100252c0 f i Config.obj
 0001:00024340       ??$_Uninitialized_move@PAV?$basic_string@DU?$char_traits@D@std@@V?$allocator@D@2@@std@@PAV12@V?$allocator@V?$basic_string@DU?$char_traits@D@std@@V?$allocator@D@2@@std@@@2@@std@@YAPAV?$basic_string@DU?$char_traits@D@std@@V?$allocator@D@2@@0@QAV10@0PAV10@AAV?$allocator@V?$basic_string@DU?$char_traits@D@std@@V?$allocator@D@2@@std@@@0@@Z 10025340 f i Config.obj
 0001:000243a0       ??1sentry@?$basic_istream@DU?$char_traits@D@std@@@std@@QAE@XZ 100253a0 f i Config.obj
 0001:000243b0       ??1_Sentry_base@?$basic_istream@DU?$char_traits@D@std@@@std@@QAE@XZ 100253b0 f i Config.obj
 0001:00024420       ??$encrypt_at@$0?GJHJCOJGIOBIIHDD@@detail@cx@@YADPBDI@Z 10025420 f i Config.obj
 0001:00024480       ??$encrypt_at@$0?GJHJCOJGIOBIIHDE@@detail@cx@@YADPBDI@Z 10025480 f i Config.obj
 0001:000244e0       ??$encrypt_at@$0?GJHJCOJGIOBIIHDF@@detail@cx@@YADPBDI@Z 100254e0 f i Config.obj
 0001:00024540       ??$encrypt_at@$0?GJHJCOJGIOBIIHDG@@detail@cx@@YADPBDI@Z 10025540 f i Config.obj
 0001:000245a0       ??$encrypt_at@$0?GJHJCOJGIOBIIHDH@@detail@cx@@YADPBDI@Z 100255a0 f i Config.obj
 0001:00024600       ??$encrypt_at@$0?GJHJCOJGIOBIIHDI@@detail@cx@@YADPBDI@Z 10025600 f i Config.obj
 0001:00024660       ??$encrypt_at@$0?GJHJCOJGIOBIIHDJ@@detail@cx@@YADPBDI@Z 10025660 f i Config.obj
 0001:000246c0       ??$encrypt_at@$0?GJHJCOJGIOBIIHDK@@detail@cx@@YADPBDI@Z 100256c0 f i Config.obj
 0001:00024720       ??$encrypt_at@$0?GJHJCOJGIOBIIHDM@@detail@cx@@YADPBDI@Z 10025720 f i Config.obj
 0001:00024780       ??$encrypt_at@$0?GJHJCOJGIOBIIHDN@@detail@cx@@YADPBDI@Z 10025780 f i Config.obj
 0001:000247e0       ??$encrypt_at@$0?GJHJCOJGIOBIIHDO@@detail@cx@@YADPBDI@Z 100257e0 f i Config.obj
 0001:00024840       ??$encrypt_at@$0?GJHJCOJGIOBIIHEA@@detail@cx@@YADPBDI@Z 10025840 f i Config.obj
 0001:000248a0       ??$encrypt_at@$0?GJHJCOJGIOBIIHEB@@detail@cx@@YADPBDI@Z 100258a0 f i Config.obj
 0001:00024900       ??$encrypt_at@$0?GJHJCOJGIOBIIHEC@@detail@cx@@YADPBDI@Z 10025900 f i Config.obj
 0001:00024960       ??$encrypt_at@$0?GJHJCOJGIOBIIHED@@detail@cx@@YADPBDI@Z 10025960 f i Config.obj
 0001:000249c0       ??$encrypt_at@$0?GJHJCOJGIOBIIHEE@@detail@cx@@YADPBDI@Z 100259c0 f i Config.obj
 0001:00024a20       ??$encrypt_at@$0?GJHJCOJGIOBIIHEF@@detail@cx@@YADPBDI@Z 10025a20 f i Config.obj
 0001:00024a80       ??$encrypt_at@$0?GJHJCOJGIOBIIHEJ@@detail@cx@@YADPBDI@Z 10025a80 f i Config.obj
 0001:00024ae0       ??$encrypt_at@$0?GJHJCOJGIOBIIHEK@@detail@cx@@YADPBDI@Z 10025ae0 f i Config.obj
 0001:00024b40       ??$encrypt_at@$0?GJHJCOJGIOBIIHEL@@detail@cx@@YADPBDI@Z 10025b40 f i Config.obj
 0001:00024ba0       ??$encrypt_at@$0?GJHJCOJGIOBIIHEN@@detail@cx@@YADPBDI@Z 10025ba0 f i Config.obj
 0001:00024c00       ??$encrypt_at@$0?GJHJCOJGIOBIIHEO@@detail@cx@@YADPBDI@Z 10025c00 f i Config.obj
 0001:00024c60       ??$encrypt_at@$0?GJHJCOJGIOBIIHEP@@detail@cx@@YADPBDI@Z 10025c60 f i Config.obj
 0001:00024cc0       ??$encrypt_at@$0?GJHJCOJGIOBIIHFB@@detail@cx@@YADPBDI@Z 10025cc0 f i Config.obj
 0001:00024d20       ??$encrypt_at@$0?GJHJCOJGIOBIIHFC@@detail@cx@@YADPBDI@Z 10025d20 f i Config.obj
 0001:00024d80       ??$encrypt_at@$0?GJHJCOJGIOBIIHFD@@detail@cx@@YADPBDI@Z 10025d80 f i Config.obj
 0001:00024de0       ??$encrypt_at@$0?GJHJCOJGIOBIIHFF@@detail@cx@@YADPBDI@Z 10025de0 f i Config.obj
 0001:00024e40       ??$encrypt_at@$0?GJHJCOJGIOBIIHFG@@detail@cx@@YADPBDI@Z 10025e40 f i Config.obj
 0001:00024ea0       ??$encrypt_at@$0?GJHJCOJGIOBIIHFH@@detail@cx@@YADPBDI@Z 10025ea0 f i Config.obj
 0001:00024f00       ??$encrypt_at@$0?GJHJCOJGIOBIIHFK@@detail@cx@@YADPBDI@Z 10025f00 f i Config.obj
 0001:00024f60       ??$encrypt_at@$0?GJHJCOJGIOBIIHFL@@detail@cx@@YADPBDI@Z 10025f60 f i Config.obj
 0001:00024fc0       ??$encrypt_at@$0?GJHJCOJGIOBIIHFM@@detail@cx@@YADPBDI@Z 10025fc0 f i Config.obj
 0001:00025020       ??$encrypt_at@$0?GJHJCOJGIOBIIHFO@@detail@cx@@YADPBDI@Z 10026020 f i Config.obj
 0001:00025080       ??$encrypt_at@$0?GJHJCOJGIOBIIHFP@@detail@cx@@YADPBDI@Z 10026080 f i Config.obj
 0001:000250e0       ??$encrypt_at@$0?GJHJCOJGIOBIIHGA@@detail@cx@@YADPBDI@Z 100260e0 f i Config.obj
 0001:00025140       ??$encrypt_at@$0?GJHJCOJGIOBIIHGC@@detail@cx@@YADPBDI@Z 10026140 f i Config.obj
 0001:000251a0       ??$encrypt_at@$0?GJHJCOJGIOBIIHGD@@detail@cx@@YADPBDI@Z 100261a0 f i Config.obj
 0001:00025200       ??$encrypt_at@$0?GJHJCOJGIOBIIHGE@@detail@cx@@YADPBDI@Z 10026200 f i Config.obj
 0001:00025260       ??$encrypt_at@$0?GJHJCOJGIOBIIHGN@@detail@cx@@YADPBDI@Z 10026260 f i Config.obj
 0001:000252c0       ??$encrypt_at@$0?GJHJCOJGIOBIIHGO@@detail@cx@@YADPBDI@Z 100262c0 f i Config.obj
 0001:00025320       ??$encrypt_at@$0?GJHJCOJGIOBIIHGP@@detail@cx@@YADPBDI@Z 10026320 f i Config.obj
 0001:00025380       ??$encrypt_at@$0?GJHJCOJGIOBIIHHB@@detail@cx@@YADPBDI@Z 10026380 f i Config.obj
 0001:000253e0       ??$encrypt_at@$0?GJHJCOJGIOBIIHHC@@detail@cx@@YADPBDI@Z 100263e0 f i Config.obj
 0001:00025440       ??$encrypt_at@$0?GJHJCOJGIOBIIHHD@@detail@cx@@YADPBDI@Z 10026440 f i Config.obj
 0001:000254a0       ??$encrypt_at@$0?GJHJCOJGIOBIIHHF@@detail@cx@@YADPBDI@Z 100264a0 f i Config.obj
 0001:00025500       ??$encrypt_at@$0?GJHJCOJGIOBIIHHG@@detail@cx@@YADPBDI@Z 10026500 f i Config.obj
 0001:00025560       ??$encrypt_at@$0?GJHJCOJGIOBIIHHH@@detail@cx@@YADPBDI@Z 10026560 f i Config.obj
 0001:000255c0       ??$encrypt_at@$0?GJHJCOJGIOBIIHHI@@detail@cx@@YADPBDI@Z 100265c0 f i Config.obj
 0001:00025620       ??$encrypt_at@$0?GJHJCOJGIOBIIHHJ@@detail@cx@@YADPBDI@Z 10026620 f i Config.obj
 0001:00025680       ??$encrypt_at@$0?GJHJCOJGIOBIIHHK@@detail@cx@@YADPBDI@Z 10026680 f i Config.obj
 0001:000256e0       ??$encrypt_at@$0?GJHJCOJGIOBIIHHL@@detail@cx@@YADPBDI@Z 100266e0 f i Config.obj
 0001:00025740       ??$encrypt_at@$0?GJHJCOJGIOBIIHHM@@detail@cx@@YADPBDI@Z 10026740 f i Config.obj
 0001:000257a0       ??$encrypt_at@$0?GJHJCOJGIOBIIHHP@@detail@cx@@YADPBDI@Z 100267a0 f i Config.obj
 0001:00025800       ??$encrypt_at@$0?GJHJCOJGIOBIIHIA@@detail@cx@@YADPBDI@Z 10026800 f i Config.obj
 0001:00025860       ??$encrypt_at@$0?GJHJCOJGIOBIIHIB@@detail@cx@@YADPBDI@Z 10026860 f i Config.obj
 0001:000258c0       ??$encrypt_at@$0?GJHJCOJGIOBIIHID@@detail@cx@@YADPBDI@Z 100268c0 f i Config.obj
 0001:00025920       ??$encrypt_at@$0?GJHJCOJGIOBIIHIE@@detail@cx@@YADPBDI@Z 10026920 f i Config.obj
 0001:00025980       ??$encrypt_at@$0?GJHJCOJGIOBIIHIF@@detail@cx@@YADPBDI@Z 10026980 f i Config.obj
 0001:000259e0       ??$encrypt_at@$0?GJHJCOJGIOBIIHII@@detail@cx@@YADPBDI@Z 100269e0 f i Config.obj
 0001:00025a40       ??$encrypt_at@$0?GJHJCOJGIOBIIHIJ@@detail@cx@@YADPBDI@Z 10026a40 f i Config.obj
 0001:00025aa0       ??$encrypt_at@$0?GJHJCOJGIOBIIHIK@@detail@cx@@YADPBDI@Z 10026aa0 f i Config.obj
 0001:00025b00       ??$encrypt_at@$0?GJHJCOJGIOBIIHIL@@detail@cx@@YADPBDI@Z 10026b00 f i Config.obj
 0001:00025b60       ??$encrypt_at@$0?GJHJCOJGIOBIIHIM@@detail@cx@@YADPBDI@Z 10026b60 f i Config.obj
 0001:00025bc0       ??$encrypt_at@$0?GJHJCOJGIOBIIHIN@@detail@cx@@YADPBDI@Z 10026bc0 f i Config.obj
 0001:00025c20       ??$encrypt_at@$0?GJHJCOJGIOBIIHIO@@detail@cx@@YADPBDI@Z 10026c20 f i Config.obj
 0001:00025c80       ??$encrypt_at@$0?GJHJCOJGIOBIIHIP@@detail@cx@@YADPBDI@Z 10026c80 f i Config.obj
 0001:00025ce0       ??$encrypt_at@$0?GJHJCOJGIOBIIHJA@@detail@cx@@YADPBDI@Z 10026ce0 f i Config.obj
 0001:00025d40       ??$encrypt_at@$0?GJHJCOJGIOBIIHJB@@detail@cx@@YADPBDI@Z 10026d40 f i Config.obj
 0001:00025da0       ??$encrypt_at@$0?GJHJCOJGIOBIIHJC@@detail@cx@@YADPBDI@Z 10026da0 f i Config.obj
 0001:00025e00       ??$encrypt_at@$0?GJHJCOJGIOBIIHJD@@detail@cx@@YADPBDI@Z 10026e00 f i Config.obj
 0001:00025e60       ??$encrypt_at@$0?GJHJCOJGIOBIIHJE@@detail@cx@@YADPBDI@Z 10026e60 f i Config.obj
 0001:00025ec0       ??$encrypt_at@$0?GJHJCOJGIOBIIHJF@@detail@cx@@YADPBDI@Z 10026ec0 f i Config.obj
 0001:00025f20       ??$encrypt_at@$0?GJHJCOJGIOBIIHJG@@detail@cx@@YADPBDI@Z 10026f20 f i Config.obj
 0001:00025f80       ??$encrypt_at@$0?GJHJCOJGIOBIIHJH@@detail@cx@@YADPBDI@Z 10026f80 f i Config.obj
 0001:00025fe0       ??$encrypt_at@$0?GJHJCOJGIOBIIHJI@@detail@cx@@YADPBDI@Z 10026fe0 f i Config.obj
 0001:00026040       ??$encrypt_at@$0?GJHJCOJGIOBIIHJJ@@detail@cx@@YADPBDI@Z 10027040 f i Config.obj
 0001:000260a0       ??$encrypt_at@$0?GJHJCOJGIOBIIHJK@@detail@cx@@YADPBDI@Z 100270a0 f i Config.obj
 0001:00026100       ??$encrypt_at@$0?GJHJCOJGIOBIIHJL@@detail@cx@@YADPBDI@Z 10027100 f i Config.obj
 0001:00026160       ??$encrypt_at@$0?GJHJCOJGIOBIIHJM@@detail@cx@@YADPBDI@Z 10027160 f i Config.obj
 0001:000261c0       ??$encrypt_at@$0?GJHJCOJGIOBIIHJN@@detail@cx@@YADPBDI@Z 100271c0 f i Config.obj
 0001:00026220       ??$encrypt_at@$0?GJHJCOJGIOBIIHJP@@detail@cx@@YADPBDI@Z 10027220 f i Config.obj
 0001:00026280       ??$encrypt_at@$0?GJHJCOJGIOBIIHKA@@detail@cx@@YADPBDI@Z 10027280 f i Config.obj
 0001:000262e0       ??$encrypt_at@$0?GJHJCOJGIOBIIHKB@@detail@cx@@YADPBDI@Z 100272e0 f i Config.obj
 0001:00026340       ??$encrypt_at@$0?GJHJCOJGIOBIIHKC@@detail@cx@@YADPBDI@Z 10027340 f i Config.obj
 0001:000263a0       ??$encrypt_at@$0?GJHJCOJGIOBIIHKD@@detail@cx@@YADPBDI@Z 100273a0 f i Config.obj
 0001:00026400       ??$encrypt_at@$0?GJHJCOJGIOBIIHKE@@detail@cx@@YADPBDI@Z 10027400 f i Config.obj
 0001:00026460       ??$encrypt_at@$0?GJHJCOJGIOBIIHKI@@detail@cx@@YADPBDI@Z 10027460 f i Config.obj
 0001:000264c0       ??$encrypt_at@$0?GJHJCOJGIOBIIHLA@@detail@cx@@YADPBDI@Z 100274c0 f i Config.obj
 0001:00026520       ??$encrypt_at@$0?GJHJCOJGIOBIIHLB@@detail@cx@@YADPBDI@Z 10027520 f i Config.obj
 0001:00026580       ??$encrypt_at@$0?GJHJCOJGIOBIIHLC@@detail@cx@@YADPBDI@Z 10027580 f i Config.obj
 0001:000265e0       ??$encrypt_at@$0?GJHJCOJGIOBIIHLE@@detail@cx@@YADPBDI@Z 100275e0 f i Config.obj
 0001:00026640       ??$encrypt_at@$0?GJHJCOJGIOBIIHLF@@detail@cx@@YADPBDI@Z 10027640 f i Config.obj
 0001:000266a0       ??$encrypt_at@$0?GJHJCOJGIOBIIHLG@@detail@cx@@YADPBDI@Z 100276a0 f i Config.obj
 0001:00026700       ??$encrypt_at@$0?GJHJCOJGIOBIIHLH@@detail@cx@@YADPBDI@Z 10027700 f i Config.obj
 0001:00026760       ??$encrypt_at@$0?GJHJCOJGIOBIIHLJ@@detail@cx@@YADPBDI@Z 10027760 f i Config.obj
 0001:000267c0       ??$encrypt_at@$0?GJHJCOJGIOBIIHLK@@detail@cx@@YADPBDI@Z 100277c0 f i Config.obj
 0001:00026820       ??$encrypt_at@$0?GJHJCOJGIOBIIHLL@@detail@cx@@YADPBDI@Z 10027820 f i Config.obj
 0001:00026880       ??$encrypt_at@$0?GJHJCOJGIOBIIHLP@@detail@cx@@YADPBDI@Z 10027880 f i Config.obj
 0001:000268e0       ??$encrypt_at@$0?GJHJCOJGIOBIIHMA@@detail@cx@@YADPBDI@Z 100278e0 f i Config.obj
 0001:00026940       ??$encrypt_at@$0?GJHJCOJGIOBIIHMB@@detail@cx@@YADPBDI@Z 10027940 f i Config.obj
 0001:000269a0       ??$encrypt_at@$0?GJHJCOJGIOBIIHMD@@detail@cx@@YADPBDI@Z 100279a0 f i Config.obj
 0001:00026a00       ??$encrypt_at@$0?GJHJCOJGIOBIIHME@@detail@cx@@YADPBDI@Z 10027a00 f i Config.obj
 0001:00026a60       ??$encrypt_at@$0?GJHJCOJGIOBIIHMF@@detail@cx@@YADPBDI@Z 10027a60 f i Config.obj
 0001:00026ac0       ??$encrypt_at@$0?GJHJCOJGIOBIIHMG@@detail@cx@@YADPBDI@Z 10027ac0 f i Config.obj
 0001:00026b20       ??$encrypt_at@$0?GJHJCOJGIOBIIHMI@@detail@cx@@YADPBDI@Z 10027b20 f i Config.obj
 0001:00026b80       ??$encrypt_at@$0?GJHJCOJGIOBIIHMJ@@detail@cx@@YADPBDI@Z 10027b80 f i Config.obj
 0001:00026be0       ??$encrypt_at@$0?GJHJCOJGIOBIIHMK@@detail@cx@@YADPBDI@Z 10027be0 f i Config.obj
 0001:00026c40       ??$encrypt_at@$0?GJHJCOJGIOBIIHMM@@detail@cx@@YADPBDI@Z 10027c40 f i Config.obj
 0001:00026ca0       ??$encrypt_at@$0?GJHJCOJGIOBIIHMN@@detail@cx@@YADPBDI@Z 10027ca0 f i Config.obj
 0001:00026d00       ??$encrypt_at@$0?GJHJCOJGIOBIIHNB@@detail@cx@@YADPBDI@Z 10027d00 f i Config.obj
 0001:00026d60       ??$encrypt_at@$0?GJHJCOJGIOBIIHNC@@detail@cx@@YADPBDI@Z 10027d60 f i Config.obj
 0001:00026dc0       ??$encrypt_at@$0?GJHJCOJGIOBIIHND@@detail@cx@@YADPBDI@Z 10027dc0 f i Config.obj
 0001:00026e20       ??$encrypt_at@$0?GJHJCOJGIOBIIHNE@@detail@cx@@YADPBDI@Z 10027e20 f i Config.obj
 0001:00026e80       ??$encrypt_at@$0?GJHJCOJGIOBIIHNF@@detail@cx@@YADPBDI@Z 10027e80 f i Config.obj
 0001:00026ee0       ??$encrypt_at@$0?GJHJCOJGIOBIIHNH@@detail@cx@@YADPBDI@Z 10027ee0 f i Config.obj
 0001:00026f40       ??$encrypt_at@$0?GJHJCOJGIOBIIHNI@@detail@cx@@YADPBDI@Z 10027f40 f i Config.obj
 0001:00026fa0       ??$encrypt_at@$0?GJHJCOJGIOBIIHNJ@@detail@cx@@YADPBDI@Z 10027fa0 f i Config.obj
 0001:00027000       ??$encrypt_at@$0?GJHJCOJGIOBIIHNL@@detail@cx@@YADPBDI@Z 10028000 f i Config.obj
 0001:00027060       ??$encrypt_at@$0?GJHJCOJGIOBIIHNM@@detail@cx@@YADPBDI@Z 10028060 f i Config.obj
 0001:000270c0       ??$encrypt_at@$0?GJHJCOJGIOBIIHNN@@detail@cx@@YADPBDI@Z 100280c0 f i Config.obj
 0001:00027120       ??$encrypt_at@$0?GJHJCOJGIOBIIHNO@@detail@cx@@YADPBDI@Z 10028120 f i Config.obj
 0001:00027180       ??$encrypt_at@$0?GJHJCOJGIOBIIHNP@@detail@cx@@YADPBDI@Z 10028180 f i Config.obj
 0001:000271e0       ??$encrypt_at@$0?GJHJCOJGIOBIIHOA@@detail@cx@@YADPBDI@Z 100281e0 f i Config.obj
 0001:00027240       ??$encrypt_at@$0?GJHJCOJGIOBIIHOB@@detail@cx@@YADPBDI@Z 10028240 f i Config.obj
 0001:000272a0       ??$encrypt_at@$0?GJHJCOJGIOBIIHOD@@detail@cx@@YADPBDI@Z 100282a0 f i Config.obj
 0001:00027300       ??$encrypt_at@$0?GJHJCOJGIOBIIHOG@@detail@cx@@YADPBDI@Z 10028300 f i Config.obj
 0001:00027360       ??$encrypt_at@$0?GJHJCOJGIOBIIHOH@@detail@cx@@YADPBDI@Z 10028360 f i Config.obj
 0001:000273c0       ??$encrypt_at@$0?GJHJCOJGIOBIIHOI@@detail@cx@@YADPBDI@Z 100283c0 f i Config.obj
 0001:00027420       ??$encrypt_at@$0?GJHJCOJGIOBIIHOJ@@detail@cx@@YADPBDI@Z 10028420 f i Config.obj
 0001:00027480       ??$encrypt_at@$0?GJHJCOJGIOBIIHOK@@detail@cx@@YADPBDI@Z 10028480 f i Config.obj
 0001:000274e0       ??$encrypt_at@$0?GJHJCOJGIOBIIHOL@@detail@cx@@YADPBDI@Z 100284e0 f i Config.obj
 0001:00027540       ??$encrypt_at@$0?GJHJCOJGIOBIIHOM@@detail@cx@@YADPBDI@Z 10028540 f i Config.obj
 0001:000275a0       ??$encrypt_at@$0?GJHJCOJGIOBIIHON@@detail@cx@@YADPBDI@Z 100285a0 f i Config.obj
 0001:00027600       ??$encrypt_at@$0?GJHJCOJGIOBIIHOO@@detail@cx@@YADPBDI@Z 10028600 f i Config.obj
 0001:00027660       ??$encrypt_at@$0?GJHJCOJGIOBIIHOP@@detail@cx@@YADPBDI@Z 10028660 f i Config.obj
 0001:000276c0       ??$encrypt_at@$0?GJHJCOJGIOBIIHPA@@detail@cx@@YADPBDI@Z 100286c0 f i Config.obj
 0001:00027720       ??$encrypt_at@$0?GJHJCOJGIOBIIHPB@@detail@cx@@YADPBDI@Z 10028720 f i Config.obj
 0001:00027780       ??$encrypt_at@$0?GJHJCOJGIOBIIHPC@@detail@cx@@YADPBDI@Z 10028780 f i Config.obj
 0001:000277e0       ??$encrypt_at@$0?GJHJCOJGIOBIIHPD@@detail@cx@@YADPBDI@Z 100287e0 f i Config.obj
 0001:00027840       ??$encrypt_at@$0?GJHJCOJGIOBIIHPE@@detail@cx@@YADPBDI@Z 10028840 f i Config.obj
 0001:000278a0       ??$encrypt_at@$0?GJHJCOJGIOBIIHPF@@detail@cx@@YADPBDI@Z 100288a0 f i Config.obj
 0001:00027900       ??$encrypt_at@$0?GJHJCOJGIOBIIHPG@@detail@cx@@YADPBDI@Z 10028900 f i Config.obj
 0001:00027960       ??$encrypt_at@$0?GJHJCOJGIOBIIHPI@@detail@cx@@YADPBDI@Z 10028960 f i Config.obj
 0001:000279c0       ??$encrypt_at@$0?GJHJCOJGIOBIIHPJ@@detail@cx@@YADPBDI@Z 100289c0 f i Config.obj
 0001:00027a20       ??$encrypt_at@$0?GJHJCOJGIOBIIHPK@@detail@cx@@YADPBDI@Z 10028a20 f i Config.obj
 0001:00027a80       ??$encrypt_at@$0?GJHJCOJGIOBIIHPL@@detail@cx@@YADPBDI@Z 10028a80 f i Config.obj
 0001:00027ae0       ??$encrypt_at@$0?GJHJCOJGIOBIIHPM@@detail@cx@@YADPBDI@Z 10028ae0 f i Config.obj
 0001:00027b40       ??$encrypt_at@$0?GJHJCOJGIOBIIHPN@@detail@cx@@YADPBDI@Z 10028b40 f i Config.obj
 0001:00027ba0       ??$encrypt_at@$0?GJHJCOJGIOBIIHPO@@detail@cx@@YADPBDI@Z 10028ba0 f i Config.obj
 0001:00027c00       ??$encrypt_at@$0?GJHJCOJGIOBIIHPP@@detail@cx@@YADPBDI@Z 10028c00 f i Config.obj
 0001:00027c60       ??$encrypt_at@$0?GJHJCOJGIOBIIIAA@@detail@cx@@YADPBDI@Z 10028c60 f i Config.obj
 0001:00027cc0       ??$encrypt_at@$0?GJHJCOJGIOBIIIAB@@detail@cx@@YADPBDI@Z 10028cc0 f i Config.obj
 0001:00027d20       ??$encrypt_at@$0?GJHJCOJGIOBIIIAC@@detail@cx@@YADPBDI@Z 10028d20 f i Config.obj
 0001:00027d80       ??$encrypt_at@$0?GJHJCOJGIOBIIIAD@@detail@cx@@YADPBDI@Z 10028d80 f i Config.obj
 0001:00027de0       ??$encrypt_at@$0?GJHJCOJGIOBIIIAE@@detail@cx@@YADPBDI@Z 10028de0 f i Config.obj
 0001:00027e40       ??$encrypt_at@$0?GJHJCOJGIOBIIIAF@@detail@cx@@YADPBDI@Z 10028e40 f i Config.obj
 0001:00027ea0       ??$encrypt_at@$0?GJHJCOJGIOBIIIAG@@detail@cx@@YADPBDI@Z 10028ea0 f i Config.obj
 0001:00027f00       ??$encrypt_at@$0?GJHJCOJGIOBIIIAH@@detail@cx@@YADPBDI@Z 10028f00 f i Config.obj
 0001:00027f60       ??$encrypt_at@$0?GJHJCOJGIOBIIIAI@@detail@cx@@YADPBDI@Z 10028f60 f i Config.obj
 0001:00027fc0       ??$encrypt_at@$0?GJHJCOJGIOBIIIAJ@@detail@cx@@YADPBDI@Z 10028fc0 f i Config.obj
 0001:00028020       ??$encrypt_at@$0?GJHJCOJGIOBIIIAK@@detail@cx@@YADPBDI@Z 10029020 f i Config.obj
 0001:00028080       ??$encrypt_at@$0?GJHJCOJGIOBIIIAL@@detail@cx@@YADPBDI@Z 10029080 f i Config.obj
 0001:000280e0       ??$encrypt_at@$0?GJHJCOJGIOBIIIAM@@detail@cx@@YADPBDI@Z 100290e0 f i Config.obj
 0001:00028140       ??$encrypt_at@$0?GJHJCOJGIOBIIIAN@@detail@cx@@YADPBDI@Z 10029140 f i Config.obj
 0001:000281a0       ??$encrypt_at@$0?GJHJCOJGIOBIIIAO@@detail@cx@@YADPBDI@Z 100291a0 f i Config.obj
 0001:000281fe       ??_E?$basic_fstream@DU?$char_traits@D@std@@@std@@$4PPPPPPPM@A@AEPAXI@Z 100291fe f i Config.obj
 0001:00028210       ??B?$encrypted_string@$0LMBCJHMDOOADOAD@$0FJ@@cx@@QBE?AV?$basic_string@DU?$char_traits@D@std@@V?$allocator@D@2@@std@@XZ 10029210 f i Offsets.obj
 0001:00028240       ??B?$encrypted_string@$0LMBCJHMDOOADOAD@$0BE@@cx@@QBE?AV?$basic_string@DU?$char_traits@D@std@@V?$allocator@D@2@@std@@XZ 10029240 f i Offsets.obj
 0001:00028270       ??B?$encrypted_string@$0LMBCJHMDOOADOAC@$0KK@@cx@@QBE?AV?$basic_string@DU?$char_traits@D@std@@V?$allocator@D@2@@std@@XZ 10029270 f i Offsets.obj
 0001:000282a0       ??B?$encrypted_string@$0LMBCJHMDOOADOAC@$0BE@@cx@@QBE?AV?$basic_string@DU?$char_traits@D@std@@V?$allocator@D@2@@std@@XZ 100292a0 f i Offsets.obj
 0001:000282d0       ??B?$encrypted_string@$0LMBCJHMDOOADOAB@$0BI@@cx@@QBE?AV?$basic_string@DU?$char_traits@D@std@@V?$allocator@D@2@@std@@XZ 100292d0 f i Offsets.obj
 0001:00028300       ??B?$encrypted_string@$0LMBCJHMDOOADOAB@$0BE@@cx@@QBE?AV?$basic_string@DU?$char_traits@D@std@@V?$allocator@D@2@@std@@XZ 10029300 f i Offsets.obj
 0001:00028330       ??B?$encrypted_string@$0LMBCJHMDOOADOAA@$0DD@@cx@@QBE?AV?$basic_string@DU?$char_traits@D@std@@V?$allocator@D@2@@std@@XZ 10029330 f i Offsets.obj
 0001:00028360       ??B?$encrypted_string@$0LMBCJHMDOOADOAA@$0BE@@cx@@QBE?AV?$basic_string@DU?$char_traits@D@std@@V?$allocator@D@2@@std@@XZ 10029360 f i Offsets.obj
 0001:00028390       ??B?$encrypted_string@$0LMBCJHMDOOADNPP@$0CB@@cx@@QBE?AV?$basic_string@DU?$char_traits@D@std@@V?$allocator@D@2@@std@@XZ 10029390 f i Offsets.obj
 0001:000283c0       ??B?$encrypted_string@$0LMBCJHMDOOADNPP@$0BB@@cx@@QBE?AV?$basic_string@DU?$char_traits@D@std@@V?$allocator@D@2@@std@@XZ 100293c0 f i Offsets.obj
 0001:000283f0       ??B?$encrypted_string@$0LMBCJHMDOOADNPN@$0CL@@cx@@QBE?AV?$basic_string@DU?$char_traits@D@std@@V?$allocator@D@2@@std@@XZ 100293f0 f i Offsets.obj
 0001:00028420       ??B?$encrypted_string@$0LMBCJHMDOOADNPN@$0BE@@cx@@QBE?AV?$basic_string@DU?$char_traits@D@std@@V?$allocator@D@2@@std@@XZ 10029420 f i Offsets.obj
 0001:00028450       ??B?$encrypted_string@$0LMBCJHMDOOADNPL@$0P@@cx@@QBE?AV?$basic_string@DU?$char_traits@D@std@@V?$allocator@D@2@@std@@XZ 10029450 f i Offsets.obj
 0001:00028480       ??B?$encrypted_string@$0LMBCJHMDOOADNPL@$0BI@@cx@@QBE?AV?$basic_string@DU?$char_traits@D@std@@V?$allocator@D@2@@std@@XZ 10029480 f i Offsets.obj
 0001:000284b0       ?enc@?$XorString@$0BD@$0HJ@@XorCompileTime@@ABEDD@Z 100294b0 f i Offsets.obj
 0001:000284b0       ?dec@?$XorString@$0BH@$0HP@@XorCompileTime@@ABEDD@Z 100294b0 f i Offsets.obj
 0001:000284b0       ?dec@?$XorString@$0BC@$0GK@@XorCompileTime@@ABEDD@Z 100294b0 f i Offsets.obj
 0001:000284b0       ?enc@?$XorString@$0BD@$0GB@@XorCompileTime@@ABEDD@Z 100294b0 f i Offsets.obj
 0001:000284b0       ?dec@?$XorString@$0BA@$0GC@@XorCompileTime@@ABEDD@Z 100294b0 f i Offsets.obj
 0001:000284b0       ?dec@?$XorString@$0BD@$0GL@@XorCompileTime@@ABEDD@Z 100294b0 f i Offsets.obj
 0001:000284b0       ?enc@?$XorString@$0BD@$0GD@@XorCompileTime@@ABEDD@Z 100294b0 f i Offsets.obj
 0001:000284b0       ?dec@?$XorString@$0BD@$0GF@@XorCompileTime@@ABEDD@Z 100294b0 f i Offsets.obj
 0001:000284b0       ?enc@?$XorString@$0O@$0GO@@XorCompileTime@@ABEDD@Z 100294b0 f i Offsets.obj
 0001:000284b0       ?dec@?$XorString@$0BD@$0FP@@XorCompileTime@@ABEDD@Z 100294b0 f i Offsets.obj
 0001:000284b0       ?dec@?$XorString@$0BD@$0GB@@XorCompileTime@@ABEDD@Z 100294b0 f i Offsets.obj
 0001:000284b0       ?dec@?$XorString@$0O@$0GO@@XorCompileTime@@ABEDD@Z 100294b0 f i Offsets.obj
 0001:000284b0       ?enc@?$XorString@$0BD@$0HD@@XorCompileTime@@ABEDD@Z 100294b0 f i Offsets.obj
 0001:000284b0       ?enc@?$XorString@$0BH@$0IB@@XorCompileTime@@ABEDD@Z 100294b0 f i Offsets.obj
 0001:000284b0       ?enc@?$XorString@$0BD@$0GP@@XorCompileTime@@ABEDD@Z 100294b0 f i Offsets.obj
 0001:000284b0       ?enc@?$XorString@$0BJ@$0HM@@XorCompileTime@@ABEDD@Z 100294b0 f i Offsets.obj
 0001:000284b0       ?dec@?$XorString@$0BC@$0GG@@XorCompileTime@@ABEDD@Z 100294b0 f i Offsets.obj
 0001:000284b0       ?dec@?$XorString@$0BD@$0GH@@XorCompileTime@@ABEDD@Z 100294b0 f i Offsets.obj
 0001:000284b0       ?dec@?$XorString@$07$0HI@@XorCompileTime@@ABEDD@Z 100294b0 f i Offsets.obj
 0001:000284b0       ?enc@?$XorString@$0BD@$0GE@@XorCompileTime@@ABEDD@Z 100294b0 f i Offsets.obj
 0001:000284b0       ?dec@?$XorString@$0BD@$0GJ@@XorCompileTime@@ABEDD@Z 100294b0 f i Offsets.obj
 0001:000284b0       ?dec@?$XorString@$0BD@$0HF@@XorCompileTime@@ABEDD@Z 100294b0 f i Offsets.obj
 0001:000284b0       ?enc@?$XorString@$0BH@$0HP@@XorCompileTime@@ABEDD@Z 100294b0 f i Offsets.obj
 0001:000284b0       ?dec@?$XorString@$0BG@$0IC@@XorCompileTime@@ABEDD@Z 100294b0 f i Offsets.obj
 0001:000284b0       ?dec@?$XorString@$0M@$0HC@@XorCompileTime@@ABEDD@Z 100294b0 f i Offsets.obj
 0001:000284b0       ?enc@?$XorString@$0N@$0HA@@XorCompileTime@@ABEDD@Z 100294b0 f i Offsets.obj
 0001:000284b0       ?dec@?$XorString@$0BJ@$0HM@@XorCompileTime@@ABEDD@Z 100294b0 f i Offsets.obj
 0001:000284b0       ?dec@?$XorString@$0M@$0HE@@XorCompileTime@@ABEDD@Z 100294b0 f i Offsets.obj
 0001:000284b0       ?dec@?$XorString@$0BD@$0GD@@XorCompileTime@@ABEDD@Z 100294b0 f i Offsets.obj
 0001:000284b0       ?enc@?$XorString@$0BA@$0HG@@XorCompileTime@@ABEDD@Z 100294b0 f i Offsets.obj
 0001:000284b0       ?enc@?$XorString@$07$0HI@@XorCompileTime@@ABEDD@Z 100294b0 f i Offsets.obj
 0001:000284b0       ?enc@?$XorString@$0BD@$0GN@@XorCompileTime@@ABEDD@Z 100294b0 f i Offsets.obj
 0001:000284b0       ?dec@?$XorString@$05$0GM@@XorCompileTime@@ABEDD@Z 100294b0 f i Offsets.obj
 0001:000284b0       ?dec@?$XorString@$0BK@$0HK@@XorCompileTime@@ABEDD@Z 100294b0 f i Offsets.obj
 0001:000284b0       ?dec@?$XorString@$0BD@$0HJ@@XorCompileTime@@ABEDD@Z 100294b0 f i Offsets.obj
 0001:000284b0       ?enc@?$XorString@$05$0GM@@XorCompileTime@@ABEDD@Z 100294b0 f i Offsets.obj
 0001:000284b0       ?dec@?$XorString@$0BB@$0GI@@XorCompileTime@@ABEDD@Z 100294b0 f i Offsets.obj
 0001:000284b0       ?enc@?$XorString@$0BD@$0HH@@XorCompileTime@@ABEDD@Z 100294b0 f i Offsets.obj
 0001:000284b0       ?enc@?$XorString@$0BD@$0HB@@XorCompileTime@@ABEDD@Z 100294b0 f i Offsets.obj
 0001:000284b0       ?dec@?$XorString@$0BD@$0GP@@XorCompileTime@@ABEDD@Z 100294b0 f i Offsets.obj
 0001:000284b0       ?enc@?$XorString@$0BD@$0GJ@@XorCompileTime@@ABEDD@Z 100294b0 f i Offsets.obj
 0001:000284b0       ?dec@?$XorString@$0BD@$0HB@@XorCompileTime@@ABEDD@Z 100294b0 f i Offsets.obj
 0001:000284b0       ?dec@?$XorString@$0BD@$0HH@@XorCompileTime@@ABEDD@Z 100294b0 f i Offsets.obj
 0001:000284b0       ?dec@?$XorString@$0BD@$0GE@@XorCompileTime@@ABEDD@Z 100294b0 f i Offsets.obj
 0001:000284b0       ?enc@?$XorString@$0M@$0HE@@XorCompileTime@@ABEDD@Z 100294b0 f i Offsets.obj
 0001:000284b0       ?enc@?$XorString@$0BD@$0HF@@XorCompileTime@@ABEDD@Z 100294b0 f i Offsets.obj
 0001:000284b0       ?enc@?$XorString@$0M@$0HC@@XorCompileTime@@ABEDD@Z 100294b0 f i Offsets.obj
 0001:000284b0       ?enc@?$XorString@$0BC@$0GG@@XorCompileTime@@ABEDD@Z 100294b0 f i Offsets.obj
 0001:000284b0       ?enc@?$XorString@$0BD@$0GH@@XorCompileTime@@ABEDD@Z 100294b0 f i Offsets.obj
 0001:000284b0       ?dec@?$XorString@$0N@$0HA@@XorCompileTime@@ABEDD@Z 100294b0 f i Offsets.obj
 0001:000284b0       ?enc@?$XorString@$0BD@$0GF@@XorCompileTime@@ABEDD@Z 100294b0 f i Offsets.obj
 0001:000284b0       ?enc@?$XorString@$0BA@$0GC@@XorCompileTime@@ABEDD@Z 100294b0 f i Offsets.obj
 0001:000284b0       ?enc@?$XorString@$0BD@$0FP@@XorCompileTime@@ABEDD@Z 100294b0 f i Offsets.obj
 0001:000284b0       ?enc@?$XorString@$0BB@$0GI@@XorCompileTime@@ABEDD@Z 100294b0 f i Offsets.obj
 0001:000284b0       ?enc@?$XorString@$0BD@$0GL@@XorCompileTime@@ABEDD@Z 100294b0 f i Offsets.obj
 0001:000284b0       ?enc@?$XorString@$0BH@$0HN@@XorCompileTime@@ABEDD@Z 100294b0 f i Offsets.obj
 0001:000284b0       ?dec@?$XorString@$0BA@$0HG@@XorCompileTime@@ABEDD@Z 100294b0 f i Offsets.obj
 0001:000284b0       ?dec@?$XorString@$0BH@$0IB@@XorCompileTime@@ABEDD@Z 100294b0 f i Offsets.obj
 0001:000284b0       ?dec@?$XorString@$0BD@$0GN@@XorCompileTime@@ABEDD@Z 100294b0 f i Offsets.obj
 0001:000284b0       ?dec@?$XorString@$0BH@$0HN@@XorCompileTime@@ABEDD@Z 100294b0 f i Offsets.obj
 0001:000284b0       ?enc@?$XorString@$0BH@$0IA@@XorCompileTime@@ABEDD@Z 100294b0 f i Offsets.obj
 0001:000284b0       ?dec@?$XorString@$0BG@$0HO@@XorCompileTime@@ABEDD@Z 100294b0 f i Offsets.obj
 0001:000284b0       ?dec@?$XorString@$0BD@$0HD@@XorCompileTime@@ABEDD@Z 100294b0 f i Offsets.obj
 0001:000284b0       ?enc@?$XorString@$0BD@$0HL@@XorCompileTime@@ABEDD@Z 100294b0 f i Offsets.obj
 0001:000284b0       ?enc@?$XorString@$0BG@$0IC@@XorCompileTime@@ABEDD@Z 100294b0 f i Offsets.obj
 0001:000284b0       ?dec@?$XorString@$0BH@$0IA@@XorCompileTime@@ABEDD@Z 100294b0 f i Offsets.obj
 0001:000284b0       ?enc@?$XorString@$0BC@$0GK@@XorCompileTime@@ABEDD@Z 100294b0 f i Offsets.obj
 0001:000284b0       ?enc@?$XorString@$0BK@$0HK@@XorCompileTime@@ABEDD@Z 100294b0 f i Offsets.obj
 0001:000284b0       ?enc@?$XorString@$0BG@$0HO@@XorCompileTime@@ABEDD@Z 100294b0 f i Offsets.obj
 0001:000284b0       ?dec@?$XorString@$0BD@$0HL@@XorCompileTime@@ABEDD@Z 100294b0 f i Offsets.obj
 0001:000284c0       ??$make_encrypted_string@$0LMBCJHMDOOADNPL@$0BI@@cx@@YA?AV?$encrypted_string@$0LMBCJHMDOOADNPL@$0BI@@0@AAY0BI@$$CBD@Z 100294c0 f i Offsets.obj
 0001:00028680       ??$make_encrypted_string@$0LMBCJHMDOOADNPL@$0P@@cx@@YA?AV?$encrypted_string@$0LMBCJHMDOOADNPL@$0P@@0@AAY0P@$$CBD@Z 10029680 f i Offsets.obj
 0001:000287a0       ??$make_encrypted_string@$0LMBCJHMDOOADNPN@$0BE@@cx@@YA?AV?$encrypted_string@$0LMBCJHMDOOADNPN@$0BE@@0@AAY0BE@$$CBD@Z 100297a0 f i Offsets.obj
 0001:00028920       ??$make_encrypted_string@$0LMBCJHMDOOADNPN@$0CL@@cx@@YA?AV?$encrypted_string@$0LMBCJHMDOOADNPN@$0CL@@0@AAY0CL@$$CBD@Z 10029920 f i Offsets.obj
 0001:00028960       ??$make_encrypted_string@$0LMBCJHMDOOADNPP@$0BB@@cx@@YA?AV?$encrypted_string@$0LMBCJHMDOOADNPP@$0BB@@0@AAY0BB@$$CBD@Z 10029960 f i Offsets.obj
 0001:00028aa0       ??$make_encrypted_string@$0LMBCJHMDOOADNPP@$0CB@@cx@@YA?AV?$encrypted_string@$0LMBCJHMDOOADNPP@$0CB@@0@AAY0CB@$$CBD@Z 10029aa0 f i Offsets.obj
 0001:00028ad0       ??$make_encrypted_string@$0LMBCJHMDOOADOAA@$0BE@@cx@@YA?AV?$encrypted_string@$0LMBCJHMDOOADOAA@$0BE@@0@AAY0BE@$$CBD@Z 10029ad0 f i Offsets.obj
 0001:00028c50       ??$make_encrypted_string@$0LMBCJHMDOOADOAA@$0DD@@cx@@YA?AV?$encrypted_string@$0LMBCJHMDOOADOAA@$0DD@@0@AAY0DD@$$CBD@Z 10029c50 f i Offsets.obj
 0001:00028c90       ??$make_encrypted_string@$0LMBCJHMDOOADOAB@$0BE@@cx@@YA?AV?$encrypted_string@$0LMBCJHMDOOADOAB@$0BE@@0@AAY0BE@$$CBD@Z 10029c90 f i Offsets.obj
 0001:00028e10       ??$make_encrypted_string@$0LMBCJHMDOOADOAB@$0BI@@cx@@YA?AV?$encrypted_string@$0LMBCJHMDOOADOAB@$0BI@@0@AAY0BI@$$CBD@Z 10029e10 f i Offsets.obj
 0001:00028fd0       ??$make_encrypted_string@$0LMBCJHMDOOADOAC@$0BE@@cx@@YA?AV?$encrypted_string@$0LMBCJHMDOOADOAC@$0BE@@0@AAY0BE@$$CBD@Z 10029fd0 f i Offsets.obj
 0001:00029150       ??$make_encrypted_string@$0LMBCJHMDOOADOAC@$0KK@@cx@@YA?AV?$encrypted_string@$0LMBCJHMDOOADOAC@$0KK@@0@AAY0KK@$$CBD@Z 1002a150 f i Offsets.obj
 0001:000291b0       ??$make_encrypted_string@$0LMBCJHMDOOADOAD@$0BE@@cx@@YA?AV?$encrypted_string@$0LMBCJHMDOOADOAD@$0BE@@0@AAY0BE@$$CBD@Z 1002a1b0 f i Offsets.obj
 0001:00029330       ??$make_encrypted_string@$0LMBCJHMDOOADOAD@$0FJ@@cx@@YA?AV?$encrypted_string@$0LMBCJHMDOOADOAD@$0FJ@@0@AAY0FJ@$$CBD@Z 1002a330 f i Offsets.obj
 0001:00029380       ??$encrypt@$0LMBCJHMDOOADOAD@$0A@$00$01$02$03$04$05$06$07$08$09$0L@$0M@$0N@$0O@$0P@$0BA@$0BB@$0BC@$0BD@$0BE@$0BF@$0BG@$0BH@$0BI@$0BJ@$0BK@$0BL@$0BM@$0BN@$0BO@$0BP@$0CA@$0CB@$0CC@$0CD@$0CE@$0CF@$0CG@$0CH@$0CI@$0CJ@$0CK@$0CL@$0CM@$0CN@$0CO@$0CP@$0DA@$0DB@$0DC@$0DD@$0DE@$0DF@$0DG@$0DH@$0DI@$0DJ@$0DK@$0DL@$0DM@$0DN@$0DO@$0DP@$0EA@$0EB@$0EC@$0ED@$0EE@$0EF@$0EG@$0EH@$0EI@$0EJ@$0EK@$0EL@$0EM@$0EN@$0EO@$0EP@$0FA@$0FB@$0FC@$0FD@$0FE@$0FF@$0FG@$0FH@@detail@cx@@YA?AU?$char_array@$0FI@@01@PBDU?$integer_sequence@I$0A@$00$01$02$03$04$05$06$07$08$09$0L@$0M@$0N@$0O@$0P@$0BA@$0BB@$0BC@$0BD@$0BE@$0BF@$0BG@$0BH@$0BI@$0BJ@$0BK@$0BL@$0BM@$0BN@$0BO@$0BP@$0CA@$0CB@$0CC@$0CD@$0CE@$0CF@$0CG@$0CH@$0CI@$0CJ@$0CK@$0CL@$0CM@$0CN@$0CO@$0CP@$0DA@$0DB@$0DC@$0DD@$0DE@$0DF@$0DG@$0DH@$0DI@$0DJ@$0DK@$0DL@$0DM@$0DN@$0DO@$0DP@$0EA@$0EB@$0EC@$0ED@$0EE@$0EF@$0EG@$0EH@$0EI@$0EJ@$0EK@$0EL@$0EM@$0EN@$0EO@$0EP@$0FA@$0FB@$0FC@$0FD@$0FE@$0FF@$0FG@$0FH@@std@@@Z 1002a380 f i Offsets.obj
 0001:000299c0       ??$encrypt@$0LMBCJHMDOOADOAC@$0A@$00$01$02$03$04$05$06$07$08$09$0L@$0M@$0N@$0O@$0P@$0BA@$0BB@$0BC@$0BD@$0BE@$0BF@$0BG@$0BH@$0BI@$0BJ@$0BK@$0BL@$0BM@$0BN@$0BO@$0BP@$0CA@$0CB@$0CC@$0CD@$0CE@$0CF@$0CG@$0CH@$0CI@$0CJ@$0CK@$0CL@$0CM@$0CN@$0CO@$0CP@$0DA@$0DB@$0DC@$0DD@$0DE@$0DF@$0DG@$0DH@$0DI@$0DJ@$0DK@$0DL@$0DM@$0DN@$0DO@$0DP@$0EA@$0EB@$0EC@$0ED@$0EE@$0EF@$0EG@$0EH@$0EI@$0EJ@$0EK@$0EL@$0EM@$0EN@$0EO@$0EP@$0FA@$0FB@$0FC@$0FD@$0FE@$0FF@$0FG@$0FH@$0FI@$0FJ@$0FK@$0FL@$0FM@$0FN@$0FO@$0FP@$0GA@$0GB@$0GC@$0GD@$0GE@$0GF@$0GG@$0GH@$0GI@$0GJ@$0GK@$0GL@$0GM@$0GN@$0GO@$0GP@$0HA@$0HB@$0HC@$0HD@$0HE@$0HF@$0HG@$0HH@$0HI@$0HJ@$0HK@$0HL@$0HM@$0HN@$0HO@$0HP@$0IA@$0IB@$0IC@$0ID@$0IE@$0IF@$0IG@$0IH@$0II@$0IJ@$0IK@$0IL@$0IM@$0IN@$0IO@$0IP@$0JA@$0JB@$0JC@$0JD@$0JE@$0JF@$0JG@$0JH@$0JI@$0JJ@$0JK@$0JL@$0JM@$0JN@$0JO@$0JP@$0KA@$0KB@$0KC@$0KD@$0KE@$0KF@$0KG@$0KH@$0KI@@detail@cx@@YA?AU?$char_array@$0KJ@@01@PBDU?$integer_sequence@I$0A@$00$01$02$03$04$05$06$07$08$09$0L@$0M@$0N@$0O@$0P@$0BA@$0BB@$0BC@$0BD@$0BE@$0BF@$0BG@$0BH@$0BI@$0BJ@$0BK@$0BL@$0BM@$0BN@$0BO@$0BP@$0CA@$0CB@$0CC@$0CD@$0CE@$0CF@$0CG@$0CH@$0CI@$0CJ@$0CK@$0CL@$0CM@$0CN@$0CO@$0CP@$0DA@$0DB@$0DC@$0DD@$0DE@$0DF@$0DG@$0DH@$0DI@$0DJ@$0DK@$0DL@$0DM@$0DN@$0DO@$0DP@$0EA@$0EB@$0EC@$0ED@$0EE@$0EF@$0EG@$0EH@$0EI@$0EJ@$0EK@$0EL@$0EM@$0EN@$0EO@$0EP@$0FA@$0FB@$0FC@$0FD@$0FE@$0FF@$0FG@$0FH@$0FI@$0FJ@$0FK@$0FL@$0FM@$0FN@$0FO@$0FP@$0GA@$0GB@$0GC@$0GD@$0GE@$0GF@$0GG@$0GH@$0GI@$0GJ@$0GK@$0GL@$0GM@$0GN@$0GO@$0GP@$0HA@$0HB@$0HC@$0HD@$0HE@$0HF@$0HG@$0HH@$0HI@$0HJ@$0HK@$0HL@$0HM@$0HN@$0HO@$0HP@$0IA@$0IB@$0IC@$0ID@$0IE@$0IF@$0IG@$0IH@$0II@$0IJ@$0IK@$0IL@$0IM@$0IN@$0IO@$0IP@$0JA@$0JB@$0JC@$0JD@$0JE@$0JF@$0JG@$0JH@$0JI@$0JJ@$0JK@$0JL@$0JM@$0JN@$0JO@$0JP@$0KA@$0KB@$0KC@$0KD@$0KE@$0KF@$0KG@$0KH@$0KI@@std@@@Z 1002a9c0 f i Offsets.obj
 0001:0002a630       ??$encrypt@$0LMBCJHMDOOADOAA@$0A@$00$01$02$03$04$05$06$07$08$09$0L@$0M@$0N@$0O@$0P@$0BA@$0BB@$0BC@$0BD@$0BE@$0BF@$0BG@$0BH@$0BI@$0BJ@$0BK@$0BL@$0BM@$0BN@$0BO@$0BP@$0CA@$0CB@$0CC@$0CD@$0CE@$0CF@$0CG@$0CH@$0CI@$0CJ@$0CK@$0CL@$0CM@$0CN@$0CO@$0CP@$0DA@$0DB@@detail@cx@@YA?AU?$char_array@$0DC@@01@PBDU?$integer_sequence@I$0A@$00$01$02$03$04$05$06$07$08$09$0L@$0M@$0N@$0O@$0P@$0BA@$0BB@$0BC@$0BD@$0BE@$0BF@$0BG@$0BH@$0BI@$0BJ@$0BK@$0BL@$0BM@$0BN@$0BO@$0BP@$0CA@$0CB@$0CC@$0CD@$0CE@$0CF@$0CG@$0CH@$0CI@$0CJ@$0CK@$0CL@$0CM@$0CN@$0CO@$0CP@$0DA@$0DB@@std@@@Z 1002b630 f i Offsets.obj
 0001:0002a9c0       ??$encrypt@$0LMBCJHMDOOADNPP@$0A@$00$01$02$03$04$05$06$07$08$09$0L@$0M@$0N@$0O@$0P@$0BA@$0BB@$0BC@$0BD@$0BE@$0BF@$0BG@$0BH@$0BI@$0BJ@$0BK@$0BL@$0BM@$0BN@$0BO@$0BP@@detail@cx@@YA?AU?$char_array@$0CA@@01@PBDU?$integer_sequence@I$0A@$00$01$02$03$04$05$06$07$08$09$0L@$0M@$0N@$0O@$0P@$0BA@$0BB@$0BC@$0BD@$0BE@$0BF@$0BG@$0BH@$0BI@$0BJ@$0BK@$0BL@$0BM@$0BN@$0BO@$0BP@@std@@@Z 1002b9c0 f i Offsets.obj
 0001:0002ac10       ??$encrypt@$0LMBCJHMDOOADNPN@$0A@$00$01$02$03$04$05$06$07$08$09$0L@$0M@$0N@$0O@$0P@$0BA@$0BB@$0BC@$0BD@$0BE@$0BF@$0BG@$0BH@$0BI@$0BJ@$0BK@$0BL@$0BM@$0BN@$0BO@$0BP@$0CA@$0CB@$0CC@$0CD@$0CE@$0CF@$0CG@$0CH@$0CI@$0CJ@@detail@cx@@YA?AU?$char_array@$0CK@@01@PBDU?$integer_sequence@I$0A@$00$01$02$03$04$05$06$07$08$09$0L@$0M@$0N@$0O@$0P@$0BA@$0BB@$0BC@$0BD@$0BE@$0BF@$0BG@$0BH@$0BI@$0BJ@$0BK@$0BL@$0BM@$0BN@$0BO@$0BP@$0CA@$0CB@$0CC@$0CD@$0CE@$0CF@$0CG@$0CH@$0CI@$0CJ@@std@@@Z 1002bc10 f i Offsets.obj
 0001:0002af10       ??$encrypt_at@$0LMBCJHMDOOADOAD@@detail@cx@@YADPBDI@Z 1002bf10 f i Offsets.obj
 0001:0002af70       ??$encrypt_at@$0LMBCJHMDOOADOAC@@detail@cx@@YADPBDI@Z 1002bf70 f i Offsets.obj
 0001:0002afd0       ??$encrypt_at@$0LMBCJHMDOOADOAB@@detail@cx@@YADPBDI@Z 1002bfd0 f i Offsets.obj
 0001:0002b030       ??$encrypt_at@$0LMBCJHMDOOADOAA@@detail@cx@@YADPBDI@Z 1002c030 f i Offsets.obj
 0001:0002b090       ??$encrypt_at@$0LMBCJHMDOOADNPP@@detail@cx@@YADPBDI@Z 1002c090 f i Offsets.obj
 0001:0002b0f0       ??$encrypt_at@$0LMBCJHMDOOADNPN@@detail@cx@@YADPBDI@Z 1002c0f0 f i Offsets.obj
 0001:0002b150       ??$encrypt_at@$0LMBCJHMDOOADNPL@@detail@cx@@YADPBDI@Z 1002c150 f i Offsets.obj
 0001:0002b1b0       ?GetU32@Color@@QAEIXZ      1002c1b0 f i Util.obj
 0001:0002b1d0       ??1?$Xor@$0PB@$0L@$0DJKLBINC@@@QAE@XZ 1002c1d0 f i Util.obj
 0001:0002b1f0       ??B?$encrypted_string@$0BHPDFICFEJKJFKBK@$03@cx@@QBE?AV?$basic_string@DU?$char_traits@D@std@@V?$allocator@D@2@@std@@XZ 1002c1f0 f i Util.obj
 0001:0002b220       ??B?$encrypted_string@$0BHPDFICFEJKJFKBK@$09@cx@@QBE?AV?$basic_string@DU?$char_traits@D@std@@V?$allocator@D@2@@std@@XZ 1002c220 f i Util.obj
 0001:0002b250       ??$CaptureInterface@VICVar@@@U@@YAPAVICVar@@V?$basic_string@DU?$char_traits@D@std@@V?$allocator@D@2@@std@@0@Z 1002c250 f i Util.obj
 0001:0002b250       ??$CaptureInterface@VIVDebugOverlay@@@U@@YAPAVIVDebugOverlay@@V?$basic_string@DU?$char_traits@D@std@@V?$allocator@D@2@@std@@0@Z 1002c250 f i Util.obj
 0001:0002b250       ??$CaptureInterface@VIStudioRender@@@U@@YAPAVIStudioRender@@V?$basic_string@DU?$char_traits@D@std@@V?$allocator@D@2@@std@@0@Z 1002c250 f i Util.obj
 0001:0002b250       ??$CaptureInterface@VISurface@@@U@@YAPAVISurface@@V?$basic_string@DU?$char_traits@D@std@@V?$allocator@D@2@@std@@0@Z 1002c250 f i Util.obj
 0001:0002b250       ??$CaptureInterface@VIGameMovement@@@U@@YAPAVIGameMovement@@V?$basic_string@DU?$char_traits@D@std@@V?$allocator@D@2@@std@@0@Z 1002c250 f i Util.obj
 0001:0002b250       ??$CaptureInterface@VIEngineClient@@@U@@YAPAVIEngineClient@@V?$basic_string@DU?$char_traits@D@std@@V?$allocator@D@2@@std@@0@Z 1002c250 f i Util.obj
 0001:0002b250       ??$CaptureInterface@VIVRenderView@@@U@@YAPAVIVRenderView@@V?$basic_string@DU?$char_traits@D@std@@V?$allocator@D@2@@std@@0@Z 1002c250 f i Util.obj
 0001:0002b250       ??$CaptureInterface@VIPhysicsSurfaceProps@@@U@@YAPAVIPhysicsSurfaceProps@@V?$basic_string@DU?$char_traits@D@std@@V?$allocator@D@2@@std@@0@Z 1002c250 f i Util.obj
 0001:0002b250       ??$CaptureInterface@VILocalize@@@U@@YAPAVILocalize@@V?$basic_string@DU?$char_traits@D@std@@V?$allocator@D@2@@std@@0@Z 1002c250 f i Util.obj
 0001:0002b250       ??$CaptureInterface@VIBaseClientDll@@@U@@YAPAVIBaseClientDll@@V?$basic_string@DU?$char_traits@D@std@@V?$allocator@D@2@@std@@0@Z 1002c250 f i Util.obj
 0001:0002b250       ??$CaptureInterface@VIVModelRender@@@U@@YAPAVIVModelRender@@V?$basic_string@DU?$char_traits@D@std@@V?$allocator@D@2@@std@@0@Z 1002c250 f i Util.obj
 0001:0002b250       ??$CaptureInterface@VIEngineTrace@@@U@@YAPAVIEngineTrace@@V?$basic_string@DU?$char_traits@D@std@@V?$allocator@D@2@@std@@0@Z 1002c250 f i Util.obj
 0001:0002b250       ??$CaptureInterface@VIClientEntityList@@@U@@YAPAVIClientEntityList@@V?$basic_string@DU?$char_traits@D@std@@V?$allocator@D@2@@std@@0@Z 1002c250 f i Util.obj
 0001:0002b250       ??$CaptureInterface@VIPrediction@@@U@@YAPAVIPrediction@@V?$basic_string@DU?$char_traits@D@std@@V?$allocator@D@2@@std@@0@Z 1002c250 f i Util.obj
 0001:0002b250       ??$CaptureInterface@VIInputSystem@@@U@@YAPAVIInputSystem@@V?$basic_string@DU?$char_traits@D@std@@V?$allocator@D@2@@std@@0@Z 1002c250 f i Util.obj
 0001:0002b250       ??$CaptureInterface@VIVModelInfo@@@U@@YAPAVIVModelInfo@@V?$basic_string@DU?$char_traits@D@std@@V?$allocator@D@2@@std@@0@Z 1002c250 f i Util.obj
 0001:0002b250       ??$CaptureInterface@VIGameEventManager2@@@U@@YAPAVIGameEventManager2@@V?$basic_string@DU?$char_traits@D@std@@V?$allocator@D@2@@std@@0@Z 1002c250 f i Util.obj
 0001:0002b250       ??$CaptureInterface@VIVPanel@@@U@@YAPAVIVPanel@@V?$basic_string@DU?$char_traits@D@std@@V?$allocator@D@2@@std@@0@Z 1002c250 f i Util.obj
 0001:0002b250       ??$CaptureInterface@VIMaterialSystem@@@U@@YAPAVIMaterialSystem@@V?$basic_string@DU?$char_traits@D@std@@V?$allocator@D@2@@std@@0@Z 1002c250 f i Util.obj
 0001:0002b3c0       ??0?$Xor@$0PB@$0L@$0DJKLBINC@@@QAE@PBD@Z 1002c3c0 f i Util.obj
 0001:0002b450       ??$make_encrypted_string@$0BHPDFICFEJKJFKDB@$0N@@cx@@YA?AV?$encrypted_string@$0BHPDFICFEJKJFKDB@$0N@@0@AAY0N@$$CBD@Z 1002c450 f i Util.obj
 0001:0002b530       ??$make_encrypted_string@$0BHPDFICFEJKJFKDJ@$0BD@@cx@@YA?AV?$encrypted_string@$0BHPDFICFEJKJFKDJ@$0BD@@0@AAY0BD@$$CBD@Z 1002c530 f i Util.obj
 0001:0002b660       ??$make_encrypted_string@$0BHPDFICFEJKJFKDP@$0BB@@cx@@YA?AV?$encrypted_string@$0BHPDFICFEJKJFKDP@$0BB@@0@AAY0BB@$$CBD@Z 1002c660 f i Util.obj
 0001:0002b770       ??$make_encrypted_string@$0?GJPELIPCAMPOHCGD@$0BA@@cx@@YA?AV?$encrypted_string@$0?GJPELIPCAMPOHCGD@$0BA@@0@AAY0BA@$$CBD@Z 1002c770 f i Util.obj
 0001:0002b860       ??$encrypt@$0BHPDFICFEJKJFMDN@$0A@$00$01$02$03$04$05$06$07$08$09$0L@$0M@$0N@$0O@$0P@$0BA@$0BB@$0BC@$0BD@$0BE@$0BF@$0BG@$0BH@$0BI@$0BJ@$0BK@$0BL@$0BM@$0BN@$0BO@$0BP@$0CA@$0CB@$0CC@$0CD@$0CE@$0CF@$0CG@$0CH@$0CI@$0CJ@$0CK@$0CL@$0CM@$0CN@$0CO@$0CP@$0DA@$0DB@$0DC@$0DD@$0DE@$0DF@$0DG@$0DH@$0DI@$0DJ@$0DK@$0DL@$0DM@$0DN@$0DO@$0DP@$0EA@$0EB@@detail@cx@@YA?AU?$char_array@$0EC@@01@PBDU?$integer_sequence@I$0A@$00$01$02$03$04$05$06$07$08$09$0L@$0M@$0N@$0O@$0P@$0BA@$0BB@$0BC@$0BD@$0BE@$0BF@$0BG@$0BH@$0BI@$0BJ@$0BK@$0BL@$0BM@$0BN@$0BO@$0BP@$0CA@$0CB@$0CC@$0CD@$0CE@$0CF@$0CG@$0CH@$0CI@$0CJ@$0CK@$0CL@$0CM@$0CN@$0CO@$0CP@$0DA@$0DB@$0DC@$0DD@$0DE@$0DF@$0DG@$0DH@$0DI@$0DJ@$0DK@$0DL@$0DM@$0DN@$0DO@$0DP@$0EA@$0EB@@std@@@Z 1002c860 f i Util.obj
 0001:0002bd10       ??$encrypt@$0BHPDFICFEJKJFKEA@$0A@$00$01$02$03$04$05$06$07$08$09$0L@$0M@$0N@$0O@$0P@$0BA@$0BB@$0BC@$0BD@$0BE@$0BF@$0BG@$0BH@$0BI@@detail@cx@@YA?AU?$char_array@$0BJ@@01@PBDU?$integer_sequence@I$0A@$00$01$02$03$04$05$06$07$08$09$0L@$0M@$0N@$0O@$0P@$0BA@$0BB@$0BC@$0BD@$0BE@$0BF@$0BG@$0BH@$0BI@@std@@@Z 1002cd10 f i Util.obj
 0001:0002bee0       ??$encrypt@$0BHPDFICFEJKJFKCJ@$0A@$00$01$02$03$04$05$06$07$08$09$0L@$0M@$0N@$0O@$0P@$0BA@$0BB@$0BC@$0BD@$0BE@$0BF@$0BG@$0BH@$0BI@$0BJ@$0BK@$0BL@$0BM@$0BN@$0BO@$0BP@$0CA@$0CB@@detail@cx@@YA?AU?$char_array@$0CC@@01@PBDU?$integer_sequence@I$0A@$00$01$02$03$04$05$06$07$08$09$0L@$0M@$0N@$0O@$0P@$0BA@$0BB@$0BC@$0BD@$0BE@$0BF@$0BG@$0BH@$0BI@$0BJ@$0BK@$0BL@$0BM@$0BN@$0BO@$0BP@$0CA@$0CB@@std@@@Z 1002cee0 f i Util.obj
 0001:0002c150       ??$encrypt@$0BHPDFICFEJKJFKBK@$0A@$00$01@detail@cx@@YA?AU?$char_array@$02@01@PBDU?$integer_sequence@I$0A@$00$01@std@@@Z 1002d150 f i Util.obj
 0001:0002c1a0       ??$encrypt@$0BHPDFICFEJKJFKBK@$0A@$00$01$02$03$04$05$06$07@detail@cx@@YA?AU?$char_array@$08@01@PBDU?$integer_sequence@I$0A@$00$01$02$03$04$05$06$07@std@@@Z 1002d1a0 f i Util.obj
 0001:0002c250       ??$encrypt_at@$0BHPDFICFEJKJFMDN@@detail@cx@@YADPBDI@Z 1002d250 f i Util.obj
 0001:0002c2b0       ??$encrypt_at@$0BHPDFICFEJKJFKEA@@detail@cx@@YADPBDI@Z 1002d2b0 f i Util.obj
 0001:0002c310       ??$encrypt_at@$0BHPDFICFEJKJFKDP@@detail@cx@@YADPBDI@Z 1002d310 f i Util.obj
 0001:0002c370       ??$encrypt_at@$0BHPDFICFEJKJFKDO@@detail@cx@@YADPBDI@Z 1002d370 f i Util.obj
 0001:0002c3d0       ??$encrypt_at@$0BHPDFICFEJKJFKDN@@detail@cx@@YADPBDI@Z 1002d3d0 f i Util.obj
 0001:0002c430       ??$encrypt_at@$0BHPDFICFEJKJFKDM@@detail@cx@@YADPBDI@Z 1002d430 f i Util.obj
 0001:0002c490       ??$encrypt_at@$0BHPDFICFEJKJFKDL@@detail@cx@@YADPBDI@Z 1002d490 f i Util.obj
 0001:0002c4f0       ??$encrypt_at@$0BHPDFICFEJKJFKDK@@detail@cx@@YADPBDI@Z 1002d4f0 f i Util.obj
 0001:0002c550       ??$encrypt_at@$0BHPDFICFEJKJFKDJ@@detail@cx@@YADPBDI@Z 1002d550 f i Util.obj
 0001:0002c5b0       ??$encrypt_at@$0BHPDFICFEJKJFKDI@@detail@cx@@YADPBDI@Z 1002d5b0 f i Util.obj
 0001:0002c610       ??$encrypt_at@$0BHPDFICFEJKJFKDH@@detail@cx@@YADPBDI@Z 1002d610 f i Util.obj
 0001:0002c670       ??$encrypt_at@$0BHPDFICFEJKJFKDG@@detail@cx@@YADPBDI@Z 1002d670 f i Util.obj
 0001:0002c6d0       ??$encrypt_at@$0BHPDFICFEJKJFKDF@@detail@cx@@YADPBDI@Z 1002d6d0 f i Util.obj
 0001:0002c730       ??$encrypt_at@$0BHPDFICFEJKJFKDD@@detail@cx@@YADPBDI@Z 1002d730 f i Util.obj
 0001:0002c790       ??$encrypt_at@$0BHPDFICFEJKJFKDB@@detail@cx@@YADPBDI@Z 1002d790 f i Util.obj
 0001:0002c7f0       ??$encrypt_at@$0BHPDFICFEJKJFKDA@@detail@cx@@YADPBDI@Z 1002d7f0 f i Util.obj
 0001:0002c850       ??$encrypt_at@$0BHPDFICFEJKJFKCP@@detail@cx@@YADPBDI@Z 1002d850 f i Util.obj
 0001:0002c8b0       ??$encrypt_at@$0BHPDFICFEJKJFKCO@@detail@cx@@YADPBDI@Z 1002d8b0 f i Util.obj
 0001:0002c910       ??$encrypt_at@$0BHPDFICFEJKJFKCM@@detail@cx@@YADPBDI@Z 1002d910 f i Util.obj
 0001:0002c970       ??$encrypt_at@$0BHPDFICFEJKJFKCL@@detail@cx@@YADPBDI@Z 1002d970 f i Util.obj
 0001:0002c9d0       ??$encrypt_at@$0BHPDFICFEJKJFKCJ@@detail@cx@@YADPBDI@Z 1002d9d0 f i Util.obj
 0001:0002ca30       ??$encrypt_at@$0BHPDFICFEJKJFKBK@@detail@cx@@YADPBDI@Z 1002da30 f i Util.obj
 0001:0002ca90       ??$encrypt_at@$0?GJPELIPCAMPOHCGD@@detail@cx@@YADPBDI@Z 1002da90 f i Util.obj
 0001:0002caf0       ??B?$encrypted_string@$0GGEEAMFHIAIENLEK@$0P@@cx@@QBE?AV?$basic_string@DU?$char_traits@D@std@@V?$allocator@D@2@@std@@XZ 1002daf0 f i SkinChanger.obj
 0001:0002cb20       ??B?$encrypted_string@$0GGEEAMFHIAIENLEK@$0L@@cx@@QBE?AV?$basic_string@DU?$char_traits@D@std@@V?$allocator@D@2@@std@@XZ 1002db20 f i SkinChanger.obj
 0001:0002cb50       ??B?$encrypted_string@$0GGEEAMFHIAIENLEK@$07@cx@@QBE?AV?$basic_string@DU?$char_traits@D@std@@V?$allocator@D@2@@std@@XZ 1002db50 f i SkinChanger.obj
 0001:0002cb80       ??B?$encrypted_string@$0GGEEAMFHIAIENLEK@$0BB@@cx@@QBE?AV?$basic_string@DU?$char_traits@D@std@@V?$allocator@D@2@@std@@XZ 1002db80 f i SkinChanger.obj
 0001:0002cbb0       ??B?$encrypted_string@$0GGEEAMFHIAIENLDO@$08@cx@@QBE?AV?$basic_string@DU?$char_traits@D@std@@V?$allocator@D@2@@std@@XZ 1002dbb0 f i SkinChanger.obj
 0001:0002cbe0       ??$make_encrypted_string@$0GGEEAMFHIAIENLDO@$08@cx@@YA?AV?$encrypted_string@$0GGEEAMFHIAIENLDO@$08@0@AAY08$$CBD@Z 1002dbe0 f i SkinChanger.obj
 0001:0002cc60       ??$make_encrypted_string@$0GGEEAMFHIAIENLEK@$0BB@@cx@@YA?AV?$encrypted_string@$0GGEEAMFHIAIENLEK@$0BB@@0@AAY0BB@$$CBD@Z 1002dc60 f i SkinChanger.obj
 0001:0002cd70       ??$make_encrypted_string@$0GGEEAMFHIAIENLEK@$07@cx@@YA?AV?$encrypted_string@$0GGEEAMFHIAIENLEK@$07@0@AAY07$$CBD@Z 1002dd70 f i SkinChanger.obj
 0001:0002ce00       ??$make_encrypted_string@$0GGEEAMFHIAIENLEK@$0L@@cx@@YA?AV?$encrypted_string@$0GGEEAMFHIAIENLEK@$0L@@0@AAY0L@$$CBD@Z 1002de00 f i SkinChanger.obj
 0001:0002cec0       ??$make_encrypted_string@$0GGEEAMFHIAIENLEK@$0P@@cx@@YA?AV?$encrypted_string@$0GGEEAMFHIAIENLEK@$0P@@0@AAY0P@$$CBD@Z 1002dec0 f i SkinChanger.obj
 0001:0002cfc0       ??$encrypt@$0GGEEAMFHIAIENKJD@$0A@$00$01$02$03$04$05$06$07$08$09$0L@$0M@$0N@$0O@$0P@$0BA@$0BB@$0BC@$0BD@$0BE@$0BF@$0BG@$0BH@$0BI@$0BJ@$0BK@$0BL@$0BM@$0BN@$0BO@$0BP@$0CA@$0CB@$0CC@$0CD@$0CE@$0CF@$0CG@$0CH@$0CI@$0CJ@$0CK@$0CL@$0CM@$0CN@$0CO@$0CP@$0DA@$0DB@$0DC@$0DD@$0DE@$0DF@$0DG@$0DH@$0DI@$0DJ@$0DK@$0DL@$0DM@$0DN@$0DO@$0DP@$0EA@$0EB@$0EC@$0ED@@detail@cx@@YA?AU?$char_array@$0EE@@01@PBDU?$integer_sequence@I$0A@$00$01$02$03$04$05$06$07$08$09$0L@$0M@$0N@$0O@$0P@$0BA@$0BB@$0BC@$0BD@$0BE@$0BF@$0BG@$0BH@$0BI@$0BJ@$0BK@$0BL@$0BM@$0BN@$0BO@$0BP@$0CA@$0CB@$0CC@$0CD@$0CE@$0CF@$0CG@$0CH@$0CI@$0CJ@$0CK@$0CL@$0CM@$0CN@$0CO@$0CP@$0DA@$0DB@$0DC@$0DD@$0DE@$0DF@$0DG@$0DH@$0DI@$0DJ@$0DK@$0DL@$0DM@$0DN@$0DO@$0DP@$0EA@$0EB@$0EC@$0ED@@std@@@Z 1002dfc0 f i SkinChanger.obj
 0001:0002d340       ??$encrypt@$0GGEEAMFHIAIENKJB@$0A@$00$01$02$03$04$05$06$07$08$09$0L@$0M@$0N@$0O@$0P@$0BA@$0BB@$0BC@$0BD@$0BE@$0BF@$0BG@$0BH@$0BI@$0BJ@$0BK@$0BL@$0BM@$0BN@$0BO@$0BP@$0CA@$0CB@$0CC@$0CD@$0CE@$0CF@$0CG@$0CH@$0CI@$0CJ@$0CK@$0CL@$0CM@$0CN@$0CO@$0CP@$0DA@$0DB@$0DC@$0DD@$0DE@$0DF@$0DG@$0DH@$0DI@$0DJ@$0DK@$0DL@$0DM@$0DN@$0DO@$0DP@$0EA@$0EB@$0EC@$0ED@@detail@cx@@YA?AU?$char_array@$0EE@@01@PBDU?$integer_sequence@I$0A@$00$01$02$03$04$05$06$07$08$09$0L@$0M@$0N@$0O@$0P@$0BA@$0BB@$0BC@$0BD@$0BE@$0BF@$0BG@$0BH@$0BI@$0BJ@$0BK@$0BL@$0BM@$0BN@$0BO@$0BP@$0CA@$0CB@$0CC@$0CD@$0CE@$0CF@$0CG@$0CH@$0CI@$0CJ@$0CK@$0CL@$0CM@$0CN@$0CO@$0CP@$0DA@$0DB@$0DC@$0DD@$0DE@$0DF@$0DG@$0DH@$0DI@$0DJ@$0DK@$0DL@$0DM@$0DN@$0DO@$0DP@$0EA@$0EB@$0EC@$0ED@@std@@@Z 1002e340 f i SkinChanger.obj
 0001:0002d6c0       ??$encrypt@$0GGEEAMFHIAIENKIP@$0A@$00$01$02$03$04$05$06$07$08$09$0L@$0M@$0N@$0O@$0P@$0BA@$0BB@$0BC@$0BD@$0BE@$0BF@$0BG@$0BH@$0BI@$0BJ@$0BK@$0BL@$0BM@$0BN@$0BO@$0BP@$0CA@$0CB@$0CC@$0CD@$0CE@$0CF@$0CG@$0CH@$0CI@$0CJ@$0CK@$0CL@$0CM@$0CN@$0CO@$0CP@$0DA@$0DB@$0DC@$0DD@$0DE@$0DF@$0DG@$0DH@$0DI@$0DJ@$0DK@$0DL@$0DM@$0DN@$0DO@$0DP@$0EA@$0EB@$0EC@$0ED@$0EE@$0EF@$0EG@$0EH@$0EI@$0EJ@$0EK@$0EL@$0EM@$0EN@$0EO@$0EP@$0FA@$0FB@@detail@cx@@YA?AU?$char_array@$0FC@@01@PBDU?$integer_sequence@I$0A@$00$01$02$03$04$05$06$07$08$09$0L@$0M@$0N@$0O@$0P@$0BA@$0BB@$0BC@$0BD@$0BE@$0BF@$0BG@$0BH@$0BI@$0BJ@$0BK@$0BL@$0BM@$0BN@$0BO@$0BP@$0CA@$0CB@$0CC@$0CD@$0CE@$0CF@$0CG@$0CH@$0CI@$0CJ@$0CK@$0CL@$0CM@$0CN@$0CO@$0CP@$0DA@$0DB@$0DC@$0DD@$0DE@$0DF@$0DG@$0DH@$0DI@$0DJ@$0DK@$0DL@$0DM@$0DN@$0DO@$0DP@$0EA@$0EB@$0EC@$0ED@$0EE@$0EF@$0EG@$0EH@$0EI@$0EJ@$0EK@$0EL@$0EM@$0EN@$0EO@$0EP@$0FA@$0FB@@std@@@Z 1002e6c0 f i SkinChanger.obj
 0001:0002db00       ??$encrypt@$0GGEEAMFHIAIENKIN@$0A@$00$01$02$03$04$05$06$07$08$09$0L@$0M@$0N@$0O@$0P@$0BA@$0BB@$0BC@$0BD@$0BE@$0BF@$0BG@$0BH@$0BI@$0BJ@$0BK@$0BL@$0BM@$0BN@$0BO@$0BP@$0CA@$0CB@$0CC@$0CD@$0CE@$0CF@$0CG@$0CH@$0CI@$0CJ@$0CK@$0CL@$0CM@$0CN@$0CO@$0CP@$0DA@$0DB@$0DC@$0DD@$0DE@$0DF@$0DG@$0DH@$0DI@$0DJ@@detail@cx@@YA?AU?$char_array@$0DK@@01@PBDU?$integer_sequence@I$0A@$00$01$02$03$04$05$06$07$08$09$0L@$0M@$0N@$0O@$0P@$0BA@$0BB@$0BC@$0BD@$0BE@$0BF@$0BG@$0BH@$0BI@$0BJ@$0BK@$0BL@$0BM@$0BN@$0BO@$0BP@$0CA@$0CB@$0CC@$0CD@$0CE@$0CF@$0CG@$0CH@$0CI@$0CJ@$0CK@$0CL@$0CM@$0CN@$0CO@$0CP@$0DA@$0DB@$0DC@$0DD@$0DE@$0DF@$0DG@$0DH@$0DI@$0DJ@@std@@@Z 1002eb00 f i SkinChanger.obj
 0001:0002de00       ??$encrypt@$0GGEEAMFHIAIENKIL@$0A@$00$01$02$03$04$05$06$07$08$09$0L@$0M@$0N@$0O@$0P@$0BA@$0BB@$0BC@$0BD@$0BE@$0BF@$0BG@$0BH@$0BI@$0BJ@$0BK@$0BL@$0BM@$0BN@$0BO@$0BP@$0CA@$0CB@$0CC@$0CD@$0CE@$0CF@$0CG@$0CH@$0CI@$0CJ@$0CK@$0CL@$0CM@$0CN@$0CO@$0CP@$0DA@$0DB@$0DC@$0DD@$0DE@$0DF@$0DG@$0DH@$0DI@$0DJ@$0DK@$0DL@@detail@cx@@YA?AU?$char_array@$0DM@@01@PBDU?$integer_sequence@I$0A@$00$01$02$03$04$05$06$07$08$09$0L@$0M@$0N@$0O@$0P@$0BA@$0BB@$0BC@$0BD@$0BE@$0BF@$0BG@$0BH@$0BI@$0BJ@$0BK@$0BL@$0BM@$0BN@$0BO@$0BP@$0CA@$0CB@$0CC@$0CD@$0CE@$0CF@$0CG@$0CH@$0CI@$0CJ@$0CK@$0CL@$0CM@$0CN@$0CO@$0CP@$0DA@$0DB@$0DC@$0DD@$0DE@$0DF@$0DG@$0DH@$0DI@$0DJ@$0DK@$0DL@@std@@@Z 1002ee00 f i SkinChanger.obj
 0001:0002e120       ??$encrypt@$0GGEEAMFHIAIENKIJ@$0A@$00$01$02$03$04$05$06$07$08$09$0L@$0M@$0N@$0O@$0P@$0BA@$0BB@$0BC@$0BD@$0BE@$0BF@$0BG@$0BH@$0BI@$0BJ@$0BK@$0BL@$0BM@$0BN@$0BO@$0BP@$0CA@$0CB@$0CC@$0CD@$0CE@$0CF@$0CG@$0CH@$0CI@$0CJ@$0CK@$0CL@$0CM@$0CN@$0CO@$0CP@$0DA@$0DB@$0DC@$0DD@$0DE@$0DF@$0DG@$0DH@$0DI@$0DJ@$0DK@$0DL@$0DM@$0DN@$0DO@$0DP@$0EA@$0EB@$0EC@$0ED@@detail@cx@@YA?AU?$char_array@$0EE@@01@PBDU?$integer_sequence@I$0A@$00$01$02$03$04$05$06$07$08$09$0L@$0M@$0N@$0O@$0P@$0BA@$0BB@$0BC@$0BD@$0BE@$0BF@$0BG@$0BH@$0BI@$0BJ@$0BK@$0BL@$0BM@$0BN@$0BO@$0BP@$0CA@$0CB@$0CC@$0CD@$0CE@$0CF@$0CG@$0CH@$0CI@$0CJ@$0CK@$0CL@$0CM@$0CN@$0CO@$0CP@$0DA@$0DB@$0DC@$0DD@$0DE@$0DF@$0DG@$0DH@$0DI@$0DJ@$0DK@$0DL@$0DM@$0DN@$0DO@$0DP@$0EA@$0EB@$0EC@$0ED@@std@@@Z 1002f120 f i SkinChanger.obj
 0001:0002e4a0       ??$encrypt@$0GGEEAMFHIAIENKCH@$0A@$00$01$02$03$04$05$06$07$08$09$0L@$0M@$0N@$0O@$0P@$0BA@$0BB@$0BC@$0BD@$0BE@$0BF@$0BG@$0BH@$0BI@$0BJ@$0BK@$0BL@$0BM@$0BN@$0BO@$0BP@$0CA@$0CB@$0CC@$0CD@$0CE@$0CF@$0CG@$0CH@$0CI@@detail@cx@@YA?AU?$char_array@$0CJ@@01@PBDU?$integer_sequence@I$0A@$00$01$02$03$04$05$06$07$08$09$0L@$0M@$0N@$0O@$0P@$0BA@$0BB@$0BC@$0BD@$0BE@$0BF@$0BG@$0BH@$0BI@$0BJ@$0BK@$0BL@$0BM@$0BN@$0BO@$0BP@$0CA@$0CB@$0CC@$0CD@$0CE@$0CF@$0CG@$0CH@$0CI@@std@@@Z 1002f4a0 f i SkinChanger.obj
 0001:0002e6c0       ??$encrypt@$0GGEEAMFHIAIENKCG@$0A@$00$01$02$03$04$05$06$07$08$09$0L@$0M@$0N@$0O@$0P@$0BA@$0BB@$0BC@$0BD@$0BE@$0BF@$0BG@$0BH@$0BI@$0BJ@$0BK@$0BL@$0BM@$0BN@$0BO@@detail@cx@@YA?AU?$char_array@$0BP@@01@PBDU?$integer_sequence@I$0A@$00$01$02$03$04$05$06$07$08$09$0L@$0M@$0N@$0O@$0P@$0BA@$0BB@$0BC@$0BD@$0BE@$0BF@$0BG@$0BH@$0BI@$0BJ@$0BK@$0BL@$0BM@$0BN@$0BO@@std@@@Z 1002f6c0 f i SkinChanger.obj
 0001:0002e860       ??$encrypt@$0GGEEAMFHIAIENKCF@$0A@$00$01$02$03$04$05$06$07$08$09$0L@$0M@$0N@$0O@$0P@$0BA@$0BB@$0BC@$0BD@$0BE@$0BF@$0BG@$0BH@$0BI@$0BJ@$0BK@$0BL@$0BM@$0BN@$0BO@$0BP@$0CA@$0CB@$0CC@$0CD@$0CE@$0CF@$0CG@$0CH@$0CI@$0CJ@$0CK@$0CL@@detail@cx@@YA?AU?$char_array@$0CM@@01@PBDU?$integer_sequence@I$0A@$00$01$02$03$04$05$06$07$08$09$0L@$0M@$0N@$0O@$0P@$0BA@$0BB@$0BC@$0BD@$0BE@$0BF@$0BG@$0BH@$0BI@$0BJ@$0BK@$0BL@$0BM@$0BN@$0BO@$0BP@$0CA@$0CB@$0CC@$0CD@$0CE@$0CF@$0CG@$0CH@$0CI@$0CJ@$0CK@$0CL@@std@@@Z 1002f860 f i SkinChanger.obj
 0001:0002eab0       ??$encrypt@$0GGEEAMFHIAIENKCE@$0A@$00$01$02$03$04$05$06$07$08$09$0L@$0M@$0N@$0O@$0P@$0BA@$0BB@$0BC@$0BD@$0BE@$0BF@$0BG@$0BH@$0BI@$0BJ@$0BK@$0BL@$0BM@$0BN@$0BO@$0BP@$0CA@$0CB@$0CC@@detail@cx@@YA?AU?$char_array@$0CD@@01@PBDU?$integer_sequence@I$0A@$00$01$02$03$04$05$06$07$08$09$0L@$0M@$0N@$0O@$0P@$0BA@$0BB@$0BC@$0BD@$0BE@$0BF@$0BG@$0BH@$0BI@$0BJ@$0BK@$0BL@$0BM@$0BN@$0BO@$0BP@$0CA@$0CB@$0CC@@std@@@Z 1002fab0 f i SkinChanger.obj
 0001:0002ec90       ??$encrypt@$0GGEEAMFHIAIENKCD@$0A@$00$01$02$03$04$05$06$07$08$09$0L@$0M@$0N@$0O@$0P@$0BA@$0BB@$0BC@$0BD@$0BE@$0BF@$0BG@$0BH@$0BI@$0BJ@$0BK@$0BL@$0BM@$0BN@$0BO@$0BP@$0CA@@detail@cx@@YA?AU?$char_array@$0CB@@01@PBDU?$integer_sequence@I$0A@$00$01$02$03$04$05$06$07$08$09$0L@$0M@$0N@$0O@$0P@$0BA@$0BB@$0BC@$0BD@$0BE@$0BF@$0BG@$0BH@$0BI@$0BJ@$0BK@$0BL@$0BM@$0BN@$0BO@$0BP@$0CA@@std@@@Z 1002fc90 f i SkinChanger.obj
 0001:0002ee50       ??$encrypt@$0GGEEAMFHIAIENKCC@$0A@$00$01$02$03$04$05$06$07$08$09$0L@$0M@$0N@$0O@$0P@$0BA@$0BB@$0BC@$0BD@$0BE@$0BF@$0BG@$0BH@$0BI@$0BJ@$0BK@$0BL@$0BM@$0BN@$0BO@$0BP@@detail@cx@@YA?AU?$char_array@$0CA@@01@PBDU?$integer_sequence@I$0A@$00$01$02$03$04$05$06$07$08$09$0L@$0M@$0N@$0O@$0P@$0BA@$0BB@$0BC@$0BD@$0BE@$0BF@$0BG@$0BH@$0BI@$0BJ@$0BK@$0BL@$0BM@$0BN@$0BO@$0BP@@std@@@Z 1002fe50 f i SkinChanger.obj
 0001:0002f000       ??$encrypt@$0GGEEAMFHIAIENKCB@$0A@$00$01$02$03$04$05$06$07$08$09$0L@$0M@$0N@$0O@$0P@$0BA@$0BB@$0BC@$0BD@$0BE@$0BF@$0BG@$0BH@$0BI@$0BJ@$0BK@$0BL@$0BM@$0BN@@detail@cx@@YA?AU?$char_array@$0BO@@01@PBDU?$integer_sequence@I$0A@$00$01$02$03$04$05$06$07$08$09$0L@$0M@$0N@$0O@$0P@$0BA@$0BB@$0BC@$0BD@$0BE@$0BF@$0BG@$0BH@$0BI@$0BJ@$0BK@$0BL@$0BM@$0BN@@std@@@Z 10030000 f i SkinChanger.obj
 0001:0002f190       ??$encrypt@$0GGEEAMFHIAIENKCA@$0A@$00$01$02$03$04$05$06$07$08$09$0L@$0M@$0N@$0O@$0P@$0BA@$0BB@$0BC@$0BD@$0BE@$0BF@$0BG@$0BH@$0BI@$0BJ@$0BK@$0BL@$0BM@$0BN@$0BO@@detail@cx@@YA?AU?$char_array@$0BP@@01@PBDU?$integer_sequence@I$0A@$00$01$02$03$04$05$06$07$08$09$0L@$0M@$0N@$0O@$0P@$0BA@$0BB@$0BC@$0BD@$0BE@$0BF@$0BG@$0BH@$0BI@$0BJ@$0BK@$0BL@$0BM@$0BN@$0BO@@std@@@Z 10030190 f i SkinChanger.obj
 0001:0002f330       ??$encrypt@$0GGEEAMFHIAIENKBP@$0A@$00$01$02$03$04$05$06$07$08$09$0L@$0M@$0N@$0O@$0P@$0BA@$0BB@$0BC@$0BD@$0BE@$0BF@$0BG@$0BH@$0BI@$0BJ@$0BK@$0BL@$0BM@$0BN@$0BO@$0BP@$0CA@$0CB@$0CC@$0CD@@detail@cx@@YA?AU?$char_array@$0CE@@01@PBDU?$integer_sequence@I$0A@$00$01$02$03$04$05$06$07$08$09$0L@$0M@$0N@$0O@$0P@$0BA@$0BB@$0BC@$0BD@$0BE@$0BF@$0BG@$0BH@$0BI@$0BJ@$0BK@$0BL@$0BM@$0BN@$0BO@$0BP@$0CA@$0CB@$0CC@$0CD@@std@@@Z 10030330 f i SkinChanger.obj
 0001:0002f510       ??$encrypt@$0GGEEAMFHIAIENKBO@$0A@$00$01$02$03$04$05$06$07$08$09$0L@$0M@$0N@$0O@$0P@$0BA@$0BB@$0BC@$0BD@$0BE@$0BF@$0BG@$0BH@$0BI@$0BJ@$0BK@$0BL@$0BM@$0BN@$0BO@$0BP@$0CA@$0CB@@detail@cx@@YA?AU?$char_array@$0CC@@01@PBDU?$integer_sequence@I$0A@$00$01$02$03$04$05$06$07$08$09$0L@$0M@$0N@$0O@$0P@$0BA@$0BB@$0BC@$0BD@$0BE@$0BF@$0BG@$0BH@$0BI@$0BJ@$0BK@$0BL@$0BM@$0BN@$0BO@$0BP@$0CA@$0CB@@std@@@Z 10030510 f i SkinChanger.obj
 0001:0002f6e0       ??$encrypt_at@$0GGEEAMFHIAIENLHA@@detail@cx@@YADPBDI@Z 100306e0 f i SkinChanger.obj
 0001:0002f740       ??$encrypt_at@$0GGEEAMFHIAIENLGL@@detail@cx@@YADPBDI@Z 10030740 f i SkinChanger.obj
 0001:0002f7a0       ??$encrypt_at@$0GGEEAMFHIAIENLGI@@detail@cx@@YADPBDI@Z 100307a0 f i SkinChanger.obj
 0001:0002f800       ??$encrypt_at@$0GGEEAMFHIAIENLGF@@detail@cx@@YADPBDI@Z 10030800 f i SkinChanger.obj
 0001:0002f860       ??$encrypt_at@$0GGEEAMFHIAIENLGC@@detail@cx@@YADPBDI@Z 10030860 f i SkinChanger.obj
 0001:0002f8c0       ??$encrypt_at@$0GGEEAMFHIAIENLFP@@detail@cx@@YADPBDI@Z 100308c0 f i SkinChanger.obj
 0001:0002f920       ??$encrypt_at@$0GGEEAMFHIAIENLFM@@detail@cx@@YADPBDI@Z 10030920 f i SkinChanger.obj
 0001:0002f980       ??$encrypt_at@$0GGEEAMFHIAIENLFJ@@detail@cx@@YADPBDI@Z 10030980 f i SkinChanger.obj
 0001:0002f9e0       ??$encrypt_at@$0GGEEAMFHIAIENLFG@@detail@cx@@YADPBDI@Z 100309e0 f i SkinChanger.obj
 0001:0002fa40       ??$encrypt_at@$0GGEEAMFHIAIENLFD@@detail@cx@@YADPBDI@Z 10030a40 f i SkinChanger.obj
 0001:0002faa0       ??$encrypt_at@$0GGEEAMFHIAIENLFA@@detail@cx@@YADPBDI@Z 10030aa0 f i SkinChanger.obj
 0001:0002fb00       ??$encrypt_at@$0GGEEAMFHIAIENLEK@@detail@cx@@YADPBDI@Z 10030b00 f i SkinChanger.obj
 0001:0002fb60       ??$encrypt_at@$0GGEEAMFHIAIENLEE@@detail@cx@@YADPBDI@Z 10030b60 f i SkinChanger.obj
 0001:0002fbc0       ??$encrypt_at@$0GGEEAMFHIAIENLDO@@detail@cx@@YADPBDI@Z 10030bc0 f i SkinChanger.obj
 0001:0002fc20       ??$encrypt_at@$0GGEEAMFHIAIENLDL@@detail@cx@@YADPBDI@Z 10030c20 f i SkinChanger.obj
 0001:0002fc80       ??$encrypt_at@$0GGEEAMFHIAIENKJD@@detail@cx@@YADPBDI@Z 10030c80 f i SkinChanger.obj
 0001:0002fce0       ??$encrypt_at@$0GGEEAMFHIAIENKJB@@detail@cx@@YADPBDI@Z 10030ce0 f i SkinChanger.obj
 0001:0002fd40       ??$encrypt_at@$0GGEEAMFHIAIENKIP@@detail@cx@@YADPBDI@Z 10030d40 f i SkinChanger.obj
 0001:0002fda0       ??$encrypt_at@$0GGEEAMFHIAIENKIN@@detail@cx@@YADPBDI@Z 10030da0 f i SkinChanger.obj
 0001:0002fe00       ??$encrypt_at@$0GGEEAMFHIAIENKIL@@detail@cx@@YADPBDI@Z 10030e00 f i SkinChanger.obj
 0001:0002fe60       ??$encrypt_at@$0GGEEAMFHIAIENKIJ@@detail@cx@@YADPBDI@Z 10030e60 f i SkinChanger.obj
 0001:0002fec0       ??$encrypt_at@$0GGEEAMFHIAIENKCH@@detail@cx@@YADPBDI@Z 10030ec0 f i SkinChanger.obj
 0001:0002ff20       ??$encrypt_at@$0GGEEAMFHIAIENKCG@@detail@cx@@YADPBDI@Z 10030f20 f i SkinChanger.obj
 0001:0002ff80       ??$encrypt_at@$0GGEEAMFHIAIENKCF@@detail@cx@@YADPBDI@Z 10030f80 f i SkinChanger.obj
 0001:0002ffe0       ??$encrypt_at@$0GGEEAMFHIAIENKCE@@detail@cx@@YADPBDI@Z 10030fe0 f i SkinChanger.obj
 0001:00030040       ??$encrypt_at@$0GGEEAMFHIAIENKCD@@detail@cx@@YADPBDI@Z 10031040 f i SkinChanger.obj
 0001:000300a0       ??$encrypt_at@$0GGEEAMFHIAIENKCC@@detail@cx@@YADPBDI@Z 100310a0 f i SkinChanger.obj
 0001:00030100       ??$encrypt_at@$0GGEEAMFHIAIENKCB@@detail@cx@@YADPBDI@Z 10031100 f i SkinChanger.obj
 0001:00030160       ??$encrypt_at@$0GGEEAMFHIAIENKCA@@detail@cx@@YADPBDI@Z 10031160 f i SkinChanger.obj
 0001:000301c0       ??$encrypt_at@$0GGEEAMFHIAIENKBP@@detail@cx@@YADPBDI@Z 100311c0 f i SkinChanger.obj
 0001:00030220       ??$encrypt_at@$0GGEEAMFHIAIENKBO@@detail@cx@@YADPBDI@Z 10031220 f i SkinChanger.obj
 0001:0003027f       ??1_Fac_node@std@@QAE@XZ   1003127f f i msvcprt:locale0_implib.obj
 0001:000302de       ??1_Fac_tidy_reg_t@std@@QAE@XZ 100312de f i msvcprt:locale0_implib.obj
 0001:00030305       ?_Facet_Register@std@@YAXPAV_Facet_base@1@@Z 10031305 f   msvcprt:locale0_implib.obj
 0001:00030331       ?showmanyc@?$basic_streambuf@DU?$char_traits@D@std@@@std@@MAE_JXZ 10031331 f   msvcprt:MSVCP140.dll
 0001:00030337       @__security_check_cookie@4 10031337 f   MSVCRT:secchk.obj
 0001:00030348       ??2@YAPAXI@Z               10031348 f   MSVCRT:new_scalar.obj
 0001:000303bc       ___scrt_acquire_startup_lock 100313bc f   MSVCRT:utility.obj
 0001:000303ee       ___scrt_dllmain_after_initialize_c 100313ee f   MSVCRT:utility.obj
 0001:00030419       ___scrt_dllmain_before_initialize_c 10031419 f   MSVCRT:utility.obj
 0001:00030427       ___scrt_dllmain_crt_thread_attach 10031427 f   MSVCRT:utility.obj
 0001:00030446       ___scrt_dllmain_crt_thread_detach 10031446 f   MSVCRT:utility.obj
 0001:00030453       ___scrt_dllmain_exception_filter 10031453 f   MSVCRT:utility.obj
 0001:00030487       ___scrt_dllmain_uninitialize_c 10031487 f   MSVCRT:utility.obj
 0001:000304aa       ___scrt_dllmain_uninitialize_critical 100314aa f   MSVCRT:utility.obj
 0001:000304b7       ___scrt_initialize_crt     100314b7 f   MSVCRT:utility.obj
 0001:000304f0       ___scrt_initialize_onexit_tables 100314f0 f   MSVCRT:utility.obj
 0001:00030595       ___scrt_is_nonwritable_in_current_image 10031595 f   MSVCRT:utility.obj
 0001:00030629       ___scrt_release_startup_lock 10031629 f   MSVCRT:utility.obj
 0001:00030646       ___scrt_uninitialize_crt   10031646 f   MSVCRT:utility.obj
 0001:0003066e       __onexit                   1003166e f   MSVCRT:utility.obj
 0001:000306a9       _atexit                    100316a9 f   MSVCRT:utility.obj
 0001:000306be       ??3@YAXPAXI@Z              100316be f   MSVCRT:delete_scalar_size.obj
 0001:000306cc       ??_U@YAPAXI@Z              100316cc f   MSVCRT:new_array.obj
 0001:000306d5       ??_Gtype_info@@UAEPAXI@Z   100316d5 f i MSVCRT:std_type_info_static.obj
 0001:000306d5       ??_Etype_info@@UAEPAXI@Z   100316d5 f i MSVCRT:std_type_info_static.obj
 0001:0003071f       ??$__crt_fast_encode_pointer@P6GXPAU_RTL_CONDITION_VARIABLE@@@Z@@YAP6GXPAU_RTL_CONDITION_VARIABLE@@@ZQ6GX0@Z@Z 1003171f f i MSVCRT:thread_safe_statics.obj
 0001:0003071f       ??$__crt_fast_encode_pointer@P6GHPAU_RTL_CONDITION_VARIABLE@@PAU_RTL_CRITICAL_SECTION@@K@Z@@YAP6GHPAU_RTL_CONDITION_VARIABLE@@PAU_RTL_CRITICAL_SECTION@@K@ZQ6GH01K@Z@Z 1003171f f i MSVCRT:thread_safe_statics.obj
 0001:00030847       __Init_thread_abort        10031847 f   MSVCRT:thread_safe_statics.obj
 0001:0003086b       __Init_thread_footer       1003186b f   MSVCRT:thread_safe_statics.obj
 0001:000308b5       __Init_thread_header       100318b5 f   MSVCRT:thread_safe_statics.obj
 0001:00030907       __Init_thread_notify       10031907 f   MSVCRT:thread_safe_statics.obj
 0001:00030949       __Init_thread_wait         10031949 f   MSVCRT:thread_safe_statics.obj
 0001:000309a9       ??_M@YGXPAXIIP6EX0@Z@Z     100319a9 f   MSVCRT:ehvecdtr.obj
 0001:00030a2e       ?__ArrayUnwind@@YGXPAXIIP6EX0@Z@Z 10031a2e f   MSVCRT:ehvecdtr.obj
 0001:00030aa7       ___raise_securityfailure   10031aa7 f   MSVCRT:gs_report.obj
 0001:00030acf       ___report_gsfailure        10031acf f   MSVCRT:gs_report.obj
 0001:00030bc8       ___report_rangecheckfailure 10031bc8 f   MSVCRT:gs_report.obj
 0001:00030bd4       ___report_securityfailure  10031bd4 f   MSVCRT:gs_report.obj
 0001:00030ca2       ??_L@YGXPAXIIP6EX0@Z1@Z    10031ca2 f   MSVCRT:ehvecctr.obj
 0001:00031036       __DllMainCRTStartup@12     10032036 f   MSVCRT:dll_dllmain.obj
 0001:00031059       ??3@YAXPAX@Z               10032059 f   MSVCRT:delete_scalar.obj
 0001:00031060       ??0bad_alloc@std@@QAE@ABV01@@Z 10032060 f i MSVCRT:throw_bad_alloc.obj
 0001:0003107b       ??0bad_alloc@std@@QAE@XZ   1003207b f i MSVCRT:throw_bad_alloc.obj
 0001:00031093       ??0bad_array_new_length@std@@QAE@ABV01@@Z 10032093 f i MSVCRT:throw_bad_alloc.obj
 0001:000310ae       ??0bad_array_new_length@std@@QAE@XZ 100320ae f i MSVCRT:throw_bad_alloc.obj
 0001:000310c6       ??1bad_alloc@std@@UAE@XZ   100320c6 f i MSVCRT:throw_bad_alloc.obj
 0001:000310c6       ??1bad_array_new_length@std@@UAE@XZ 100320c6 f i MSVCRT:throw_bad_alloc.obj
 0001:000310d7       ??_Gbad_alloc@std@@UAEPAXI@Z 100320d7 f i MSVCRT:throw_bad_alloc.obj
 0001:000310d7       ??_Ebad_array_new_length@std@@UAEPAXI@Z 100320d7 f i MSVCRT:throw_bad_alloc.obj
 0001:000310d7       ??_Ebad_alloc@std@@UAEPAXI@Z 100320d7 f i MSVCRT:throw_bad_alloc.obj
 0001:000310d7       ??_Gbad_array_new_length@std@@UAEPAXI@Z 100320d7 f i MSVCRT:throw_bad_alloc.obj
 0001:00031104       ?__scrt_throw_std_bad_alloc@@YAXXZ 10032104 f   MSVCRT:throw_bad_alloc.obj
 0001:00031121       ?__scrt_throw_std_bad_array_new_length@@YAXXZ 10032121 f   MSVCRT:throw_bad_alloc.obj
 0001:0003113e       ___isa_available_init      1003213e f   MSVCRT:cpu_disp.obj
 0001:000312d5       __get_startup_argv_mode    100322d5 f   MSVCRT:argv_mode.obj
 0001:000312d9       ___scrt_is_ucrt_dll_in_use 100322d9 f   MSVCRT:ucrt_detection.obj
 0001:000312e5       ___scrt_fastfail           100322e5 f   MSVCRT:utility_desktop.obj
 0001:000313ff       __crt_debugger_hook        100323ff f   MSVCRT:utility_desktop.obj
 0001:00031410       __SEH_prolog4              10032410 f   MSVCRT:sehprolg4.obj
 0001:00031456       __SEH_epilog4              10032456 f   MSVCRT:sehprolg4.obj
 0001:0003146b       __except_handler4          1003246b f   MSVCRT:chandler4gs.obj
 0001:000314db       ___security_init_cookie    100324db f   MSVCRT:gs_support.obj
 0001:00031526       ?__scrt_initialize_type_info@@YAXXZ 10032526 f   MSVCRT:tncleanup.obj
 0001:00031532       ?__scrt_uninitialize_type_info@@YAXXZ 10032532 f   MSVCRT:tncleanup.obj
 0001:0003153e       ___scrt_initialize_default_local_stdio_options 1003253e f   MSVCRT:default_local_stdio_options.obj
 0001:0003155b       ___scrt_get_dyn_tls_init_callback 1003255b f   MSVCRT:dyn_tls_init.obj
 0001:00031561       __RTC_Initialize           10032561 f   MSVCRT:initsect.obj
 0001:0003158d       __RTC_Terminate            1003258d f   MSVCRT:initsect.obj
 0001:000315b9       ___CxxFrameHandler3        100325b9 f   vcruntime:VCRUNTIME140.dll
 0001:000315bf       ___std_terminate           100325bf f   vcruntime:VCRUNTIME140.dll
 0001:000315c5       __purecall                 100325c5 f   vcruntime:VCRUNTIME140.dll
 0001:000315cb       ___std_exception_destroy   100325cb f   vcruntime:VCRUNTIME140.dll
 0001:000315d1       _memset                    100325d1 f   vcruntime:VCRUNTIME140.dll
 0001:000315d7       _memcpy                    100325d7 f   vcruntime:VCRUNTIME140.dll
 0001:000315dd       __CxxThrowException@8      100325dd f   vcruntime:VCRUNTIME140.dll
 0001:000315e3       __except_handler4_common   100325e3 f   vcruntime:VCRUNTIME140.dll
 0001:000315e9       ___std_type_info_destroy_list 100325e9 f   vcruntime:VCRUNTIME140.dll
 0001:000315ef       _malloc                    100325ef f   ucrt:api-ms-win-crt-heap-l1-1-0.dll
 0001:000315f5       _free                      100325f5 f   ucrt:api-ms-win-crt-heap-l1-1-0.dll
 0001:000315fb       __callnewh                 100325fb f   ucrt:api-ms-win-crt-heap-l1-1-0.dll
 0001:00031601       __seh_filter_dll           10032601 f   ucrt:api-ms-win-crt-runtime-l1-1-0.dll
 0001:00031607       __configure_narrow_argv    10032607 f   ucrt:api-ms-win-crt-runtime-l1-1-0.dll
 0001:0003160d       __initialize_narrow_environment 1003260d f   ucrt:api-ms-win-crt-runtime-l1-1-0.dll
 0001:00031613       __initialize_onexit_table  10032613 f   ucrt:api-ms-win-crt-runtime-l1-1-0.dll
 0001:00031619       __register_onexit_function 10032619 f   ucrt:api-ms-win-crt-runtime-l1-1-0.dll
 0001:0003161f       __execute_onexit_table     1003261f f   ucrt:api-ms-win-crt-runtime-l1-1-0.dll
 0001:00031625       __crt_atexit               10032625 f   ucrt:api-ms-win-crt-runtime-l1-1-0.dll
 0001:0003162b       __cexit                    1003262b f   ucrt:api-ms-win-crt-runtime-l1-1-0.dll
 0001:00031631       _terminate                 10032631 f   ucrt:api-ms-win-crt-runtime-l1-1-0.dll
 0001:00031637       __initterm                 10032637 f   ucrt:api-ms-win-crt-runtime-l1-1-0.dll
 0001:0003163d       __initterm_e               1003263d f   ucrt:api-ms-win-crt-runtime-l1-1-0.dll
 0001:00031643       _IsProcessorFeaturePresent@4 10032643 f   kernel32:KERNEL32.dll
 0001:00031649       ___scrt_stub_for_acrt_thread_detach 10032649 f   MSVCRT:ucrt_stubs.obj
 0001:00031649       ___vcrt_uninitialize       10032649 f   MSVCRT:ucrt_stubs.obj
 0001:00031649       ___vcrt_uninitialize_critical 10032649 f   MSVCRT:ucrt_stubs.obj
 0001:00031649       ___acrt_initialize         10032649 f   MSVCRT:ucrt_stubs.obj
 0001:00031649       ___scrt_stub_for_acrt_uninitialize_critical 10032649 f   MSVCRT:ucrt_stubs.obj
 0001:00031649       ___scrt_stub_for_acrt_initialize 10032649 f   MSVCRT:ucrt_stubs.obj
 0001:00031649       ___vcrt_thread_detach      10032649 f   MSVCRT:ucrt_stubs.obj
 0001:00031649       ___vcrt_thread_attach      10032649 f   MSVCRT:ucrt_stubs.obj
 0001:00031649       ___acrt_uninitialize_critical 10032649 f   MSVCRT:ucrt_stubs.obj
 0001:00031649       ___scrt_stub_for_acrt_thread_attach 10032649 f   MSVCRT:ucrt_stubs.obj
 0001:00031649       ___scrt_stub_for_acrt_uninitialize 10032649 f   MSVCRT:ucrt_stubs.obj
 0001:00031649       ___acrt_thread_attach      10032649 f   MSVCRT:ucrt_stubs.obj
 0001:00031649       ___acrt_thread_detach      10032649 f   MSVCRT:ucrt_stubs.obj
 0001:00031649       ___vcrt_initialize         10032649 f   MSVCRT:ucrt_stubs.obj
 0001:00031649       ___acrt_uninitialize       10032649 f   MSVCRT:ucrt_stubs.obj
 0001:00031650       ?RecvProxy_Sequence@@YAXPAVCRecvProxyData@@PAX1@Z 10032650 f   applyknife.obj
 0001:00031a00       ?Hooked_RecvProxy_Viewmodel@@YAXPAVCRecvProxyData@@PAX1@Z 10032a00 f   applyknife.obj
 0001:00031c50       _DllMain@12                10032c50 f   DLLMain.obj
 0001:00031e00       ?CheatThread@@YAXXZ        10032e00 f   DLLMain.obj
 0001:00031fe0       ?Run@CAntiAim@@QAEXXZ      10032fe0 f   AntiAim.obj
 0001:00032e90       ?Fakelags@@YAXXZ           10033e90 f   AntiAim.obj
 0001:00033310       ?FakeWalk@@YA_NXZ          10034310 f   AntiAim.obj
 0001:00033380       ?DoAntiAimY@@YAXAAVQAngle@@_N@Z 10034380 f   AntiAim.obj
 0001:000341d0       ?AtTargets@@YA?AVQAngle@@XZ 100351d0 f   AntiAim.obj
 0001:00034450       ?HasViableEnemy@CAntiAim@@QAE_NXZ 10035450 f   AntiAim.obj
 0001:00034570       ?CalcAngle@@YAXVVector@@0AAVQAngle@@@Z 10035570 f   AntiAim.obj
 0001:000347c0       ?FreestandingRun@@YAXAAVQAngle@@@Z 100357c0 f   AntiAim.obj
 0001:00035130       ?normalize@@YAXAAVVector@@0@Z 10036130 f   AntiAim.obj
 0001:000351e0       ?calculate_angle@@YAXVVector@@0AAV1@@Z 100361e0 f   AntiAim.obj
 0001:000352b0       ?AngleVectors@@YAXABVVector@@PAV1@11@Z 100362b0 f   AntiAim.obj
 0001:00035400       ?is_viable_target@@YA_NPAVCBaseEntity@@@Z 10036400 f   AntiAim.obj
 0001:00035490       ?get_hitbox_location@@YA?AVVector@@PAVCBaseEntity@@H@Z 10036490 f   AntiAim.obj
 0001:000357e0       ?VectorTransformmm@@YAXPBMABUmatrix3x4_t@@PAM@Z 100367e0 f   AntiAim.obj
 0001:00035880       ?angleVectorsxd@@YAXABVVector@@AAV1@@Z 10036880 f   AntiAim.obj
 0001:00035910       ?GetDamagez@CAutowall@@QAEMABVVector@@@Z 10036910 f   Autowall.obj
 0001:00035b50       ?SimulateFireBullet@CAutowall@@QAE_NPAVCBaseCombatWeapon@@AAUFireBulletData@1@@Z 10036b50 f   Autowall.obj
 0001:00035f00       ?HandleBulletPenetration@CAutowall@@QAE_NPAVWeaponInfo_t@@AAUFireBulletData@1@@Z 10036f00 f   Autowall.obj
 0001:00036260       ?TraceToExit@CAutowall@@QAE_NAAVVector@@AAVCGameTrace@@MMMMMMPAV3@@Z 10037260 f   Autowall.obj
 0001:000362b0       ?ScaleDamage@CAutowall@@QAEXHPAVCBaseEntity@@MAAM@Z 100372b0 f   Autowall.obj
 0001:000363f0       ?GetHitgroupDamageMultiplier@CAutowall@@QAEMH@Z 100373f0 f   Autowall.obj
 0001:00036440       ?Run@CLegitBot@@QAEXXZ     10037440 f   LegitBot.obj
 0001:00036a00       ?TriggerBot@CLegitBot@@AAEXXZ 10037a00 f   LegitBot.obj
 0001:00036d60       ?CanHit@@YA_NAAVCGameTrace@@@Z 10037d60 f   LegitBot.obj
 0001:00036dc0       ?LocalChecks@@YA_NXZ       10037dc0 f   LegitBot.obj
 0001:00036e00       ?FindTarget@CLegitBot@@AAEHPAVCBaseEntity@@PAVCUserCmd@@@Z 10037e00 f   LegitBot.obj
 0001:000370a0       ?ClosestBone@@YAHPAVCBaseEntity@@PAVCUserCmd@@@Z 100380a0 f   LegitBot.obj
 0001:00037320       ?GetFov@@YAMABVQAngle@@0@Z 10038320 f   LegitBot.obj
 0001:000373c0       ?AirStuck@CMiscellaneous@@QAEXXZ 100383c0 f   Miscellaneous.obj
 0001:00037400       ?ChatSpam@CMiscellaneous@@QAEXPBD@Z 10038400 f   Miscellaneous.obj
 0001:00037520       ?AutoStrafe@CMiscellaneous@@QAEXXZ 10038520 f   Miscellaneous.obj
 0001:00037700       ?rotate_movement@@YAXPAVCUserCmd@@M@Z 10038700 f   Miscellaneous.obj
 0001:00037790       ?NormalizeFloat@@YAMM@Z    10038790 f   Miscellaneous.obj
 0001:000377d0       ?Bunnyhop@CMiscellaneous@@QAEXXZ 100387d0 f   Miscellaneous.obj
 0001:00037860       ?EndPrediction@CPredictionSystem@@QAEXXZ 10038860 f   PredictionSystem.obj
 0001:000378b0       ?StartPrediction@CPredictionSystem@@QAEXXZ 100388b0 f   PredictionSystem.obj
 0001:000380d0       ?EntityIsValid@CRageBot@@AAE_NH@Z 100390d0 f   RageBot.obj
 0001:000381e0       ?AimStep@CRageBot@@QAE_NAAVQAngle@@@Z 100391e0 f   RageBot.obj
 0001:000383d0       ?GoToTarget@CRageBot@@AAEXXZ 100393d0 f   RageBot.obj
 0001:00038a30       ?HitChance@@YA_NMPAVCBaseCombatWeapon@@@Z 10039a30 f   RageBot.obj
 0001:00038aa0       ?FindTarget@CRageBot@@AAEXXZ 10039aa0 f   RageBot.obj
 0001:00038f70       ?GetBestBone@CRageBot@@AAEXPAVCBaseEntity@@AAMAAW4Bone@@@Z 10039f70 f   RageBot.obj
 0001:00039380       ?Run@CRageBot@@QAE_NXZ     1003a380 f   RageBot.obj
 0001:00039510       ?DrawCrosshair@CVisuals@@AAEXVColor@@@Z 1003a510 f   Visuals.obj
 0001:000395a0       ?Skeleton@CVisuals@@AAEXPAVCBaseEntity@@VColor@@@Z 1003a5a0 f   Visuals.obj
 0001:00039710       ?HealthBar@CVisuals@@AAEXHHHHM@Z 1003a710 f   Visuals.obj
 0001:00039800       ?EspBox@CVisuals@@AAEXPAVCBaseEntity@@VColor@@@Z 1003a800 f   Visuals.obj
 0001:00039860       ?PlayerBox@CVisuals@@AAEXMMMMVColor@@@Z 1003a860 f   Visuals.obj
 0001:000398d0       ?BulletTrace@CVisuals@@AAEXPAVCBaseEntity@@VColor@@@Z 1003a8d0 f   Visuals.obj
 0001:00039b20       ?SpecList@CVisuals@@QAEXXZ 1003ab20 f   Visuals.obj
 0001:00039ec0       ?EntityIsInvalid@CVisuals@@QAE_NPAVCBaseEntity@@@Z 1003aec0 f   Visuals.obj
 0001:00039f20       ?InGame@CVisuals@@AAE_NXZ  1003af20 f   Visuals.obj
 0001:00039f30       ?WorldESP@CVisuals@@AAEXH@Z 1003af30 f   Visuals.obj
 0001:0003a5e0       ?PlayerESP@CVisuals@@AAEXH@Z 1003b5e0 f   Visuals.obj
 0001:0003b3d0       ?SnapRotate@@YAXHHHHAAH0@Z 1003c3d0 f   Visuals.obj
 0001:0003b4c0       ?GetObservervators@@YA?AV?$list@HV?$allocator@H@std@@@std@@H@Z 1003c4c0 f   Visuals.obj
 0001:0003b740       ?DrawEntity@CVisuals@@AAEXPAVCBaseEntity@@PBDVColor@@@Z 1003c740 f   Visuals.obj
 0001:0003b8b0       ?GetBox@CVisuals@@QAE_NPAVCBaseEntity@@AAH111@Z 1003c8b0 f   Visuals.obj
 0001:0003bc20       ?Run@CVisuals@@QAEXXZ      1003cc20 f   Visuals.obj
 0001:0003bf60       ?Run@CFakeLag@@QAEXXZ      1003cf60 f   FakeLag.obj
 0001:0003c000       ?hkFireEventClientSide@Hooks@@YI_NPAVIGameEventManager2@@PAXPAVIGameEvent@@@Z 1003d000 f   GameEvent.obj
 0001:0003ce90       ?CreateMove@Hooks@@YG_NMPAVCUserCmd@@@Z 1003de90 f   CreateMove.obj
 0001:0003d760       ?StandAloneRCS@@YAXMMPAVCBaseEntity@@PAVCUserCmd@@@Z 1003e760 f   CreateMove.obj
 0001:0003dab0       ?Draw@DamageESP@@YAXXZ     1003eab0 f   EndScene.obj
 0001:0003dd30       ?Render@D9Visuals@@YAXPAUIDirect3DDevice9@@@Z 1003ed30 f   EndScene.obj
 0001:0003df70       ?DrawWeapon@D9Visuals@@YAXPAVCBaseEntity@@PAUIDirect3DDevice9@@@Z 1003ef70 f   EndScene.obj
 0001:0003eb60       ?GetActiveBaseCombatWeaponxdxd@@YAPAVCBaseCombatWeapon@@PAVCBaseEntity@@@Z 1003fb60 f   EndScene.obj
 0001:0003eb80       ?DrawSnapLine@@YAXVVector@@KHHPAUIDirect3DDevice9@@@Z 1003fb80 f   EndScene.obj
 0001:0003ebb0       ?GetWeaponIcon@@YA_WPAVCBaseCombatWeapon@@@Z 1003fbb0 f   EndScene.obj
 0001:0003ebe0       ?DrawBoneESP@D9Visuals@@YAXPAVCBaseEntity@@HPAUIDirect3DDevice9@@@Z 1003fbe0 f   EndScene.obj
 0001:0003ef80       ?DrawBone@D9Visuals@@YAXPAVCBaseEntity@@PAUmatrix3x4_t@@KPAUIDirect3DDevice9@@@Z 1003ff80 f   EndScene.obj
 0001:0003f0c0       ?DrawBox@D9Visuals@@YAXPAVCBaseEntity@@HPAUIDirect3DDevice9@@@Z 100400c0 f   EndScene.obj
 0001:0003f380       ?DrawHealth@D9Visuals@@YAXPAVCBaseEntity@@PAUIDirect3DDevice9@@@Z 10040380 f   EndScene.obj
 0001:0003f800       ?GetPlayerBox@D9Visuals@@YA_NPAVCBaseEntity@@AAM111VVector@@@Z 10040800 f   EndScene.obj
 0001:0003f950       ?DrawName@D9Visuals@@YAXPAVCBaseEntity@@@Z 10040950 f   EndScene.obj
 0001:0003fb80       ?SanitizeNameFST@@YA?AV?$basic_string@DU?$char_traits@D@std@@V?$allocator@D@2@@std@@PADH@Z 10040b80 f   EndScene.obj
 0001:0003ff40       ?Filter@D9Visuals@@YA_NPAVCBaseEntity@@AA_N@Z 10040f40 f   EndScene.obj
 0001:00040010       ?DrawString@@YAXMMKPADZZ   10041010 f   EndScene.obj
 0001:000400a0       ?DrawStringWithFontW@@YAXPAUID3DXFont@@MMKPA_WZZ 100410a0 f   EndScene.obj
 0001:00040120       ?GUI_Init@@YAXPAUIDirect3DDevice9@@@Z 10041120 f   EndScene.obj
 0001:000402b0       ?Reset@Hooks@@YGJPAUIDirect3DDevice9@@PAU_D3DPRESENT_PARAMETERS_@@@Z 100412b0 f   EndScene.obj
 0001:000402f0       ?EndScene@Hooks@@YGJPAUIDirect3DDevice9@@@Z 100412f0 f   EndScene.obj
 0001:00042580       ?DrawRadar@@YAXXZ          10043580 f   EndScene.obj
 0001:00042590       ?misctab@@YAXXZ            10043590 f   EndScene.obj
 0001:00042dc0       ?ComboBoxArray@ImGui@@YA_NPBDPAHAAV?$vector@V?$basic_string@DU?$char_traits@D@std@@V?$allocator@D@2@@std@@V?$allocator@V?$basic_string@DU?$char_traits@D@std@@V?$allocator@D@2@@std@@@2@@std@@@Z 10043dc0 f   EndScene.obj
 0001:00042e10       ?visualstab@@YAXXZ         10043e10 f   EndScene.obj
 0001:00043c20       ?ragebottab@@YAXXZ         10044c20 f   EndScene.obj
 0001:00045100       ?skinchangertab@@YAXXZ     10046100 f   EndScene.obj
 0001:00049ea0       ?fix@@YAXXZ                1004aea0 f   EndScene.obj
 0001:0004a010       ?legitbot@@YAXXZ           1004b010 f   EndScene.obj
 0001:0004ad70       ?color@@YAXXZ              1004bd70 f   EndScene.obj
 0001:0004b1f0       ?HandleGameEvent@DamageESP@@YAXPAVIGameEvent@@@Z 1004c1f0 f   EndScene.obj
 0001:0004b530       ?FrameStageNotify@Hooks@@YGXW4ClientFrameStage_t@@@Z 1004c530 f   FrameStageNotify.obj
 0001:0004bc00       ?DrawBeam@@YAXVVector@@0VColor@@@Z 1004cc00 f   FrameStageNotify.obj
 0001:0004bd10       ?OverrideView@Hooks@@YIXPAX0PAVCViewSetup@@@Z 1004cd10 f   OverrideView.obj
 0001:0004c100       ?PaintTraverse@Hooks@@YIXPAX0I_N1@Z 1004d100 f   PaintTraverse.obj
 0001:0004c230       ?prePaintTraverse@@YA_NI_N0@Z 1004d230 f   PaintTraverse.obj
 0001:0004c280       ?OpenMenu@@YAXXZ           1004d280 f   WndProc.obj
 0001:0004c360       ?WndProc@Hooks@@YGJPAUHWND__@@IIJ@Z 1004d360 f   WndProc.obj
 0001:0004c940       ?ImGui_ImplDX9_RenderDrawLists@@YAXPAUImDrawData@@@Z 1004d940 f   imgui_impl_dx9.obj
 0001:0004cff0       ?ImGui_ImplDX9_WndProcHandler@@YAJPAUHWND__@@IIJ@Z 1004dff0 f   imgui_impl_dx9.obj
 0001:0004d190       ?ImGui_ImplDX9_InvalidateDeviceObjects@@YAXXZ 1004e190 f   imgui_impl_dx9.obj
 0001:0004d200       ?ImGui_ImplDX9_Init@@YA_NPAXPAUIDirect3DDevice9@@@Z 1004e200 f   imgui_impl_dx9.obj
 0001:0004d2c0       ?ImGui_ImplDX9_NewFrame@@YAXXZ 1004e2c0 f   imgui_impl_dx9.obj
 0001:0004d420       ?ImGui_ImplDX9_CreateDeviceObjects@@YA_NXZ 1004e420 f   imgui_impl_dx9.obj
 0001:0004d620       ?EndColumns@ImGui@@YAXXZ   1004e620 f   imgui.obj
 0001:0004da30       ?PushColumnClipRect@ImGui@@YAXH@Z 1004ea30 f   imgui.obj
 0001:0004db30       ?GetColumnWidth@ImGui@@YAMH@Z 1004eb30 f   imgui.obj
 0001:0004db70       ?SetColumnOffset@ImGui@@YAXHM@Z 1004eb70 f   imgui.obj
 0001:0004dd10       ?GetColumnOffset@ImGui@@YAMH@Z 1004ed10 f   imgui.obj
 0001:0004de40       ?EndGroup@ImGui@@YAXXZ     1004ee40 f   imgui.obj
 0001:0004dfd0       ?BeginGroup@ImGui@@YAXXZ   1004efd0 f   imgui.obj
 0001:0004e0e0       ?Dummy@ImGui@@YAXABUImVec2@@@Z 1004f0e0 f   imgui.obj
 0001:0004e170       ?VerticalSeparator@ImGui@@YAXXZ 1004f170 f   imgui.obj
 0001:0004e280       ?ColorPicker4@ImGui@@YA_NPBDQAMHPBM@Z 1004f280 f   imgui.obj
 0001:00050c50       ?ColorEditOptionsPopup@ImGui@@YAXPBMH@Z 10051c50 f   imgui.obj
 0001:00051010       ?ColorButton@ImGui@@YA_NPBDABUImVec4@@HUImVec2@@@Z 10052010 f   imgui.obj
 0001:00051460       ?RenderColorRectWithAlphaCheckerboard@ImGui@@YAXUImVec2@@0IM0MH@Z 10052460 f   imgui.obj
 0001:000517b0       ?ColorTooltip@ImGui@@YAXPBDPBMH@Z 100527b0 f   imgui.obj
 0001:000519d0       ?Selectable@ImGui@@YA_NPBD_NHABUImVec2@@@Z 100529d0 f   imgui.obj
 0001:00051d90       ?EndCombo@ImGui@@YAXXZ     10052d90 f   imgui.obj
 0001:00051dd0       ?BeginCombo@ImGui@@YA_NPBD0UImVec2@@@Z 10052dd0 f   imgui.obj
 0001:00052430       ?InputScalarEx@ImGui@@YA_NPBDW4ImGuiDataType@@PAX220H@Z 10053430 f   imgui.obj
 0001:00052740       ?InputTextEx@ImGui@@YA_NPBDPADHABUImVec2@@HP6AHPAUImGuiTextEditCallbackData@@@ZPAX@Z 10053740 f   imgui.obj
 0001:00054700       ?OnKeyPressed@ImGuiTextEditState@@QAEXH@Z 10055700 f   imgui.obj
 0001:00056420       ?RadioButton@ImGui@@YA_NPBD_N@Z 10057420 f   imgui.obj
 0001:000568c0       ?CheckboxFlags@ImGui@@YA_NPBDPAII@Z 100578c0 f   imgui.obj
 0001:00056930       ?DragInt@ImGui@@YA_NPBDPAHMHH0@Z 10057930 f   imgui.obj
 0001:00056990       ?DragFloat@ImGui@@YA_NPBDPAMMMM0M@Z 10057990 f   imgui.obj
 0001:00056de0       ?DragBehavior@ImGui@@YA_NABUImRect@@IPAMMMMHM@Z 10057de0 f   imgui.obj
 0001:000570d0       ?IsHovered@ImGui@@YA_NABUImRect@@I_N@Z 100580d0 f   imgui.obj
 0001:00057200       ?SliderBehavior@ImGui@@YA_NABUImRect@@IPAMMMMHHUImVec2@@PBDPAD@Z 10058200 f   imgui.obj
 0001:00057920       ?GetColorU32@ImGui@@YAIABUImVec4@@M@Z 10058920 f   imgui.obj
 0001:00057ae0       ?RoundScalar@ImGui@@YAMMH@Z 10058ae0 f   imgui.obj
 0001:00057bd0       ?ParseFormatPrecision@ImGui@@YAHPBDH@Z 10058bd0 f   imgui.obj
 0001:00057c60       ?InputScalarAsWidgetReplacement@ImGui@@YA_NABUImRect@@PBDW4ImGuiDataType@@PAXIH@Z 10058c60 f   imgui.obj
 0001:000580c0       ?PopID@ImGui@@YAXXZ        100590c0 f   imgui.obj
 0001:000580e0       ?PushID@ImGui@@YAXH@Z      100590e0 f   imgui.obj
 0001:00058170       ?PushID@ImGui@@YAXPBX@Z    10059170 f   imgui.obj
 0001:00058200       ?PushID@ImGui@@YAXPBD@Z    10059200 f   imgui.obj
 0001:00058280       ?LogFinish@ImGui@@YAXXZ    10059280 f   imgui.obj
 0001:00058390       ?InvisibleButton@ImGui@@YA_NPBDABUImVec2@@@Z 10059390 f   imgui.obj
 0001:00058490       ?ButtonEx@ImGui@@YA_NPBDABUImVec2@@H@Z 10059490 f   imgui.obj
 0001:00058750       ?ButtonBehavior@ImGui@@YA_NABUImRect@@IPA_N1H@Z 10059750 f   imgui.obj
 0001:00058a90       ?TextUnformatted@ImGui@@YAXPBD0@Z 10059a90 f   imgui.obj
 0001:000590b0       ?TextV@ImGui@@YAXPBDPAD@Z  1005a0b0 f   imgui.obj
 0001:00059120       ?SetScrollHere@ImGui@@YAXM@Z 1005a120 f   imgui.obj
 0001:000591c0       ?SetScrollFromPosY@ImGui@@YAXMM@Z 1005a1c0 f   imgui.obj
 0001:00059220       ?GetScrollMaxY@ImGui@@YAMXZ 1005a220 f   imgui.obj
 0001:00059250       ?SetCursorScreenPos@ImGui@@YAXABUImVec2@@@Z 1005a250 f   imgui.obj
 0001:000592b0       ?GetCursorScreenPos@ImGui@@YA?AUImVec2@@XZ 1005a2b0 f   imgui.obj
 0001:000592d0       ?GetTextLineHeight@ImGui@@YAMXZ 1005a2d0 f   imgui.obj
 0001:000592e0       ?GetWindowContentRegionMax@ImGui@@YA?AUImVec2@@XZ 1005a2e0 f   imgui.obj
 0001:00059300       ?GetContentRegionAvail@ImGui@@YA?AUImVec2@@XZ 1005a300 f   imgui.obj
 0001:00059390       ?GetContentRegionMax@ImGui@@YA?AUImVec2@@XZ 1005a390 f   imgui.obj
 0001:00059400       ?SetNextWindowPos@ImGui@@YAXABUImVec2@@H0@Z 1005a400 f   imgui.obj
 0001:00059450       ?SetWindowFocus@ImGui@@YAXXZ 1005a450 f   imgui.obj
 0001:00059470       ?IsWindowAppearing@ImGui@@YA_NXZ 1005a470 f   imgui.obj
 0001:00059540       ?GetWindowSize@ImGui@@YA?AUImVec2@@XZ 1005a540 f   imgui.obj
 0001:00059660       ?PopStyleVar@ImGui@@YAXH@Z 1005a660 f   imgui.obj
 0001:000596e0       ?PushStyleVar@ImGui@@YAXHABUImVec2@@@Z 1005a6e0 f   imgui.obj
 0001:00059740       ?PushStyleVar@ImGui@@YAXHM@Z 1005a740 f   imgui.obj
 0001:00059830       ?CalcItemWidth@ImGui@@YAMXZ 1005a830 f   imgui.obj
 0001:000598c0       ?PopItemWidth@ImGui@@YAXXZ 1005a8c0 f   imgui.obj
 0001:00059910       ?FocusWindow@ImGui@@YAXPAUImGuiWindow@@@Z 1005a910 f   imgui.obj
 0001:00059a20       ?Scrollbar@ImGui@@YAXH@Z   1005aa20 f   imgui.obj
 0001:0005a050       ?Begin@ImGui@@YA_NPBDPA_NH@Z 1005b050 f   imgui.obj
 0001:0005caf0       ?FindWindowByName@ImGui@@YAPAUImGuiWindow@@PBD@Z 1005daf0 f   imgui.obj
 0001:0005cde0       ?EndChildFrame@ImGui@@YAXXZ 1005dde0 f   imgui.obj
 0001:0005ce30       ?BeginChildFrame@ImGui@@YA_NIABUImVec2@@H@Z 1005de30 f   imgui.obj
 0001:0005cf40       ?BeginChild@ImGui@@YA_NIABUImVec2@@_NH@Z 1005df40 f   imgui.obj
 0001:0005d180       ?EndPopup@ImGui@@YAXXZ     1005e180 f   imgui.obj
 0001:0005d1c0       ?IsPopupOpen@ImGui@@YA_NI@Z 1005e1c0 f   imgui.obj
 0001:0005d1f0       ?BeginPopup@ImGui@@YA_NPBDH@Z 1005e1f0 f   imgui.obj
 0001:0005d290       ?BeginPopupEx@ImGui@@YA_NIH@Z 1005e290 f   imgui.obj
 0001:0005d430       ?CloseCurrentPopup@ImGui@@YAXXZ 1005e430 f   imgui.obj
 0001:0005d630       ?OpenPopup@ImGui@@YAXPBD@Z 1005e630 f   imgui.obj
 0001:0005d670       ?OpenPopupEx@ImGui@@YAXI_N@Z 1005e670 f   imgui.obj
 0001:0005d780       ?EndTooltip@ImGui@@YAXXZ   1005e780 f   imgui.obj
 0001:0005d8a0       ?IsItemActive@ImGui@@YA_NXZ 1005e8a0 f   imgui.obj
 0001:0005d8d0       ?GetMouseDragDelta@ImGui@@YA?AUImVec2@@HM@Z 1005e8d0 f   imgui.obj
 0001:0005d940       ?IsMousePosValid@ImGui@@YA_NPBUImVec2@@@Z 1005e940 f   imgui.obj
 0001:0005d970       ?IsMouseClicked@ImGui@@YA_NH_N@Z 1005e970 f   imgui.obj
 0001:0005da10       ?IsKeyPressed@ImGui@@YA_NH_N@Z 1005ea10 f   imgui.obj
 0001:0005dab0       ?GetKeyPressedAmount@ImGui@@YAHHMM@Z 1005eab0 f   imgui.obj
 0001:0005db10       ?CalcTypematicPressedRepeatAmount@ImGui@@YAHMMMM@Z 1005eb10 f   imgui.obj
 0001:0005dbf0       ?IsMouseHoveringRect@ImGui@@YA_NABUImVec2@@0_N@Z 1005ebf0 f   imgui.obj
 0001:0005dda0       ?CalcTextSize@ImGui@@YA?AUImVec2@@PBD0_NM@Z 1005eda0 f   imgui.obj
 0001:0005de80       ?RenderCheckMark@ImGui@@YAXUImVec2@@IM@Z 1005ee80 f   imgui.obj
 0001:0005e090       ?RenderTriangle@ImGui@@YAXUImVec2@@W4ImGuiDir@@M@Z 1005f090 f   imgui.obj
 0001:0005e220       ?RenderFrameBorder@ImGui@@YAXUImVec2@@0M@Z 1005f220 f   imgui.obj
 0001:0005e300       ?RenderFrame@ImGui@@YAXUImVec2@@0I_NM@Z 1005f300 f   imgui.obj
 0001:0005e410       ?RenderTextClipped@ImGui@@YAXABUImVec2@@0PBD1PBU2@0PBUImRect@@@Z 1005f410 f   imgui.obj
 0001:0005e700       ?RenderTextWrapped@ImGui@@YAXUImVec2@@PBD1M@Z 1005f700 f   imgui.obj
 0001:0005e800       ?RenderText@ImGui@@YAXUImVec2@@PBD1_N@Z 1005f800 f   imgui.obj
 0001:0005ea30       ?LogText@ImGui@@YAXPBDZZ   1005fa30 f   imgui.obj
 0001:0005ea80       ?FindRenderedTextEnd@ImGui@@YAPBDPBD0@Z 1005fa80 f   imgui.obj
 0001:0005eab0       ?EndFrame@ImGui@@YAXXZ     1005fab0 f   imgui.obj
 0001:0005ecc0       ?PopClipRect@ImGui@@YAXXZ  1005fcc0 f   imgui.obj
 0001:0005ed20       ?PushClipRect@ImGui@@YAXABUImVec2@@0_N@Z 1005fd20 f   imgui.obj
 0001:0005f4c0       ?Initialize@ImGui@@YAXXZ   100604c0 f   imgui.obj
 0001:0005f570       ?SetClipboardText@ImGui@@YAXPBD@Z 10060570 f   imgui.obj
 0001:0005f590       ?GetClipboardText@ImGui@@YAPBDXZ 10060590 f   imgui.obj
 0001:0005f5c0       ?MemFree@ImGui@@YAXPAX@Z   100605c0 f   imgui.obj
 0001:0005f5e0       ?MemAlloc@ImGui@@YAPAXI@Z  100605e0 f   imgui.obj
 0001:0005f600       ?CalcWrapWidthForPos@ImGui@@YAMABUImVec2@@M@Z 10060600 f   imgui.obj
 0001:0005f670       ?CalcItemSize@ImGui@@YA?AUImVec2@@U2@MM@Z 10060670 f   imgui.obj
 0001:0005f780       ?FocusableItemUnregister@ImGui@@YAXPAUImGuiWindow@@@Z 10060780 f   imgui.obj
 0001:0005f790       ?FocusableItemRegister@ImGui@@YA_NPAUImGuiWindow@@I_N@Z 10060790 f   imgui.obj
 0001:0005f860       ?IsClippedEx@ImGui@@YA_NABUImRect@@I_N@Z 10060860 f   imgui.obj
 0001:0005f8c0       ?ItemHoverable@ImGui@@YA_NABUImRect@@I@Z 100608c0 f   imgui.obj
 0001:0005f9f0       ?ItemAdd@ImGui@@YA_NABUImRect@@I@Z 100609f0 f   imgui.obj
 0001:0005fb40       ?ItemSize@ImGui@@YAXABUImRect@@M@Z 10060b40 f   imgui.obj
 0001:0005fb70       ?ItemSize@ImGui@@YAXABUImVec2@@M@Z 10060b70 f   imgui.obj
 0001:0005fcc0       ?KeepAliveID@ImGui@@YAXI@Z 10060cc0 f   imgui.obj
 0001:0005fce0       ?SetHoveredID@ImGui@@YAXI@Z 10060ce0 f   imgui.obj
 0001:0005fd00       ?ClearActiveID@ImGui@@YAXXZ 10060d00 f   imgui.obj
 0001:0005fd40       ?SetActiveID@ImGui@@YAXIPAUImGuiWindow@@@Z 10060d40 f   imgui.obj
 0001:0005fdb0       ?GetIDNoKeepAlive@ImGuiWindow@@QAEIPBD0@Z 10060db0 f   imgui.obj
 0001:0005fde0       ?GetID@ImGuiWindow@@QAEIPBX@Z 10060de0 f   imgui.obj
 0001:0005fe20       ?GetID@ImGuiWindow@@QAEIPBD0@Z 10060e20 f   imgui.obj
 0001:0005fe60       ??0ImGuiWindow@@QAE@PBD@Z  10060e60 f   imgui.obj
 0001:000605c0       ?Update@ImGuiSimpleColumns@@QAEXHM_N@Z 100615c0 f   imgui.obj
 0001:00060650       ??0ImGuiSimpleColumns@@QAE@XZ 10061650 f   imgui.obj
 0001:00060690       ?appendv@ImGuiTextBuffer@@QAEXPBDPAD@Z 10061690 f   imgui.obj
 0001:00060740       ?SetFloat@ImGuiStorage@@QAEXIM@Z 10061740 f   imgui.obj
 0001:000607d0       ?ImFileLoadToMemory@@YAPAXPBD0PAHH@Z 100617d0 f   imgui.obj
 0001:000608d0       ?ImFileOpen@@YAPAU_iobuf@@PBD0@Z 100618d0 f   imgui.obj
 0001:000609c0       ?ColorConvertHSVtoRGB@ImGui@@YAXMMMAAM00@Z 100619c0 f   imgui.obj
 0001:00060b20       ?ColorConvertRGBtoHSV@ImGui@@YAXMMMAAM00@Z 10061b20 f   imgui.obj
 0001:00060bd0       ?GetColorU32@ImGui@@YAII@Z 10061bd0 f   imgui.obj
 0001:00060c10       ?GetColorU32@ImGui@@YAIABUImVec4@@@Z 10061c10 f   imgui.obj
 0001:00060ce0       ?GetColorU32@ImGui@@YAIHM@Z 10061ce0 f   imgui.obj
 0001:00060dc0       ?ImTextCountUtf8BytesFromStr@@YAHPBG0@Z 10061dc0 f   imgui.obj
 0001:00060e40       ?ImTextStrToUtf8@@YAHPADHPBG1@Z 10061e40 f   imgui.obj
 0001:00061080       ?ImTextCountCharsFromUtf8@@YAHPBD0@Z 10062080 f   imgui.obj
 0001:000612b0       ?ImTextStrFromUtf8@@YAHPAGHPBD1PAPBD@Z 100622b0 f   imgui.obj
 0001:000614e0       ?ImTextCharFromUtf8@@YAHPAIPBD1@Z 100624e0 f   imgui.obj
 0001:00061680       ?ImHash@@YAIPBXHI@Z        10062680 f   imgui.obj
 0001:000617a0       ?ImFormatStringV@@YAHPADHPBD0@Z 100627a0 f   imgui.obj
 0001:000617d0       ?ImFormatString@@YAHPADHPBDZZ 100627d0 f   imgui.obj
 0001:00061880       ?ImStrbolW@@YAPBGPBG0@Z    10062880 f   imgui.obj
 0001:000618a0       ?ImStrlenW@@YAHPBG@Z       100628a0 f   imgui.obj
 0001:000618c0       ?ImStrdup@@YAPADPBD@Z      100628c0 f   imgui.obj
 0001:00061900       ?ImStrncpy@@YAXPADPBDH@Z   10062900 f   imgui.obj
 0001:00061930       ?ImTriangleClosestPoint@@YA?AUImVec2@@ABU1@000@Z 10062930 f   imgui.obj
 0001:00061cc0       ?ImTriangleBarycentricCoords@@YAXABUImVec2@@000AAM11@Z 10062cc0 f   imgui.obj
 0001:00061d70       ?ImTriangleContainsPoint@@YA_NABUImVec2@@000@Z 10062d70 f   imgui.obj
 0001:00061e40       ?ImLineClosestPoint@@YA?AUImVec2@@ABU1@00@Z 10062e40 f   imgui.obj
 0001:00061f30       ??0ImGuiIO@@QAE@XZ         10062f30 f   imgui.obj
 0001:000621d0       ?StyleColorsClassic@ImGui@@YAXPAUImGuiStyle@@@Z 100631d0 f   imgui.obj
 0001:00062440       ??0ImGuiStyle@@QAE@XZ      10063440 f   imgui.obj
 0001:00062980       ?AddInputCharacter@ImGuiIO@@QAEXG@Z 10063980 f   imgui.obj
 0001:000629c0       ?NewFrame@ImGui@@YAXXZ     100639c0 f   imgui.obj
 0001:000636e0       ?PushStyleColor@ImGui@@YAXHABUImVec4@@@Z 100646e0 f   imgui.obj
 0001:00063730       ?Spacing@ImGui@@YAXXZ      10064730 f   imgui.obj
 0001:00063780       ?GetWindowWidth@ImGui@@YAMXZ 10064780 f   imgui.obj
 0001:000637a0       ?BeginChild@ImGui@@YA_NPBDABUImVec2@@_NH@Z 100647a0 f   imgui.obj
 0001:00063800       ?GetIO@ImGui@@YAAAUImGuiIO@@XZ 10064800 f   imgui.obj
 0001:00063810       ?Checkbox@ImGui@@YA_NPBDPA_N@Z 10064810 f   imgui.obj
 0001:00063bf0       ?SliderFloat@ImGui@@YA_NPBDPAMMM0M@Z 10064bf0 f   imgui.obj
 0001:000641c0       ?InputText@ImGui@@YA_NPBDPADIHP6AHPAUImGuiTextEditCallbackData@@@ZPAX@Z 100651c0 f   imgui.obj
 0001:000641f0       ?PushFont@ImGui@@YAXPAUImFont@@@Z 100651f0 f   imgui.obj
 0001:000642f0       ?Button@ImGui@@YA_NPBDABUImVec2@@@Z 100652f0 f   imgui.obj
 0001:00064300       ?PushItemWidth@ImGui@@YAXM@Z 10065300 f   imgui.obj
 0001:00064390       ?SameLine@ImGui@@YAXMM@Z   10065390 f   imgui.obj
 0001:00064440       ?Combo@ImGui@@YA_NPBDPAHPBQBDHH@Z 10065440 f   imgui.obj
 0001:00064460       ?Combo@ImGui@@YA_NPBDPAH0H@Z 10065460 f   imgui.obj
 0001:000644c0       ?Combo@ImGui@@YA_NPBDPAHP6A_NPAXHPAPBD@Z2HH@Z 100654c0 f   imgui.obj
 0001:000646b0       ?PopStyleColor@ImGui@@YAXH@Z 100656b0 f   imgui.obj
 0001:000646f0       ?GetStyle@ImGui@@YAAAUImGuiStyle@@XZ 100656f0 f   imgui.obj
 0001:00064700       ?ImageButton@ImGui@@YA_NPAXABUImVec2@@11HABUImVec4@@2@Z 10065700 f   imgui.obj
 0001:00064940       ?EndChild@ImGui@@YAXXZ     10065940 f   imgui.obj
 0001:00064a30       ?InputInt@ImGui@@YA_NPBDPAHHHH@Z 10065a30 f   imgui.obj
 0001:00064a90       ?Render@ImGui@@YAXXZ       10065a90 f   imgui.obj
 0001:00065270       ?SliderInt@ImGui@@YA_NPBDPAHHH0@Z 10066270 f   imgui.obj
 0001:000652c0       ?ColorConvertFloat4ToU32@ImGui@@YAIABUImVec4@@@Z 100662c0 f   imgui.obj
 0001:00065370       ?GetWindowPos@ImGui@@YA?AUImVec2@@XZ 10066370 f   imgui.obj
 0001:00065390       ?Separator@ImGui@@YAXXZ    10066390 f   imgui.obj
 0001:000655e0       ?IsItemHovered@ImGui@@YA_NXZ 100665e0 f   imgui.obj
 0001:00065640       ?GetWindowDrawList@ImGui@@YAPAUImDrawList@@XZ 10066640 f   imgui.obj
 0001:00065660       ?SetNextWindowSize@ImGui@@YAXABUImVec2@@H@Z 10066660 f   imgui.obj
 0001:00065690       ?PopFont@ImGui@@YAXXZ      10066690 f   imgui.obj
 0001:00065740       ?ColorEdit4@ImGui@@YA_NPBDQAMH@Z 10066740 f   imgui.obj
 0001:00066470       ?End@ImGui@@YAXXZ          10067470 f   imgui.obj
 0001:00066670       ?Begin@ImGui@@YA_NPBDPA_NABUImVec2@@MH@Z 10067670 f   imgui.obj
 0001:00066740       ?Text@ImGui@@YAXPBDZZ      10067740 f   imgui.obj
 0001:00066dc0       ?RenderText@ImFont@@QBEXPAUImDrawList@@MUImVec2@@IABUImVec4@@PBD3M_N@Z 10067dc0 f   imgui_draw.obj
 0001:00067370       ?CalcWordWrapPositionA@ImFont@@QBEPBDMPBD0M@Z 10068370 f   imgui_draw.obj
 0001:000674e0       ?AddGlyph@ImFont@@QAEXGMMMMMMMMM@Z 100684e0 f   imgui_draw.obj
 0001:000675f0       ?GrowIndex@ImFont@@QAEXH@Z 100685f0 f   imgui_draw.obj
 0001:00067700       ?BuildLookupTable@ImFont@@QAEXXZ 10068700 f   imgui_draw.obj
 0001:00067970       ?Clear@ImFont@@QAEXXZ      10068970 f   imgui_draw.obj
 0001:00067a50       ?GetGlyphRangesDefault@ImFontAtlas@@QAEPBGXZ 10068a50 f   imgui_draw.obj
 0001:00067a60       ?ImFontAtlasBuildFinish@@YAXPAUImFontAtlas@@@Z 10068a60 f   imgui_draw.obj
 0001:000682d0       ?ImFontAtlasBuildPackCustomRects@@YAXPAUImFontAtlas@@PAX@Z 100692d0 f   imgui_draw.obj
 0001:00068440       ?ImFontAtlasBuildSetupFont@@YAXPAUImFontAtlas@@PAUImFont@@PAUImFontConfig@@MM@Z 10069440 f   imgui_draw.obj
 0001:00068490       ?ImFontAtlasBuildRegisterDefaultCustomRects@@YAXPAUImFontAtlas@@@Z 10069490 f   imgui_draw.obj
 0001:000684f0       ?ImFontAtlasBuildWithStbTruetype@@YA_NPAUImFontAtlas@@@Z 100694f0 f   imgui_draw.obj
 0001:00069800       ?ImFontAtlasBuildMultiplyRectAlpha8@@YAXQBEPAEHHHHH@Z 1006a800 f   imgui_draw.obj
 0001:00069850       ?ImFontAtlasBuildMultiplyCalcLookupTable@@YAXQAEM@Z 1006a850 f   imgui_draw.obj
 0001:000698b0       ?Build@ImFontAtlas@@QAE_NXZ 1006a8b0 f   imgui_draw.obj
 0001:000698c0       ?CalcCustomRectUV@ImFontAtlas@@QAEXPBUCustomRect@1@PAUImVec2@@1@Z 1006a8c0 f   imgui_draw.obj
 0001:00069950       ?AddCustomRectRegular@ImFontAtlas@@QAEHIHH@Z 1006a950 f   imgui_draw.obj
 0001:000699a0       ?AddFontFromMemoryCompressedTTF@ImFontAtlas@@QAEPAUImFont@@PBXHMPBUImFontConfig@@PBG@Z 1006a9a0 f   imgui_draw.obj
 0001:00069a90       ?AddFontFromMemoryTTF@ImFontAtlas@@QAEPAUImFont@@PAXHMPBUImFontConfig@@PBG@Z 1006aa90 f   imgui_draw.obj
 0001:00069b30       ?AddFontDefault@ImFontAtlas@@QAEPAUImFont@@PBUImFontConfig@@@Z 1006ab30 f   imgui_draw.obj
 0001:00069cd0       ?AddFont@ImFontAtlas@@QAEPAUImFont@@PBUImFontConfig@@@Z 1006acd0 f   imgui_draw.obj
 0001:00069ea0       ?GetTexDataAsAlpha8@ImFontAtlas@@QAEXPAPAEPAH11@Z 1006aea0 f   imgui_draw.obj
 0001:00069f90       ?ClearFonts@ImFontAtlas@@QAEXXZ 1006af90 f   imgui_draw.obj
 0001:0006a020       ?ClearTexData@ImFontAtlas@@QAEXXZ 1006b020 f   imgui_draw.obj
 0001:0006a070       ?ClearInputData@ImFontAtlas@@QAEXXZ 1006b070 f   imgui_draw.obj
 0001:0006a1d0       ?PathRect@ImDrawList@@QAEXABUImVec2@@0MH@Z 1006b1d0 f   imgui_draw.obj
 0001:0006a4f0       ?PrimRectUV@ImDrawList@@QAEXABUImVec2@@000I@Z 1006b4f0 f   imgui_draw.obj
 0001:0006a610       ?PrimRect@ImDrawList@@QAEXABUImVec2@@0I@Z 1006b610 f   imgui_draw.obj
 0001:0006a720       ?UpdateTextureID@ImDrawList@@QAEXXZ 1006b720 f   imgui_draw.obj
 0001:0006a7f0       ?UpdateClipRect@ImDrawList@@QAEXXZ 1006b7f0 f   imgui_draw.obj
 0001:0006a8f0       ?AddDrawCmd@ImDrawList@@QAEXXZ 1006b8f0 f   imgui_draw.obj
 0001:00072cf0       ?CalcTextSizeA@ImFont@@QBE?AUImVec2@@MMMPBD0PAPBD@Z 10073cf0 f   imgui_draw.obj
 0001:00072eb0       ?FindGlyph@ImFont@@QBEPBUImFontGlyph@@G@Z 10073eb0 f   imgui_draw.obj
 0001:00072ef0       ??1ImFont@@QAE@XZ          10073ef0 f   imgui_draw.obj
 0001:00072fa0       ??0ImFont@@QAE@XZ          10073fa0 f   imgui_draw.obj
 0001:00073050       ?PrimReserve@ImDrawList@@QAEXHH@Z 10074050 f   imgui_draw.obj
 0001:000730e0       ?ClearFreeMemory@ImDrawList@@QAEXXZ 100740e0 f   imgui_draw.obj
 0001:00073320       ?Clear@ImDrawList@@QAEXXZ  10074320 f   imgui_draw.obj
 0001:00073420       ?ChannelsSetCurrent@ImDrawList@@QAEXH@Z 10074420 f   imgui_draw.obj
 0001:000734a0       ?ChannelsMerge@ImDrawList@@QAEXXZ 100744a0 f   imgui_draw.obj
 0001:00073660       ?PathArcToFast@ImDrawList@@QAEXABUImVec2@@MHH@Z 10074660 f   imgui_draw.obj
 0001:00073880       ?PathArcTo@ImDrawList@@QAEXABUImVec2@@MMMH@Z 10074880 f   imgui_draw.obj
 0001:000739f0       ?AddConvexPolyFilled@ImDrawList@@QAEXPBUImVec2@@HI_N@Z 100749f0 f   imgui_draw.obj
 0001:00073dd0       ?AddPolyline@ImDrawList@@QAEXPBUImVec2@@HI_NM1@Z 10074dd0 f   imgui_draw.obj
 0001:00074900       ?AddText@ImDrawList@@QAEXABUImVec2@@IPBD1@Z 10075900 f   imgui_draw.obj
 0001:00074990       ?AddText@ImDrawList@@QAEXPBUImFont@@MABUImVec2@@IPBD2MPBUImVec4@@@Z 10075990 f   imgui_draw.obj
 0001:00074a90       ?AddCircleFilled@ImDrawList@@QAEXABUImVec2@@MIH@Z 10075a90 f   imgui_draw.obj
 0001:00074b20       ?AddCircle@ImDrawList@@QAEXABUImVec2@@MIHM@Z 10075b20 f   imgui_draw.obj
 0001:00074bb0       ?AddTriangleFilled@ImDrawList@@QAEXABUImVec2@@00I@Z 10075bb0 f   imgui_draw.obj
 0001:00074ce0       ?AddTriangle@ImDrawList@@QAEXABUImVec2@@00IM@Z 10075ce0 f   imgui_draw.obj
 0001:00074e10       ?AddRectFilled@ImDrawList@@QAEXABUImVec2@@0IMH@Z 10075e10 f   imgui_draw.obj
 0001:00074f90       ?AddRect@ImDrawList@@QAEXABUImVec2@@0IMHM@Z 10075f90 f   imgui_draw.obj
 0001:00075050       ?AddLine@ImDrawList@@QAEXABUImVec2@@0IM@Z 10076050 f   imgui_draw.obj
 0001:000751a0       ?PopTextureID@ImDrawList@@QAEXXZ 100761a0 f   imgui_draw.obj
 0001:000751b0       ?PushTextureID@ImDrawList@@QAEXABQAX@Z 100761b0 f   imgui_draw.obj
 0001:00075210       ?PopClipRect@ImDrawList@@QAEXXZ 10076210 f   imgui_draw.obj
 0001:00075220       ?PushClipRectFullScreen@ImDrawList@@QAEXXZ 10076220 f   imgui_draw.obj
 0001:000752b0       ?PushClipRect@ImDrawList@@QAEXUImVec2@@0_N@Z 100762b0 f   imgui_draw.obj
 0001:000753b0       ?Clear@ImFontAtlas@@QAEXXZ 100763b0 f   imgui_draw.obj
 0001:000755e0       ??1ImFontAtlas@@QAE@XZ     100765e0 f   imgui_draw.obj
 0001:00075690       ??0ImFontAtlas@@QAE@XZ     10076690 f   imgui_draw.obj
 0001:00075740       ?ShadeVertsLinearColorGradientKeepAlpha@ImGui@@YAXPAUImDrawVert@@0UImVec2@@1II@Z 10076740 f   imgui_draw.obj
 0001:000758b0       ?GetTexDataAsRGBA32@ImFontAtlas@@QAEXPAPAEPAH11@Z 100768b0 f   imgui_draw.obj
 0001:00075a30       ??0ImFontConfig@@QAE@XZ    10076a30 f   imgui_draw.obj
 0001:00075ab0       ?AddImage@ImDrawList@@QAEXPAXABUImVec2@@111I@Z 10076ab0 f   imgui_draw.obj
 0001:00075b60       ?AddRectFilledMultiColor@ImDrawList@@QAEXABUImVec2@@0IIII@Z 10076b60 f   imgui_draw.obj
 0001:00075ce0       ?GetGlyphRangesCyrillic@ImFontAtlas@@QAEPBGXZ 10076ce0 f   imgui_draw.obj
 0001:00075cf0       ?AddFontFromMemoryCompressedBase85TTF@ImFontAtlas@@QAEPAUImFont@@PBDMPBUImFontConfig@@PBG@Z 10076cf0 f   imgui_draw.obj
 0001:00075f30       ?AddFontFromFileTTF@ImFontAtlas@@QAEPAUImFont@@PBDMPBUImFontConfig@@PBG@Z 10076f30 f   imgui_draw.obj
 0001:00076090       ??MJson@json11@@QBE_NABV01@@Z 10077090 f   json11.obj
 0001:000760f0       ??8Json@json11@@QBE_NABV01@@Z 100770f0 f   json11.obj
 0001:00076140       ??AJsonArray@json11@@EBEABVJson@1@I@Z 10077140 f   json11.obj
 0001:00076170       ??AJsonObject@json11@@EBEABVJson@1@ABV?$basic_string@DU?$char_traits@D@std@@V?$allocator@D@2@@std@@@Z 10077170 f   json11.obj
 0001:000761d0       ??AJsonValue@json11@@MBEABVJson@1@ABV?$basic_string@DU?$char_traits@D@std@@V?$allocator@D@2@@std@@@Z 100771d0 f   json11.obj
 0001:000761e0       ??AJsonValue@json11@@MBEABVJson@1@I@Z 100771e0 f   json11.obj
 0001:000761f0       ?object_items@JsonValue@json11@@MBEABV?$map@V?$basic_string@DU?$char_traits@D@std@@V?$allocator@D@2@@std@@VJson@json11@@U?$less@V?$basic_string@DU?$char_traits@D@std@@V?$allocator@D@2@@std@@@2@V?$allocator@U?$pair@$$CBV?$basic_string@DU?$char_traits@D@std@@V?$allocator@D@2@@std@@VJson@json11@@@std@@@2@@std@@XZ 100771f0 f   json11.obj
 0001:00076200       ?array_items@JsonValue@json11@@MBEABV?$vector@VJson@json11@@V?$allocator@VJson@json11@@@std@@@std@@XZ 10077200 f   json11.obj
 0001:00076210       ?string_value@JsonValue@json11@@MBEABV?$basic_string@DU?$char_traits@D@std@@V?$allocator@D@2@@std@@XZ 10077210 f   json11.obj
 0001:00076220       ?bool_value@JsonValue@json11@@MBE_NXZ 10077220 f   json11.obj
 0001:00076230       ?int_value@JsonValue@json11@@MBEHXZ 10077230 f   json11.obj
 0001:00076240       ?number_value@JsonValue@json11@@MBENXZ 10077240 f   json11.obj
 0001:00076250       ??0Json@json11@@QAE@XZ     10077250 f   json11.obj
 0001:000764b0       ?dump@Json@json11@@QBEXAAV?$basic_string@DU?$char_traits@D@std@@V?$allocator@D@2@@std@@@Z 100774b0 f   json11.obj
 0001:00076e00       ?ApplyAAAHooks@@YAXXZ      10077e00 f   RecvProp.obj
 0001:00076f30       ?hkGetViewModelFOV@Hooks@@YGMXZ 10077f30 f   RenderView.obj
 0001:00076f60       ?SetFlags@SpoofedConvar@@QAEXH@Z 10077f60 f   ConVar.obj
 0001:00076f80       ?Spoof@SpoofedConvar@@QAEXXZ 10077f80 f   ConVar.obj
 0001:000770a0       ?IsSpoofed@SpoofedConvar@@QAE_NXZ 100780a0 f   ConVar.obj
 0001:000770b0       ?SetValue@ConVar@@QAEXH@Z  100780b0 f   ConVar.obj
 0001:000770c0       ?SetInt@SpoofedConvar@@QAEXH@Z 100780c0 f   ConVar.obj
 0001:000770e0       ??0SpoofedConvar@@QAE@PAVConVar@@@Z 100780e0 f   ConVar.obj
 0001:00077100       ?ScreenTransform@D@@YA_NABVVector@@AAV2@@Z 10078100 f   Draw.obj
 0001:000771e0       ?SetupFonts@D@@YAXXZ       100781e0 f   Draw.obj
 0001:00077700       ?DrawPixel@D@@YAXHHVColor@@@Z 10078700 f   Draw.obj
 0001:00077730       ?DrawRect@D@@YAXHHHHVColor@@@Z 10078730 f   Draw.obj
 0001:00077770       ?DrawLine@D@@YAXHHHHVColor@@@Z 10078770 f   Draw.obj
 0001:000777b0       ?DrawString@D@@YAXKHHVColor@@KPBDZZ 100787b0 f   Draw.obj
 0001:00077910       ?WorldToScreen@D@@YA_NABVVector@@AAV2@@Z 10078910 f   Draw.obj
 0001:00077aa0       ?IsWeapon@CBaseEntity@@QAE_NXZ 10078aa0 f   Entity.obj
 0001:00077ab0       ?SetModelIndex@CBaseEntity@@QAEXH@Z 10078ab0 f   Entity.obj
 0001:00077ac0       ?GetFallbackWear@CBaseCombatWeapon@@QAEAAMXZ 10078ac0 f   Entity.obj
 0001:00077ad0       ?GetCustomName@CBaseCombatWeapon@@QAEPADXZ 10078ad0 f   Entity.obj
 0001:00077ae0       ?GetFallbackStatTrak@CBaseCombatWeapon@@QAEAAHXZ 10078ae0 f   Entity.obj
 0001:00077af0       ?GetWorldModelIndex@CBaseCombatWeapon@@QAEAAHXZ 10078af0 f   Entity.obj
 0001:00077b00       ?GetViewModelIndex@CBaseCombatWeapon@@QAEAAHXZ 10078b00 f   Entity.obj
 0001:00077b10       ?GetFallbackPaintKit@CBaseCombatWeapon@@QAEAAHXZ 10078b10 f   Entity.obj
 0001:00077b20       ?GetItemIDHigh@CBaseCombatWeapon@@QAEAAHXZ 10078b20 f   Entity.obj
 0001:00077b30       ?GetAccountID@CBaseCombatWeapon@@QAEAAHXZ 10078b30 f   Entity.obj
 0001:00077b40       ?GetEntityQuality@CBaseCombatWeapon@@QAEAAHXZ 10078b40 f   Entity.obj
 0001:00077b50       ?GetInaccuracy@CBaseCombatWeapon@@QAEAAMXZ 10078b50 f   Entity.obj
 0001:00077b60       ?PreDataUpdate@CBaseEntity@@QAEXW4DataUpdateType_t@@@Z 10078b60 f   Entity.obj
 0001:00077b70       ?GetPlayerInfo@CBaseEntity@@QAE?AUplayer_info_t@@XZ 10078b70 f   Entity.obj
 0001:00077b90       ?DrawModel@CBaseEntity@@QAEHHABH@Z 10078b90 f   Entity.obj
 0001:00077ba0       ?GetPunchAngle@CBaseEntity@@QAE?AVVector@@XZ 10078ba0 f   Entity.obj
 0001:00077bc0       ?GetLifeState@CBaseEntity@@QAE_NXZ 10078bc0 f   Entity.obj
 0001:00077bf0       ?GetWeapons@CBaseEntity@@QAEPAHXZ 10078bf0 f   Entity.obj
 0001:00077c20       ?GetFlashDuration@CBaseEntity@@QAEMXZ 10078c20 f   Entity.obj
 0001:00077c50       ?GetAbsOrigin@CBaseEntity@@QAE?AVVector@@XZ 10078c50 f   Entity.obj
 0001:00077c70       ?GetEyeAnglesxd@CBaseEntity@@QAE?AVVector@@XZ 10078c70 f   Entity.obj
 0001:00077c90       ?IsFlashed@CBaseEntity@@QAE_NXZ 10078c90 f   Entity.obj
 0001:00077ce0       ?IsDefusing@CBaseEntity@@QAE_NXZ 10078ce0 f   Entity.obj
 0001:00077d00       ?IsReloading@CBaseCombatWeapon@@QAE_NXZ 10078d00 f   Entity.obj
 0001:00077d10       ?BulletSize@CBaseCombatWeapon@@QAEHXZ 10078d10 f   Entity.obj
 0001:00077e20       ?ammo2@CBaseCombatWeapon@@QAEHXZ 10078e20 f   Entity.obj
 0001:00077e30       ?ammo@CBaseCombatWeapon@@QAEHXZ 10078e30 f   Entity.obj
 0001:00077e40       ?GetHeadRotation@CBaseEntity@@QAEPAVQAngle@@XZ 10078e40 f   Entity.obj
 0001:00077e50       ?GetWeaponID@CBaseCombatWeapon@@QAEAAFXZ 10078e50 f   Entity.obj
 0001:00077e60       ?GetObserverTargetHandle@CBaseEntity@@QAEPAXXZ 10078e60 f   Entity.obj
 0001:00077e70       ?GetCollideable@CBaseEntity@@QAEPAVICollideable@@XZ 10078e70 f   Entity.obj
 0001:00077e80       ?GetBombTimer@CBaseEntity@@QAEMXZ 10078e80 f   Entity.obj
 0001:00077ec0       ?IsEnemy@CBaseEntity@@QAE_NXZ 10078ec0 f   Entity.obj
 0001:00077f50       ?GetOwner@CBaseEntity@@QAEHXZ 10078f50 f   Entity.obj
 0001:00077f80       ?GetUserID@CBaseEntity@@QAEHXZ 10078f80 f   Entity.obj
 0001:00077ff0       ?GetWeaponName@CBaseCombatWeapon@@QAE?AV?$basic_string@DU?$char_traits@D@std@@V?$allocator@D@2@@std@@XZ 10078ff0 f   Entity.obj
 0001:00079310       ?IsGun@CBaseCombatWeapon@@QAE_NXZ 1007a310 f   Entity.obj
 0001:00079390       ?Clip2@CBaseCombatWeapon@@QAEHXZ 1007a390 f   Entity.obj
 0001:000793c0       ?Clip@CBaseCombatWeapon@@QAEHXZ 1007a3c0 f   Entity.obj
 0001:000793f0       ?GetClientClass@CBaseEntity@@QAEPAUClientClass@@XZ 1007a3f0 f   Entity.obj
 0001:00079400       ?GetEyeAngles@CBaseEntity@@QAE?AVQAngle@@XZ 1007a400 f   Entity.obj
 0001:00079420       ?GetBoneByName@CBaseEntity@@QAEHPBD@Z 1007a420 f   Entity.obj
 0001:00079530       ?IsSniper@CBaseCombatWeapon@@QAE_NXZ 1007a530 f   Entity.obj
 0001:000795b0       ?GetIndex@CBaseEntity@@QAEHXZ 1007a5b0 f   Entity.obj
 0001:000795c0       ?GetPunch@CBaseEntity@@QAE?AVQAngle@@XZ 1007a5c0 f   Entity.obj
 0001:000795e0       ?IsScoped@CBaseEntity@@QAE_NXZ 1007a5e0 f   Entity.obj
 0001:00079600       ?IsVisible@CBaseEntity@@QAE_NH@Z 1007a600 f   Entity.obj
 0001:00079730       ?GetHitboxSet@CBaseEntity@@QAEHXZ 1007a730 f   Entity.obj
 0001:00079760       ?GetShotsFired@CBaseEntity@@QAEHXZ 1007a760 f   Entity.obj
 0001:00079790       ?GetHealth@CBaseEntity@@QAEHXZ 1007a790 f   Entity.obj
 0001:000797b0       ?GetItemDefinitionIndex@CBaseCombatWeapon@@QAEAAFXZ 1007a7b0 f   Entity.obj
 0001:000797c0       ?GetInaccuracyReal@CBaseCombatWeapon@@QAEMXZ 1007a7c0 f   Entity.obj
 0001:000797e0       ?HasHelmet@CBaseEntity@@QAE_NXZ 1007a7e0 f   Entity.obj
 0001:00079800       ?GetArmor@CBaseEntity@@QAEHXZ 1007a800 f   Entity.obj
 0001:00079830       ?GetCSWpnData@CBaseCombatWeapon@@QAEPAVWeaponInfo_t@@XZ 1007a830 f   Entity.obj
 0001:00079850       ?GetWeapon@CBaseEntity@@QAEPAVCBaseCombatWeapon@@XZ 1007a850 f   Entity.obj
 0001:00079890       ?GetModel@CBaseEntity@@QAEPAUmodel_t@@XZ 1007a890 f   Entity.obj
 0001:000798b0       ?GetVelocity@CBaseEntity@@QAE?AVVector@@XZ 1007a8b0 f   Entity.obj
 0001:000798d0       ?SetupBones@CBaseEntity@@QAE_NPAUmatrix3x4_t@@HHM@Z 1007a8d0 f   Entity.obj
 0001:00079900       ?GetBonePosition@CBaseEntity@@QAE?AVVector@@H@Z 1007a900 f   Entity.obj
 0001:000799b0       ?GetEyePosition@CBaseEntity@@QAE?AVVector@@XZ 1007a9b0 f   Entity.obj
 0001:00079a20       ?GetOrigin@CBaseEntity@@QAE?AVVector@@XZ 1007aa20 f   Entity.obj
 0001:00079a40       ?GetLowerBodyYawTarget@CBaseEntity@@QAEPAMXZ 1007aa40 f   Entity.obj
 0001:00079a50       ?GetImmune@CBaseEntity@@QAE_NXZ 1007aa50 f   Entity.obj
 0001:00079a70       ?GetMoveType@CBaseEntity@@QAEHXZ 1007aa70 f   Entity.obj
 0001:00079aa0       ?GetTickBase@CBaseEntity@@QAEHXZ 1007aaa0 f   Entity.obj
 0001:00079ad0       ?GetFlags@CBaseEntity@@QAEHXZ 1007aad0 f   Entity.obj
 0001:00079b00       ?GetThrowTime@CBaseCSGrenade@@QAEMXZ 1007ab00 f   Entity.obj
 0001:00079b10       ?IsKnife@CBaseCombatWeapon@@QAE_NXZ 1007ab10 f   Entity.obj
 0001:00079b70       ?IsGrenade@CBaseCombatWeapon@@QAE_NXZ 1007ab70 f   Entity.obj
 0001:00079b90       ?GetNextPrimaryAttack@CBaseCombatWeapon@@QAEAAMXZ 1007ab90 f   Entity.obj
 0001:00079ba0       ?GetAlive@CBaseEntity@@QAE_NXZ 1007aba0 f   Entity.obj
 0001:00079bf0       ?GetTeam@CBaseEntity@@QAEHXZ 1007abf0 f   Entity.obj
 0001:00079c20       ?GetModelIndex@CBaseCombatWeapon@@QAEAAHXZ 1007ac20 f   Entity.obj
 0001:00079c30       ?GetModel@CBaseCombatWeapon@@QAEPAUmodel_t@@XZ 1007ac30 f   Entity.obj
 0001:00079c40       ?GetAllClasses@IBaseClientDll@@QAEPAUClientClass@@XZ 1007ac40 f   IBaseClientDLL.obj
 0001:00079c60       ?CreateMaterial@IMaterialSystem@@QAEPAVIMaterial@@_N00@Z 1007ac60 f   IMaterialSystem.obj
 0001:0007ac30       ?FindMaterial@IMaterialSystem@@QAEPAVIMaterial@@PBD0_N0@Z 1007bc30 f   IMaterialSystem.obj
 0001:0007ac60       ?unlockcursor@ISurface@@QAEXXZ 1007bc60 f   ISurface.obj
 0001:0007ac80       ?GetTextSize@ISurface@@QAEXKPB_WAAH1@Z 1007bc80 f   ISurface.obj
 0001:0007acb0       ?SetFontGlyphSet@ISurface@@QAE_NKPBDHHHHHHH@Z 1007bcb0 f   ISurface.obj
 0001:0007acf0       ?Create_Font@ISurface@@QAEKXZ 1007bcf0 f   ISurface.obj
 0001:0007ad10       ?DrawPrintText@ISurface@@QAEXPB_WHW4FontDrawType_t@@@Z 1007bd10 f   ISurface.obj
 0001:0007ad30       ?DrawSetTextPos@ISurface@@QAEXHH@Z 1007bd30 f   ISurface.obj
 0001:0007ad50       ?DrawSetTextColor@ISurface@@QAEXHHHH@Z 1007bd50 f   ISurface.obj
 0001:0007ad80       ?DrawSetTextFont@ISurface@@QAEXK@Z 1007bd80 f   ISurface.obj
 0001:0007ada0       ?DrawLine@ISurface@@QAEXHHHH@Z 1007bda0 f   ISurface.obj
 0001:0007add0       ?DrawFilledRect@ISurface@@QAEXHHHH@Z 1007bdd0 f   ISurface.obj
 0001:0007ae00       ?DrawOutlinedRect@ISurface@@QAEXHHHH@Z 1007be00 f   ISurface.obj
 0001:0007ae30       ?DrawSetColor@ISurface@@QAEXVColor@@@Z 1007be30 f   ISurface.obj
 0001:0007ae50       ?ForcedMaterialOverride@IVModelRender@@QAEXPAVIMaterial@@@Z 1007be50 f   IVModelRender.obj
 0001:0007ae70       ?GetName@IVPanel@@QAEPBDH@Z 1007be70 f   IVPanel.obj
 0001:0007ae90       ?VectorAngles@M@@YAXABVVector@@AAVQAngle@@@Z 1007be90 f   Math.obj
 0001:0007afe0       ?VectorDistance@M@@YAMVVector@@0@Z 1007bfe0 f   Math.obj
 0001:0007b030       ?GetFov@M@@YAMABVQAngle@@0@Z 1007c030 f   Math.obj
 0001:0007b180       ?CalcAngle@M@@YA?AVQAngle@@VVector@@0@Z 1007c180 f   Math.obj
 0001:0007b330       ?AngleVectors@M@@YAXABVQAngle@@PAVVector@@@Z 1007c330 f   Math.obj
 0001:0007b3d0       ?CorrectMovement@M@@YAXVQAngle@@PAVCUserCmd@@MM@Z 1007c3d0 f   Math.obj
 0001:0007b4d0       ?GetTable@CNetVarManager@@AAEPAURecvTable@@PBD@Z 1007c4d0 f   NetVarManager.obj
 0001:0007b520       ?Get_Prop@CNetVarManager@@AAEHPAURecvTable@@PBDPAPAURecvProp@@@Z 1007c520 f   NetVarManager.obj
 0001:0007b5b0       ?Get_Prop@CNetVarManager@@AAEHPBD0PAPAURecvProp@@@Z 1007c5b0 f   NetVarManager.obj
 0001:0007b610       ?GetOffset@CNetVarManager@@QAEHPBD0@Z 1007c610 f   NetVarManager.obj
 0001:0007b630       ?Initialize@CNetVarManager@@QAEXXZ 1007c630 f   NetVarManager.obj
 0001:0007b690       ?SetupValue@CConfig@@AAEXAA_N_NV?$basic_string@DU?$char_traits@D@std@@V?$allocator@D@2@@std@@2@Z 1007c690 f   Config.obj
 0001:0007b8b0       ?SetupValue@CConfig@@AAEXAAMMV?$basic_string@DU?$char_traits@D@std@@V?$allocator@D@2@@std@@1@Z 1007c8b0 f   Config.obj
 0001:0007bad0       ?SetupValue@CConfig@@AAEXAAHHV?$basic_string@DU?$char_traits@D@std@@V?$allocator@D@2@@std@@1@Z 1007cad0 f   Config.obj
 0001:0007bcf0       ?Setup@CConfig@@QAEXXZ     1007ccf0 f   Config.obj
 0001:000800e0       ?GetWeaponName@@YAPBDH@Z   100810e0 f   Config.obj
 0001:00080330       ?GetConfigs@Variables@@QAE?AV?$vector@V?$basic_string@DU?$char_traits@D@std@@V?$allocator@D@2@@std@@V?$allocator@V?$basic_string@DU?$char_traits@D@std@@V?$allocator@D@2@@std@@@2@@std@@XZ 10081330 f   Config.obj
 0001:00080770       ?CreateConfig@Variables@@QAEXV?$basic_string@DU?$char_traits@D@std@@V?$allocator@D@2@@std@@@Z 10081770 f   Config.obj
 0001:00080b30       ?Load@Variables@@QAE_NV?$basic_string@DU?$char_traits@D@std@@V?$allocator@D@2@@std@@@Z 10081b30 f   Config.obj
 0001:00081140       ?Save@Variables@@QAE_NV?$basic_string@DU?$char_traits@D@std@@V?$allocator@D@2@@std@@@Z 10082140 f   Config.obj
 0001:00081620       ?GrabOffsets@Offsets@@YAXXZ 10082620 f   Offsets.obj
 0001:00087930       ?GetActiveBaseCombatWeaponxd@Menu@@YAPAVCBaseCombatWeapon@@PAVCBaseEntity@@@Z 10088930 f   Util.obj
 0001:00087950       ?SetupTextures@U@@YAXXZ    10088950 f   Util.obj
 0001:00087f10       ?SetupOffsets@U@@YAXXZ     10088f10 f   Util.obj
 0001:00087f70       ?SetupHooks@U@@YAXXZ       10088f70 f   Util.obj
 0001:000883f0       ?SceneEnd_h@@YIXPAX0@Z     100893f0 f   Util.obj
 0001:00088930       ?PlaySound_CSGO@Hooks@@YGXXZ 10089930 f   Util.obj
 0001:00088950       ?SetupInterfaces@U@@YAXXZ  10089950 f   Util.obj
 0001:0008bbe0       ?InitKeyValues@U@@YAXPAVKeyValues@@PBD@Z 1008cbe0 f   Util.obj
 0001:0008bbf0       ?LoadFromBuffer@U@@YAXPAVKeyValues@@PBD1PAX12@Z 1008cbf0 f   Util.obj
 0001:0008bc10       ?GetTextWitdh@Menu@@YAMPADPAUID3DXFont@@@Z 1008cc10 f   Util.obj
 0001:0008bc70       ?GetTextWitdhW@Menu@@YAHPA_WPAUID3DXFont@@@Z 1008cc70 f   Util.obj
 0001:0008bcc0       ?DrawFilledRectangle@Menu@@YAXMMMMKPAUIDirect3DDevice9@@@Z 1008ccc0 f   Util.obj
 0001:0008be40       ?DrawCornierBoxFastAlpha@Menu@@YAXMMMMKMPAUIDirect3DDevice9@@@Z 1008ce40 f   Util.obj
 0001:0008c270       ?FrameRate@Menu@@YAHXZ     1008d270 f   Util.obj
 0001:0008c2d0       ?RenderMonitor@Menu@@YAXXZ 1008d2d0 f   Util.obj
 0001:0008ca20       ?DrawStringWithFont@Menu@@YAXPAUID3DXFont@@MMKPADZZ 1008da20 f   Util.obj
 0001:0008cab0       ?WorldToScreen@Menu@@YA_NVVector@@AAV2@@Z 1008dab0 f   Util.obj
 0001:0008cc40       ?DrawLineFast@Menu@@YAXMMMMKPAUIDirect3DDevice9@@@Z 1008dc40 f   Util.obj
 0001:0008cd30       ?SafeWeaponID@U@@YAHXZ     1008dd30 f   Util.obj
 0001:0008cd80       ?GetLocalPlayer@U@@YAPAVCBaseEntity@@XZ 1008dd80 f   Util.obj
 0001:0008cda0       ?FindPattern@U@@YAKV?$basic_string@DU?$char_traits@D@std@@V?$allocator@D@2@@std@@0@Z 1008dda0 f   Util.obj
 0001:0008cf40       ?ClipTraceToPlayers@U@@YAXABVVector@@0IPAVITraceFilter@@PAVCGameTrace@@@Z 1008df40 f   Util.obj
 0001:0008cf80       ?TraceLine@U@@YAXABVVector@@0IPAVCBaseEntity@@PAVCGameTrace@@@Z 1008df80 f   Util.obj
 0001:0008cff0       ?Setup@U@@YAXXZ            1008dff0 f   Util.obj
 0001:0008d1a0       ?ApplyGloveCustomSkin@SkinChanger@@YAXPAVCBaseEntity@@H@Z 1008e1a0 f   SkinChanger.obj
 0001:0008da90       ?ChangeKnifeColor@@YAXPAVCBaseCombatWeapon@@HHHHHHHHHH@Z 1008ea90 f   SkinChanger.obj
 0001:0008dc70       ?FrameStageNotify@SkinChanger@@YAXW4ClientFrameStage_t@@@Z 1008ec70 f   SkinChanger.obj
 0001:0008e710       ?KnifeEventFire@SkinChanger@@YAXPAVIGameEvent@@@Z 1008f710 f   SkinChanger.obj
 0001:00090c00       ?ApplyStickerHooks@@YAXPAVCBaseCombatWeapon@@@Z 10091c00 f   Stiker.obj
 0001:00090c90       __allmul                   10091c90 f   MSVCRT:llmul.obj
 0001:00090cd0       __alloca_probe_16          10091cd0 f   MSVCRT:alloca16.obj
 0001:00090ce6       __alloca_probe_8           10091ce6     MSVCRT:alloca16.obj
 0001:00090d00       __chkstk                   10091d00 f   MSVCRT:chkstk.obj
 0001:00090d00       __alloca_probe             10091d00 f   MSVCRT:chkstk.obj
 0001:00090d30       __ftol2_sse                10091d30 f   MSVCRT:ftol2.obj
 0001:00090d39       __ftol2_pentium4           10091d39 f   MSVCRT:ftol2.obj
 0001:00090d4c       __ftol2_sse_excpt          10091d4c f   MSVCRT:ftol2.obj
 0001:00090d70       __ftol2                    10091d70 f   MSVCRT:ftol2.obj
 0001:00090df0       __ftoui3                   10091df0 f   MSVCRT:ftol3.obj
 0001:00090dff       __ftoul3                   10091dff f   MSVCRT:ftol3.obj
 0001:00090e0e       __ftol3                    10091e0e f   MSVCRT:ftol3.obj
 0001:00090e1b       __ftol3_NaN                10091e1b f   MSVCRT:ftol3.obj
 0001:00090e33       __ftol3_work               10091e33 f   MSVCRT:ftol3.obj
 0001:00090eb9       __ftol3_common             10091eb9 f   MSVCRT:ftol3.obj
 0001:00090f7b       __ftol3_arg_error          10091f7b f   MSVCRT:ftol3.obj
 0001:00090f8d       __ftol3_except             10091f8d f   MSVCRT:ftol3.obj
 0001:00090fd1       __dtoui3                   10091fd1 f   MSVCRT:ftol3.obj
 0001:00090fe0       __dtoul3                   10091fe0 f   MSVCRT:ftol3.obj
 0001:00090fef       __dtol3                    10091fef f   MSVCRT:ftol3.obj
 0001:00090ffc       __dtol3_NaN                10091ffc f   MSVCRT:ftol3.obj
 0001:00091019       __dtol3_work               10092019 f   MSVCRT:ftol3.obj
 0001:00091100       __ultod3                   10092100 f   MSVCRT:ftol3.obj
 0001:00091140       __ltod3                    10092140 f   MSVCRT:ftol3.obj
 0001:00091167       _memchr                    10092167 f   vcruntime:VCRUNTIME140.dll
 0001:0009116d       _memmove                   1009216d f   vcruntime:VCRUNTIME140.dll
 0001:00091173       __CIatan2                  10092173 f   ucrt:api-ms-win-crt-math-l1-1-0.dll
 0001:00091179       __CIfmod                   10092179 f   ucrt:api-ms-win-crt-math-l1-1-0.dll
 0001:0009117f       __libm_sse2_acos_precise   1009217f f   ucrt:api-ms-win-crt-math-l1-1-0.dll
 0001:00091185       __libm_sse2_asin_precise   10092185 f   ucrt:api-ms-win-crt-math-l1-1-0.dll
 0001:0009118b       __libm_sse2_atan_precise   1009218b f   ucrt:api-ms-win-crt-math-l1-1-0.dll
 0001:00091191       __libm_sse2_cos_precise    10092191 f   ucrt:api-ms-win-crt-math-l1-1-0.dll
 0001:00091197       __libm_sse2_pow_precise    10092197 f   ucrt:api-ms-win-crt-math-l1-1-0.dll
 0001:0009119d       __libm_sse2_sin_precise    1009219d f   ucrt:api-ms-win-crt-math-l1-1-0.dll
 0001:000911a3       __libm_sse2_sqrt_precise   100921a3 f   ucrt:api-ms-win-crt-math-l1-1-0.dll
 0001:000911a9       _ceil                      100921a9 f   ucrt:api-ms-win-crt-math-l1-1-0.dll
 0001:000911af       _floor                     100921af f   ucrt:api-ms-win-crt-math-l1-1-0.dll
 0001:000911b5       __except1                  100921b5 f   ucrt:api-ms-win-crt-math-l1-1-0.dll
 0002:00000000       __imp__ImmSetCompositionWindow@8 10095000     imm32:IMM32.dll
 0002:00000004       __imp__ImmGetContext@4     10095004     imm32:IMM32.dll
 0002:00000008       \177IMM32_NULL_THUNK_DATA  10095008     imm32:IMM32.dll
 0002:0000000c       __imp__Sleep@4             1009500c     kernel32:KERNEL32.dll
 0002:00000010       __imp__CloseHandle@4       10095010     kernel32:KERNEL32.dll
 0002:00000014       __imp__CreateThread@24     10095014     kernel32:KERNEL32.dll
 0002:00000018       __imp__ExitProcess@4       10095018     kernel32:KERNEL32.dll
 0002:0000001c       __imp__GetTickCount@0      1009501c     kernel32:KERNEL32.dll
 0002:00000020       __imp__GetModuleHandleA@4  10095020     kernel32:KERNEL32.dll
 0002:00000024       __imp__GetProcAddress@8    10095024     kernel32:KERNEL32.dll
 0002:00000028       __imp__QueryPerformanceFrequency@4 10095028     kernel32:KERNEL32.dll
 0002:0000002c       __imp__QueryPerformanceCounter@4 1009502c     kernel32:KERNEL32.dll
 0002:00000030       __imp__GlobalAlloc@8       10095030     kernel32:KERNEL32.dll
 0002:00000034       __imp__GlobalLock@4        10095034     kernel32:KERNEL32.dll
 0002:00000038       __imp__GlobalUnlock@4      10095038     kernel32:KERNEL32.dll
 0002:0000003c       __imp__VirtualProtect@16   1009503c     kernel32:KERNEL32.dll
 0002:00000040       __imp__FindFirstFileA@8    10095040     kernel32:KERNEL32.dll
 0002:00000044       __imp__FindNextFileA@8     10095044     kernel32:KERNEL32.dll
 0002:00000048       __imp__CreateDirectoryA@8  10095048     kernel32:KERNEL32.dll
 0002:0000004c       __imp__GetCurrentProcess@0 1009504c     kernel32:KERNEL32.dll
 0002:00000050       __imp__K32GetModuleInformation@16 10095050     kernel32:KERNEL32.dll
 0002:00000054       __imp__InitializeSListHead@4 10095054     kernel32:KERNEL32.dll
 0002:00000058       __imp__GetSystemTimeAsFileTime@4 10095058     kernel32:KERNEL32.dll
 0002:0000005c       __imp__GetCurrentThreadId@0 1009505c     kernel32:KERNEL32.dll
 0002:00000060       __imp__GetCurrentProcessId@0 10095060     kernel32:KERNEL32.dll
 0002:00000064       __imp__IsDebuggerPresent@0 10095064     kernel32:KERNEL32.dll
 0002:00000068       __imp__IsProcessorFeaturePresent@4 10095068     kernel32:KERNEL32.dll
 0002:0000006c       __imp__TerminateProcess@8  1009506c     kernel32:KERNEL32.dll
 0002:00000070       __imp__SetUnhandledExceptionFilter@4 10095070     kernel32:KERNEL32.dll
 0002:00000074       __imp__UnhandledExceptionFilter@4 10095074     kernel32:KERNEL32.dll
 0002:00000078       __imp__GetModuleHandleW@4  10095078     kernel32:KERNEL32.dll
 0002:0000007c       __imp__CreateEventW@16     1009507c     kernel32:KERNEL32.dll
 0002:00000080       __imp__WaitForSingleObjectEx@12 10095080     kernel32:KERNEL32.dll
 0002:00000084       __imp__ResetEvent@4        10095084     kernel32:KERNEL32.dll
 0002:00000088       __imp__SetEvent@4          10095088     kernel32:KERNEL32.dll
 0002:0000008c       __imp__DeleteCriticalSection@4 1009508c     kernel32:KERNEL32.dll
 0002:00000090       __imp__InitializeCriticalSectionAndSpinCount@8 10095090     kernel32:KERNEL32.dll
 0002:00000094       __imp__LeaveCriticalSection@4 10095094     kernel32:KERNEL32.dll
 0002:00000098       __imp__EnterCriticalSection@4 10095098     kernel32:KERNEL32.dll
 0002:0000009c       __imp__SetLastError@4      1009509c     kernel32:KERNEL32.dll
 0002:000000a0       __imp__FlushInstructionCache@12 100950a0     kernel32:KERNEL32.dll
 0002:000000a4       __imp__MultiByteToWideChar@24 100950a4     kernel32:KERNEL32.dll
 0002:000000a8       \177KERNEL32_NULL_THUNK_DATA 100950a8     kernel32:KERNEL32.dll
 0002:000000ac       __imp_?_Xout_of_range@std@@YAXPBD@Z 100950ac     msvcprt:MSVCP140.dll
 0002:000000b0       __imp_??1_Lockit@std@@QAE@XZ 100950b0     msvcprt:MSVCP140.dll
 0002:000000b4       __imp_??0_Lockit@std@@QAE@H@Z 100950b4     msvcprt:MSVCP140.dll
 0002:000000b8       __imp_?_Getgloballocale@locale@std@@CAPAV_Locimp@12@XZ 100950b8     msvcprt:MSVCP140.dll
 0002:000000bc       __imp_?id@?$codecvt@DDU_Mbstatet@@@std@@2V0locale@2@A 100950bc     msvcprt:MSVCP140.dll
 0002:000000c0       __imp_?_Fiopen@std@@YAPAU_iobuf@@PBDHH@Z 100950c0     msvcprt:MSVCP140.dll
 0002:000000c4       __imp_?_Getcat@?$codecvt@DDU_Mbstatet@@@std@@SAIPAPBVfacet@locale@2@PBV42@@Z 100950c4     msvcprt:MSVCP140.dll
 0002:000000c8       __imp_??0?$basic_streambuf@DU?$char_traits@D@std@@@std@@IAE@XZ 100950c8     msvcprt:MSVCP140.dll
 0002:000000cc       __imp_?getloc@?$basic_streambuf@DU?$char_traits@D@std@@@std@@QBE?AVlocale@2@XZ 100950cc     msvcprt:MSVCP140.dll
 0002:000000d0       __imp_?_Init@?$basic_streambuf@DU?$char_traits@D@std@@@std@@IAEXXZ 100950d0     msvcprt:MSVCP140.dll
 0002:000000d4       __imp_?unshift@?$codecvt@DDU_Mbstatet@@@std@@QBEHAAU_Mbstatet@@PAD1AAPAD@Z 100950d4     msvcprt:MSVCP140.dll
 0002:000000d8       __imp_?clear@?$basic_ios@DU?$char_traits@D@std@@@std@@QAEXH_N@Z 100950d8     msvcprt:MSVCP140.dll
 0002:000000dc       __imp_?setstate@?$basic_ios@DU?$char_traits@D@std@@@std@@QAEXH_N@Z 100950dc     msvcprt:MSVCP140.dll
 0002:000000e0       __imp_??0?$basic_ios@DU?$char_traits@D@std@@@std@@IAE@XZ 100950e0     msvcprt:MSVCP140.dll
 0002:000000e4       __imp_?_Pninc@?$basic_streambuf@DU?$char_traits@D@std@@@std@@IAEPADXZ 100950e4     msvcprt:MSVCP140.dll
 0002:000000e8       __imp_??0?$basic_ostream@DU?$char_traits@D@std@@@std@@QAE@PAV?$basic_streambuf@DU?$char_traits@D@std@@@1@_N@Z 100950e8     msvcprt:MSVCP140.dll
 0002:000000ec       __imp_?in@?$codecvt@DDU_Mbstatet@@@std@@QBEHAAU_Mbstatet@@PBD1AAPBDPAD3AAPAD@Z 100950ec     msvcprt:MSVCP140.dll
 0002:000000f0       __imp_?out@?$codecvt@DDU_Mbstatet@@@std@@QBEHAAU_Mbstatet@@PBD1AAPBDPAD3AAPAD@Z 100950f0     msvcprt:MSVCP140.dll
 0002:000000f4       __imp_??1?$basic_ios@DU?$char_traits@D@std@@@std@@UAE@XZ 100950f4     msvcprt:MSVCP140.dll
 0002:000000f8       __imp_??1?$basic_streambuf@DU?$char_traits@D@std@@@std@@UAE@XZ 100950f8     msvcprt:MSVCP140.dll
 0002:000000fc       __imp_?showmanyc@?$basic_streambuf@DU?$char_traits@D@std@@@std@@MAE_JXZ 100950fc     msvcprt:MSVCP140.dll
 0002:00000100       __imp_?xsgetn@?$basic_streambuf@DU?$char_traits@D@std@@@std@@MAE_JPAD_J@Z 10095100     msvcprt:MSVCP140.dll
 0002:00000104       __imp_?xsputn@?$basic_streambuf@DU?$char_traits@D@std@@@std@@MAE_JPBD_J@Z 10095104     msvcprt:MSVCP140.dll
 0002:00000108       __imp_??1?$basic_ostream@DU?$char_traits@D@std@@@std@@UAE@XZ 10095108     msvcprt:MSVCP140.dll
 0002:0000010c       __imp_??6?$basic_ostream@DU?$char_traits@D@std@@@std@@QAEAAV01@H@Z 1009510c     msvcprt:MSVCP140.dll
 0002:00000110       __imp_?always_noconv@codecvt_base@std@@QBE_NXZ 10095110     msvcprt:MSVCP140.dll
 0002:00000114       __imp_??Bid@locale@std@@QAEIXZ 10095114     msvcprt:MSVCP140.dll
 0002:00000118       __imp_?_Ipfx@?$basic_istream@DU?$char_traits@D@std@@@std@@QAE_N_N@Z 10095118     msvcprt:MSVCP140.dll
 0002:0000011c       __imp_?snextc@?$basic_streambuf@DU?$char_traits@D@std@@@std@@QAEHXZ 1009511c     msvcprt:MSVCP140.dll
 0002:00000120       __imp_?widen@?$basic_ios@DU?$char_traits@D@std@@@std@@QBEDD@Z 10095120     msvcprt:MSVCP140.dll
 0002:00000124       __imp_?sbumpc@?$basic_streambuf@DU?$char_traits@D@std@@@std@@QAEHXZ 10095124     msvcprt:MSVCP140.dll
 0002:00000128       __imp_?sgetc@?$basic_streambuf@DU?$char_traits@D@std@@@std@@QAEHXZ 10095128     msvcprt:MSVCP140.dll
 0002:0000012c       __imp_??0?$basic_iostream@DU?$char_traits@D@std@@@std@@QAE@PAV?$basic_streambuf@DU?$char_traits@D@std@@@1@@Z 1009512c     msvcprt:MSVCP140.dll
 0002:00000130       __imp_??1?$basic_iostream@DU?$char_traits@D@std@@@std@@UAE@XZ 10095130     msvcprt:MSVCP140.dll
 0002:00000134       __imp_?_Xlength_error@std@@YAXPBD@Z 10095134     msvcprt:MSVCP140.dll
 0002:00000138       \177MSVCP140_NULL_THUNK_DATA 10095138     msvcprt:MSVCP140.dll
 0002:0000013c       __imp__SetWindowLongA@12   1009513c     user32:USER32.dll
 0002:00000140       __imp__FindWindowA@8       10095140     user32:USER32.dll
 0002:00000144       __imp__wvsprintfA@12       10095144     user32:USER32.dll
 0002:00000148       __imp__wvsprintfW@12       10095148     user32:USER32.dll
 0002:0000014c       __imp__CallWindowProcA@20  1009514c     user32:USER32.dll
 0002:00000150       __imp__GetCursorPos@4      10095150     user32:USER32.dll
 0002:00000154       __imp__GetClientRect@8     10095154     user32:USER32.dll
 0002:00000158       __imp__SetCursor@4         10095158     user32:USER32.dll
 0002:0000015c       __imp__ClientToScreen@8    1009515c     user32:USER32.dll
 0002:00000160       __imp__SetClipboardData@8  10095160     user32:USER32.dll
 0002:00000164       __imp__GetClipboardData@4  10095164     user32:USER32.dll
 0002:00000168       __imp__EmptyClipboard@0    10095168     user32:USER32.dll
 0002:0000016c       __imp__SetCursorPos@8      1009516c     user32:USER32.dll
 0002:00000170       __imp__GetAsyncKeyState@4  10095170     user32:USER32.dll
 0002:00000174       __imp__CloseClipboard@0    10095174     user32:USER32.dll
 0002:00000178       __imp__OpenClipboard@4     10095178     user32:USER32.dll
 0002:0000017c       __imp__GetKeyState@4       1009517c     user32:USER32.dll
 0002:00000180       \177USER32_NULL_THUNK_DATA 10095180     user32:USER32.dll
 0002:00000184       __imp___except_handler4_common 10095184     vcruntime:VCRUNTIME140.dll
 0002:00000188       __imp___CxxThrowException@8 10095188     vcruntime:VCRUNTIME140.dll
 0002:0000018c       __imp__memcpy              1009518c     vcruntime:VCRUNTIME140.dll
 0002:00000190       __imp__memset              10095190     vcruntime:VCRUNTIME140.dll
 0002:00000194       __imp____std_exception_copy 10095194     vcruntime:VCRUNTIME140.dll
 0002:00000198       __imp____std_type_info_destroy_list 10095198     vcruntime:VCRUNTIME140.dll
 0002:0000019c       __imp___purecall           1009519c     vcruntime:VCRUNTIME140.dll
 0002:000001a0       __imp__memmove             100951a0     vcruntime:VCRUNTIME140.dll
 0002:000001a4       __imp__memchr              100951a4     vcruntime:VCRUNTIME140.dll
 0002:000001a8       __imp__strchr              100951a8     vcruntime:VCRUNTIME140.dll
 0002:000001ac       __imp__strstr              100951ac     vcruntime:VCRUNTIME140.dll
 0002:000001b0       __imp____CxxFrameHandler3  100951b0     vcruntime:VCRUNTIME140.dll
 0002:000001b4       __imp____std_terminate     100951b4     vcruntime:VCRUNTIME140.dll
 0002:000001b8       __imp____std_exception_destroy 100951b8     vcruntime:VCRUNTIME140.dll
 0002:000001bc       \177VCRUNTIME140_NULL_THUNK_DATA 100951bc     vcruntime:VCRUNTIME140.dll
 0002:000001c0       __imp___unlock_file        100951c0     ucrt:api-ms-win-crt-filesystem-l1-1-0.dll
 0002:000001c4       __imp___lock_file          100951c4     ucrt:api-ms-win-crt-filesystem-l1-1-0.dll
 0002:000001c8       \177api-ms-win-crt-filesystem-l1-1-0_NULL_THUNK_DATA 100951c8     ucrt:api-ms-win-crt-filesystem-l1-1-0.dll
 0002:000001cc       __imp__malloc              100951cc     ucrt:api-ms-win-crt-heap-l1-1-0.dll
 0002:000001d0       __imp__free                100951d0     ucrt:api-ms-win-crt-heap-l1-1-0.dll
 0002:000001d4       __imp___callnewh           100951d4     ucrt:api-ms-win-crt-heap-l1-1-0.dll
 0002:000001d8       \177api-ms-win-crt-heap-l1-1-0_NULL_THUNK_DATA 100951d8     ucrt:api-ms-win-crt-heap-l1-1-0.dll
 0002:000001dc       __imp___libm_sse2_sin_precise 100951dc     ucrt:api-ms-win-crt-math-l1-1-0.dll
 0002:000001e0       __imp___libm_sse2_pow_precise 100951e0     ucrt:api-ms-win-crt-math-l1-1-0.dll
 0002:000001e4       __imp___libm_sse2_cos_precise 100951e4     ucrt:api-ms-win-crt-math-l1-1-0.dll
 0002:000001e8       __imp___libm_sse2_sqrt_precise 100951e8     ucrt:api-ms-win-crt-math-l1-1-0.dll
 0002:000001ec       __imp___libm_sse2_atan_precise 100951ec     ucrt:api-ms-win-crt-math-l1-1-0.dll
 0002:000001f0       __imp__ceil                100951f0     ucrt:api-ms-win-crt-math-l1-1-0.dll
 0002:000001f4       __imp__floor               100951f4     ucrt:api-ms-win-crt-math-l1-1-0.dll
 0002:000001f8       __imp___except1            100951f8     ucrt:api-ms-win-crt-math-l1-1-0.dll
 0002:000001fc       __imp___libm_sse2_asin_precise 100951fc     ucrt:api-ms-win-crt-math-l1-1-0.dll
 0002:00000200       __imp___libm_sse2_acos_precise 10095200     ucrt:api-ms-win-crt-math-l1-1-0.dll
 0002:00000204       __imp___CIfmod             10095204     ucrt:api-ms-win-crt-math-l1-1-0.dll
 0002:00000208       __imp___CIatan2            10095208     ucrt:api-ms-win-crt-math-l1-1-0.dll
 0002:0000020c       __imp___dtest              1009520c     ucrt:api-ms-win-crt-math-l1-1-0.dll
 0002:00000210       __imp__fmaxf               10095210     ucrt:api-ms-win-crt-math-l1-1-0.dll
 0002:00000214       \177api-ms-win-crt-math-l1-1-0_NULL_THUNK_DATA 10095214     ucrt:api-ms-win-crt-math-l1-1-0.dll
 0002:00000218       __imp___crt_atexit         10095218     ucrt:api-ms-win-crt-runtime-l1-1-0.dll
 0002:0000021c       __imp___cexit              1009521c     ucrt:api-ms-win-crt-runtime-l1-1-0.dll
 0002:00000220       __imp__terminate           10095220     ucrt:api-ms-win-crt-runtime-l1-1-0.dll
 0002:00000224       __imp___initterm           10095224     ucrt:api-ms-win-crt-runtime-l1-1-0.dll
 0002:00000228       __imp___initterm_e         10095228     ucrt:api-ms-win-crt-runtime-l1-1-0.dll
 0002:0000022c       __imp___invalid_parameter_noinfo_noreturn 1009522c     ucrt:api-ms-win-crt-runtime-l1-1-0.dll
 0002:00000230       __imp___register_onexit_function 10095230     ucrt:api-ms-win-crt-runtime-l1-1-0.dll
 0002:00000234       __imp___configure_narrow_argv 10095234     ucrt:api-ms-win-crt-runtime-l1-1-0.dll
 0002:00000238       __imp___initialize_narrow_environment 10095238     ucrt:api-ms-win-crt-runtime-l1-1-0.dll
 0002:0000023c       __imp___initialize_onexit_table 1009523c     ucrt:api-ms-win-crt-runtime-l1-1-0.dll
 0002:00000240       __imp___execute_onexit_table 10095240     ucrt:api-ms-win-crt-runtime-l1-1-0.dll
 0002:00000244       __imp___seh_filter_dll     10095244     ucrt:api-ms-win-crt-runtime-l1-1-0.dll
 0002:00000248       \177api-ms-win-crt-runtime-l1-1-0_NULL_THUNK_DATA 10095248     ucrt:api-ms-win-crt-runtime-l1-1-0.dll
 0002:0000024c       __imp____acrt_iob_func     1009524c     ucrt:api-ms-win-crt-stdio-l1-1-0.dll
 0002:00000250       __imp____stdio_common_vsprintf 10095250     ucrt:api-ms-win-crt-stdio-l1-1-0.dll
 0002:00000254       __imp__fflush              10095254     ucrt:api-ms-win-crt-stdio-l1-1-0.dll
 0002:00000258       __imp__fclose              10095258     ucrt:api-ms-win-crt-stdio-l1-1-0.dll
 0002:0000025c       __imp__fseek               1009525c     ucrt:api-ms-win-crt-stdio-l1-1-0.dll
 0002:00000260       __imp____stdio_common_vsprintf_s 10095260     ucrt:api-ms-win-crt-stdio-l1-1-0.dll
 0002:00000264       __imp__ftell               10095264     ucrt:api-ms-win-crt-stdio-l1-1-0.dll
 0002:00000268       __imp____stdio_common_vfprintf 10095268     ucrt:api-ms-win-crt-stdio-l1-1-0.dll
 0002:0000026c       __imp___wfopen             1009526c     ucrt:api-ms-win-crt-stdio-l1-1-0.dll
 0002:00000270       __imp__fread               10095270     ucrt:api-ms-win-crt-stdio-l1-1-0.dll
 0002:00000274       __imp____stdio_common_vsscanf 10095274     ucrt:api-ms-win-crt-stdio-l1-1-0.dll
 0002:00000278       __imp__fputc               10095278     ucrt:api-ms-win-crt-stdio-l1-1-0.dll
 0002:0000027c       __imp___get_stream_buffer_pointers 1009527c     ucrt:api-ms-win-crt-stdio-l1-1-0.dll
 0002:00000280       __imp___fseeki64           10095280     ucrt:api-ms-win-crt-stdio-l1-1-0.dll
 0002:00000284       __imp__fsetpos             10095284     ucrt:api-ms-win-crt-stdio-l1-1-0.dll
 0002:00000288       __imp__ungetc              10095288     ucrt:api-ms-win-crt-stdio-l1-1-0.dll
 0002:0000028c       __imp__setvbuf             1009528c     ucrt:api-ms-win-crt-stdio-l1-1-0.dll
 0002:00000290       __imp__fgetpos             10095290     ucrt:api-ms-win-crt-stdio-l1-1-0.dll
 0002:00000294       __imp__fwrite              10095294     ucrt:api-ms-win-crt-stdio-l1-1-0.dll
 0002:00000298       __imp__fgetc               10095298     ucrt:api-ms-win-crt-stdio-l1-1-0.dll
 0002:0000029c       \177api-ms-win-crt-stdio-l1-1-0_NULL_THUNK_DATA 1009529c     ucrt:api-ms-win-crt-stdio-l1-1-0.dll
 0002:000002a0       __imp___stricmp            100952a0     ucrt:api-ms-win-crt-string-l1-1-0.dll
 0002:000002a0       __imp__stricmp             100952a0     ucrt:api-ms-win-crt-string-l1-1-0.dll
 0002:000002a4       __imp__strncpy             100952a4     ucrt:api-ms-win-crt-string-l1-1-0.dll
 0002:000002a8       __imp__isprint             100952a8     ucrt:api-ms-win-crt-string-l1-1-0.dll
 0002:000002ac       \177api-ms-win-crt-string-l1-1-0_NULL_THUNK_DATA 100952ac     ucrt:api-ms-win-crt-string-l1-1-0.dll
 0002:000002b0       __imp__clock               100952b0     ucrt:api-ms-win-crt-time-l1-1-0.dll
 0002:000002b4       \177api-ms-win-crt-time-l1-1-0_NULL_THUNK_DATA 100952b4     ucrt:api-ms-win-crt-time-l1-1-0.dll
 0002:000002b8       __imp__rand                100952b8     ucrt:api-ms-win-crt-utility-l1-1-0.dll
 0002:000002bc       __imp__qsort               100952bc     ucrt:api-ms-win-crt-utility-l1-1-0.dll
 0002:000002c0       \177api-ms-win-crt-utility-l1-1-0_NULL_THUNK_DATA 100952c0     ucrt:api-ms-win-crt-utility-l1-1-0.dll
 0002:000002c4       __imp__D3DXCreateFontA@48  100952c4     d3dx9:d3dx9_43.dll
 0002:000002c8       __imp__D3DXCreateTextureFromFileInMemoryEx@60 100952c8     d3dx9:d3dx9_43.dll
 0002:000002cc       \177d3dx9_43_NULL_THUNK_DATA 100952cc     d3dx9:d3dx9_43.dll
 0002:000002d0       ___guard_check_icall_fptr  100952d0     MSVCRT:guard_support.obj
 0002:000002d4       ___xc_a                    100952d4     MSVCRT:initializers.obj
 0002:00000358       ___xc_z                    10095358     MSVCRT:initializers.obj
 0002:0000035c       ___xi_a                    1009535c     MSVCRT:initializers.obj
 0002:00000364       ___xi_z                    10095364     MSVCRT:initializers.obj
 0002:00000368       ___xl_a                    10095368     MSVCRT:tlssup.obj
 0002:0000036c       ___xl_z                    1009536c     MSVCRT:tlssup.obj
 0002:00000370       ___xp_a                    10095370     MSVCRT:initializers.obj
 0002:00000374       ___xp_z                    10095374     MSVCRT:initializers.obj
 0002:00000378       ___xt_a                    10095378     MSVCRT:initializers.obj
 0002:0000037c       ___xt_z                    1009537c     MSVCRT:initializers.obj
 0002:00000380       ?s_rbModRm@CDetourDis@@1QBEB 10095380     detours:disasm.obj
 0002:00000480       ?s_rceCopyTable@CDetourDis@@1QBUCOPYENTRY@1@B 10095480     detours:disasm.obj
 0002:00000c88       ?s_rceCopyTable0F@CDetourDis@@1QBUCOPYENTRY@1@B 10095c88     detours:disasm.obj
 0002:00001494       ??_7type_info@@6B@         10096494     MSVCRT:std_type_info_static.obj
 0002:00001498       ??_C@_1EC@JIJBPKFM@?$AAa?$AAp?$AAi?$AA?9?$AAm?$AAs?$AA?9?$AAw?$AAi?$AAn?$AA?9?$AAc?$AAo?$AAr?$AAe@ 10096498     MSVCRT:thread_safe_statics.obj
 0002:000014dc       ??_C@_1BK@MGMFAEKH@?$AAk?$AAe?$AAr?$AAn?$AAe?$AAl?$AA3?$AA2?$AA?4?$AAd?$AAl?$AAl@ 100964dc     MSVCRT:thread_safe_statics.obj
 0002:000014f8       ??_C@_0BM@HLJJNPAH@InitializeConditionVariable@ 100964f8     MSVCRT:thread_safe_statics.obj
 0002:00001514       ??_C@_0BJ@JEBJOJFJ@SleepConditionVariableCS@ 10096514     MSVCRT:thread_safe_statics.obj
 0002:00001530       ??_C@_0BJ@PGPPEPCC@WakeAllConditionVariable@ 10096530     MSVCRT:thread_safe_statics.obj
 0002:00001554       __pDefaultRawDllMain       10096554     MSVCRT:dll_dllmain.obj
 0002:00001554       __pRawDllMain              10096554     MSVCRT:dll_dllmain.obj
 0002:0000155c       ??_7exception@std@@6B@     1009655c     MSVCRT:throw_bad_alloc.obj
 0002:00001568       ??_7bad_alloc@std@@6B@     10096568     MSVCRT:throw_bad_alloc.obj
 0002:00001570       ??_C@_0P@GHFPNOJB@bad?5allocation@ 10096570     MSVCRT:throw_bad_alloc.obj
 0002:00001584       ??_7bad_array_new_length@std@@6B@ 10096584     MSVCRT:throw_bad_alloc.obj
 0002:0000158c       ??_C@_0BF@KINCDENJ@bad?5array?5new?5length@ 1009658c     MSVCRT:throw_bad_alloc.obj
 0002:000015a4       ??_C@_0CF@GCGFCOHA@models?1weapons?1v_knife_default_@ 100965a4     applyknife.obj
 0002:000015cc       ??_C@_0CG@PKALIFMD@models?1weapons?1v_knife_default_@ 100965cc     applyknife.obj
 0002:000015f4       ??_C@_0CD@LMKKKBBM@models?1weapons?1v_knife_bayonet?4@ 100965f4     applyknife.obj
 0002:00001618       ??_C@_0CF@EJAFFKLK@models?1weapons?1v_knife_butterfl@ 10096618     applyknife.obj
 0002:00001640       ??_C@_0CA@OGLDNCPA@models?1weapons?1v_knife_flip?4mdl@ 10096640     applyknife.obj
 0002:00001660       ??_C@_0BP@NMKECDAE@models?1weapons?1v_knife_gut?4mdl@ 10096660     applyknife.obj
 0002:00001680       ??_C@_0CB@HFFOPHOM@models?1weapons?1v_knife_karam?4md@ 10096680     applyknife.obj
 0002:000016a4       ??_C@_0CC@GFKFNEHH@models?1weapons?1v_knife_m9_bay?4m@ 100966a4     applyknife.obj
 0002:000016c8       ??_C@_0CE@ODDAANPJ@models?1weapons?1v_knife_tactical@ 100966c8     applyknife.obj
 0002:000016ec       ??_C@_0CN@EAHOPDAI@models?1weapons?1v_knife_falchion@ 100966ec     applyknife.obj
 0002:0000171c       ??_C@_0CA@HGLGIAHN@models?1weapons?1v_knife_push?4mdl@ 1009671c     applyknife.obj
 0002:0000173c       ??_C@_0CK@BBOODEBM@models?1weapons?1v_knife_survival@ 1009673c     applyknife.obj
 0002:00001768       ??_C@_0BO@EEDONEPD@models?1weapons?1v_knife_gg?4mdl@ 10096768     applyknife.obj
 0002:00001788       ??_C@_0BA@JFNIOLAK@string?5too?5long@ 10096788     applyknife.obj
 0002:00001798       ??_C@_0BD@OLBABOEK@vector?$DMT?$DO?5too?5long@ 10096798     Asus.obj
 0002:000017ab       ??_C@_00CNPNBAHC@@         100967ab     DLLMain.obj
 0002:000017ac       ??_C@_0DP@JKEPFGIM@abcdefghijklmnaoqrstuvwxyzABCDE@ 100967ac     DLLMain.obj
 0002:000017ec       ??_C@_08NGFNFJHL@Valve001@ 100967ec     DLLMain.obj
 0002:000017fc       ??_7CTraceFilter@@6B@      100967fc     AntiAim.obj
 0002:00001808       ??_C@_0M@EINGCJHB@vstdlib?4dll@ 10096808     Miscellaneous.obj
 0002:00001814       ??_C@_04MKJBHFOG@say?5@    10096814     Miscellaneous.obj
 0002:0000181c       ??_C@_0BE@FJNGABL@client_panorama?4dll@ 1009681c     Miscellaneous.obj
 0002:00001830       ??_C@_01EEMJAFIK@?6@       10096830     NameChanger.obj
 0002:00001834       ??_C@_02JOGGLHBA@?2n@      10096834     NameChanger.obj
 0002:00001838       ??_C@_02DKCKIIND@?$CFs@    10096838     NameChanger.obj
 0002:0000183c       ??_C@_0CN@OFAHNMEG@8B?50D?5?$DP?5?$DP?5?$DP?5?$DP?5BA?5?$DP?5?$DP?5?$DP?5?$DP?5E8?5?$DP?5?$DP@ 1009683c     PredictionSystem.obj
 0002:0000186c       ??_C@_06CKEDNNDN@head_0@   1009686c     RageBot.obj
 0002:00001874       ??_C@_06GLDAKLDB@neck_0@   10096874     RageBot.obj
 0002:0000187c       ??_C@_06IHEANBNF@pelvis@   1009687c     RageBot.obj
 0002:00001884       ??_C@_07OJMNKJDP@spine_0@  10096884     RageBot.obj
 0002:0000188c       ??_C@_07PANGJIHO@spine_1@  1009688c     RageBot.obj
 0002:00001894       ??_C@_07NLPLMLLN@spine_2@  10096894     RageBot.obj
 0002:0000189c       ??_C@_07MCOAPKPM@spine_3@  1009689c     RageBot.obj
 0002:000018a4       ??_C@_0M@LOBDAIHN@leg_upper_L@ 100968a4     RageBot.obj
 0002:000018b0       ??_C@_0M@GKFCDHKC@leg_upper_R@ 100968b0     RageBot.obj
 0002:000018bc       ??_C@_0M@FBHEPOOC@leg_lower_L@ 100968bc     RageBot.obj
 0002:000018c8       ??_C@_0M@IFDFMBDN@leg_lower_R@ 100968c8     RageBot.obj
 0002:000018d4       ??_C@_07FEDALMGL@ankle_L@  100968d4     RageBot.obj
 0002:000018dc       ??_C@_07IAHBIDLE@ankle_R@  100968dc     RageBot.obj
 0002:000018e4       ??_C@_06LAAIDOAA@hand_L@   100968e4     RageBot.obj
 0002:000018ec       ??_C@_06GEEJABNP@hand_R@   100968ec     RageBot.obj
 0002:000018f4       ??_C@_0M@LAFDEIBC@arm_upper_L@ 100968f4     RageBot.obj
 0002:00001900       ??_C@_0M@FPDELOIN@arm_lower_L@ 10096900     RageBot.obj
 0002:0000190c       ??_C@_0M@GEBCHHMN@arm_upper_R@ 1009690c     RageBot.obj
 0002:00001918       ??_C@_0M@ILHFIBFC@arm_lower_R@ 10096918     RageBot.obj
 0002:00001924       ??_C@_0BB@MOGOBHAF@list?$DMT?$DO?5too?5long@ 10096924     RageBot.obj
 0002:00006d34       ?windowWidth@@3HA          1009bd34     EndScene.obj
 0002:00006d38       ?windowHeight@@3HA         1009bd38     EndScene.obj
 0002:00012560       ??_C@_09BIHNNKHL@Flashbang@ 100a7560     Visuals.obj
 0002:0001256c       ??_C@_05BPMDPIFE@Decoy@    100a756c     Visuals.obj
 0002:00012574       ??_C@_07OPFMIBLN@Molotov@  100a7574     Visuals.obj
 0002:0001257c       ??_C@_0N@CBNKIEFA@?$CFs?5?9?5?$FL?$CFd?1?$CFd?$FN@ 100a757c     Visuals.obj
 0002:0001258c       ??_C@_07CIFAGBMG@unknown@  100a758c     Visuals.obj
 0002:00012594       ??_C@_07PKMABAJO@HKP2000@  100a7594     Visuals.obj
 0002:0001259c       ??_C@_05HMDKGIF@USP?9S@    100a759c     Visuals.obj
 0002:000125a4       ??_C@_05EECHHEFG@AK?947@   100a75a4     Visuals.obj
 0002:000125ac       ??_C@_0BC@GDDIBDGP@Planted?5C4?5?$FL?$CF?41f?$FN@ 100a75ac     Visuals.obj
 0002:000125c0       ??_C@_07FHODIPOK@?$CFs?5?$HM?5?$CFs@ 100a75c0     Visuals.obj
 0002:000125c8       ??_C@_0BI@CFPLBAOH@invalid?5string?5position@ 100a75c8     Visuals.obj
 0002:000125e0       ??_C@_0M@GPCKBPEK@player_hurt@ 100a75e0     GameEvent.obj
 0002:000125ec       ??_C@_0O@FEPDDHEK@bullet_impact@ 100a75ec     GameEvent.obj
 0002:000125fc       ??_C@_06IHAGGOEE@userid@   100a75fc     GameEvent.obj
 0002:00012604       ??_C@_01GLPGHMHM@z@        100a7604     GameEvent.obj
 0002:00012608       ??_C@_01EANLCPLP@y@        100a7608     GameEvent.obj
 0002:0001260c       ??_C@_01FJMABOPO@x@        100a760c     GameEvent.obj
 0002:00012610       ??_C@_0CD@JCOBEOND@say?5?$HOBOMB?5HAS?5BEEN?5PLANTED?5BY?5?$CF@ 100a7610     GameEvent.obj
 0002:00012634       ??_C@_0CD@JEBOHBJD@say?5?$HOBOMB?5HAS?5BEEN?5DEFUSED?5BY?5?$CF@ 100a7634     GameEvent.obj
 0002:00012658       ??_C@_0BO@EJPDAEDL@say?5?$HOBOMB?5ARE?5DEFUSING?5?$CI?$CFs?$CJ?5?$HO@ 100a7658     GameEvent.obj
 0002:00012678       ??_C@_0N@GOMMMMLG@player_death@ 100a7678     GameEvent.obj
 0002:00012688       ??_C@_08MANLKGDL@attacker@ 100a7688     GameEvent.obj
 0002:00012694       ??_C@_0BO@DBEDCNHI@say?5?$CFs?5do?5you?5sell?5that?5hack?$DP@ 100a7694     GameEvent.obj
 0002:000126e4       ??_C@_01GFHCPBMG@C@        100a76e4     EndScene.obj
 0002:000126e8       ??_C@_04GFJLOHHD@?$CF?43f@ 100a76e8     EndScene.obj
 0002:000126f0       ??_C@_07MCAEODGB@Default@  100a76f0     EndScene.obj
 0002:000126f8       ??_C@_05JCBJINHF@Blaze@    100a76f8     EndScene.obj
 0002:00012700       ??_C@_05KPLJDLMD@Pilot@    100a7700     EndScene.obj
 0002:00012708       ??_C@_0P@EJOOMKPH@Midnight?5Storm@ 100a7708     EndScene.obj
 0002:00012718       ??_C@_0N@HEIGIHEJ@Sunset?5Storm@ 100a7718     EndScene.obj
 0002:00012728       ??_C@_0N@FFBELPGE@Forest?5DDPAT@ 100a7728     EndScene.obj
 0002:00012738       ??_C@_0M@GFECCEP@Crimson?5Web@ 100a7738     EndScene.obj
 0002:00012744       ??_C@_0M@EPFCPDPH@Urban?5DDPAT@ 100a7744     EndScene.obj
 0002:00012750       ??_C@_05EECLMJKM@Night@    100a7750     EndScene.obj
 0002:00012758       ??_C@_08OHNMGBGI@Hypnotic@ 100a7758     EndScene.obj
 0002:00012764       ??_C@_06JHEDALCM@Mudder@   100a7764     EndScene.obj
 0002:0001276c       ??_C@_08GOFAHBPM@VariCamo@ 100a776c     EndScene.obj
 0002:00012778       ??_C@_0L@DEABGANA@Golden?5Koi@ 100a7778     EndScene.obj
 0002:00012784       ??_C@_0L@EGJMEOFH@Red?5Quartz@ 100a7784     EndScene.obj
 0002:00012790       ??_C@_0BC@NHDLPGLP@Cobalt?5Disruption@ 100a7790     EndScene.obj
 0002:000127a4       ??_C@_0N@LDCKIIEM@Urban?5Rubble@ 100a77a4     EndScene.obj
 0002:000127b4       ??_C@_04GMPKPJOP@Naga@     100a77b4     EndScene.obj
 0002:000127bc       ??_C@_0M@OHINAHGI@Hand?5Cannon@ 100a77bc     EndScene.obj
 0002:000127c8       ??_C@_08BACMKFID@Heirloom@ 100a77c8     EndScene.obj
 0002:000127d4       ??_C@_09OHLNMKJN@Meteorite@ 100a77d4     EndScene.obj
 0002:000127e0       ??_C@_0L@DKDHLIPD@Conspiracy@ 100a77e0     EndScene.obj
 0002:000127ec       ??_C@_0M@KALMOOID@Bronze?5Deco@ 100a77ec     EndScene.obj
 0002:000127f8       ??_C@_0P@JDJJCOEH@Kumicho?5Dragon@ 100a77f8     EndScene.obj
 0002:00012808       ??_C@_0M@CFNDBJNP@Oxide?5Blaze@ 100a7808     EndScene.obj
 0002:00012814       ??_C@_0O@NONFFFGP@Anodized?5Navy@ 100a7814     EndScene.obj
 0002:00012824       ??_C@_08NHKILINM@Ossified@ 100a7824     EndScene.obj
 0002:00012830       ??_C@_07JKKNMOBA@Stained@  100a7830     EndScene.obj
 0002:00012838       ??_C@_0L@JLJHBLJO@Contractor@ 100a7838     EndScene.obj
 0002:00012844       ??_C@_06GNOBKLGG@Colony@   100a7844     EndScene.obj
 0002:0001284c       ??_C@_0L@PAKEHDBP@Demolition@ 100a784c     EndScene.obj
 0002:00012858       ??_C@_0M@JAKPGAD@Black?5Limba@ 100a7858     EndScene.obj
 0002:00012864       ??_C@_0O@MNMPONAM@Cobalt?5Quartz@ 100a7864     EndScene.obj
 0002:00012874       ??_C@_0L@GMMIHJLB@Hemoglobin@ 100a7874     EndScene.obj
 0002:00012880       ??_C@_0M@JOOPFDJE@Urban?5Shock@ 100a7880     EndScene.obj
 0002:0001288c       ??_C@_06HPHEFPCN@Marina@   100a788c     EndScene.obj
 0002:00012894       ??_C@_07HBBBHBHH@Panther@  100a7894     EndScene.obj
 0002:0001289c       ??_C@_0M@COPFEHFE@Retribution@ 100a789c     EndScene.obj
 0002:000128a8       ??_C@_05JNINEEHO@Briar@    100a78a8     EndScene.obj
 0002:000128b0       ??_C@_07NGGLMFNK@Duelist@  100a78b0     EndScene.obj
 0002:000128b8       ??_C@_0O@EKKFPJPP@Moon?5in?5Libra@ 100a78b8     EndScene.obj
 0002:000128c8       ??_C@_0M@OPCAHGBI@Candy?5Apple@ 100a78c8     EndScene.obj
 0002:000128d4       ??_C@_09ONOELCGH@Bone?5Mask@ 100a78d4     EndScene.obj
 0002:000128e0       ??_C@_0O@KJMMGPHG@Case?5Hardened@ 100a78e0     EndScene.obj
 0002:000128f0       ??_C@_0N@CDKOOGC@Forest?5Night@ 100a78f0     EndScene.obj
 0002:00012900       ??_C@_0M@HNKEOFBH@Orange?5Peel@ 100a7900     EndScene.obj
 0002:0001290c       ??_C@_06LDDNPE@Jungle@     100a790c     EndScene.obj
 0002:00012914       ??_C@_05LOAANMOB@Nitro@    100a7914     EndScene.obj
 0002:0001291c       ??_C@_0BC@DJOAJEGD@Anodized?5Gunmetal@ 100a791c     EndScene.obj
 0002:00012930       ??_C@_0L@OOKFNPIA@Nightshade@ 100a7930     EndScene.obj
 0002:0001293c       ??_C@_0O@OKGLFOKL@Silver?5Quartz@ 100a793c     EndScene.obj
 0002:0001294c       ??_C@_04GBFEHJEB@Kami@     100a794c     EndScene.obj
 0002:00012954       ??_C@_0O@MJNJKIDK@Copper?5Galaxy@ 100a7954     EndScene.obj
 0002:00012964       ??_C@_0M@PKPMLKGD@Neon?5Kimono@ 100a7964     EndScene.obj
 0002:00012970       ??_C@_09BPCPPBON@Fowl?5Play@ 100a7970     EndScene.obj
 0002:0001297c       ??_C@_08ODAFFDEP@Hot?5Shot@ 100a797c     EndScene.obj
 0002:00012988       ??_C@_0N@KFEFMHNH@Urban?5Hazard@ 100a7988     EndScene.obj
 0002:00012998       ??_C@_0BA@GIIJFPON@Monkey?5Business@ 100a7998     EndScene.obj
 0002:000129a8       ??_C@_09JJHIJNOB@Capillary@ 100a79a8     EndScene.obj
 0002:000129b4       ??_C@_0M@EDOCMJDF@Groundwater@ 100a79b4     EndScene.obj
 0002:000129c0       ??_C@_04DKKAMJHD@Fade@     100a79c0     EndScene.obj
 0002:000129c8       ??_C@_0O@HGAJGILG@Dragon?5Tattoo@ 100a79c8     EndScene.obj
 0002:000129d8       ??_C@_0BA@EHONPBGP@Twilight?5Galaxy@ 100a79d8     EndScene.obj
 0002:000129e8       ??_C@_09BDCLDHID@Sand?5Dune@ 100a79e8     EndScene.obj
 0002:000129f4       ??_C@_05FOIACKMO@Brass@    100a79f4     EndScene.obj
 0002:000129fc       ??_C@_09DEDEOBDL@Catacombs@ 100a79fc     EndScene.obj
 0002:00012a08       ??_C@_0BB@PKLGBOHF@Steel?5Disruption@ 100a7a08     EndScene.obj
 0002:00012a1c       ??_C@_0N@OLEOFLGM@Blue?5Fissure@ 100a7a1c     EndScene.obj
 0002:00012a2c       ??_C@_0N@ILNBIMKL@Death?5Rattle@ 100a7a2c     EndScene.obj
 0002:00012a3c       ??_C@_0BA@NJEGAHAD@Water?5Elemental@ 100a7a3c     EndScene.obj
 0002:00012a4c       ??_C@_07PDLFMGKP@Reactor@  100a7a4c     EndScene.obj
 0002:00012a54       ??_C@_07CMNKMPDF@Grinder@  100a7a54     EndScene.obj
 0002:00012a5c       ??_C@_0O@FGHHNPEB@Bunsen?5Burner@ 100a7a5c     EndScene.obj
 0002:00012a6c       ??_C@_0M@KIOJABKK@First?5Class@ 100a7a6c     EndScene.obj
 0002:00012a78       ??_C@_0N@IJGLODJA@Red?5Laminate@ 100a7a78     EndScene.obj
 0002:00012a88       ??_C@_0P@EJEOPGBF@Contrast?5Spray@ 100a7a88     EndScene.obj
 0002:00012a98       ??_C@_0M@GJILCPMG@Safari?5Mesh@ 100a7a98     EndScene.obj
 0002:00012aa4       ??_C@_0N@BCNOGOPJ@Jungle?5Spray@ 100a7aa4     EndScene.obj
 0002:00012ab4       ??_C@_08NBLHOMJL@Predator@ 100a7ab4     EndScene.obj
 0002:00012ac0       ??_C@_0P@FDOPKCNK@Black?5Laminate@ 100a7ac0     EndScene.obj
 0002:00012ad0       ??_C@_0N@PDJEIBLM@Fire?5Serpent@ 100a7ad0     EndScene.obj
 0002:00012ae0       ??_C@_06DEMDDKJO@Cartel@   100a7ae0     EndScene.obj
 0002:00012ae8       ??_C@_0BC@CKJIEBBE@Emerald?5Pinstripe@ 100a7ae8     EndScene.obj
 0002:00012afc       ??_C@_0O@MHHKDMCK@Blue?5Laminate@ 100a7afc     EndScene.obj
 0002:00012b0c       ??_C@_07IHBKKBCO@Redline@  100a7b0c     EndScene.obj
 0002:00012b14       ??_C@_06LOEDEFOB@Vulcan@   100a7b14     EndScene.obj
 0002:00012b1c       ??_C@_06GCKPJHNJ@Jaguar@   100a7b1c     EndScene.obj
 0002:00012b24       ??_C@_07HGILOIFH@Jet?5Set@ 100a7b24     EndScene.obj
 0002:00012b2c       ??_C@_0BA@OMCKGEFH@Wasteland?5Rebel@ 100a7b2c     EndScene.obj
 0002:00012b3c       ??_C@_0M@NEPPDHBJ@Elite?5Build@ 100a7b3c     EndScene.obj
 0002:00012b48       ??_C@_0L@KCMEMHAE@Hydroponic@ 100a7b48     EndScene.obj
 0002:00012b54       ??_C@_0BD@CFPHDDIA@Aquamarine?5Revenge@ 100a7b54     EndScene.obj
 0002:00012b68       ??_C@_0O@DBGEMOHH@Fuel?5Injector@ 100a7b68     EndScene.obj
 0002:00012b78       ??_C@_0BA@CCHCFEJC@Neon?5Revolution@ 100a7b78     EndScene.obj
 0002:00012b88       ??_C@_0L@CPGIOGGO@Bloodsport@ 100a7b88     EndScene.obj
 0002:00012b94       ??_C@_05FJOHAEIP@Wings@    100a7b94     EndScene.obj
 0002:00012b9c       ??_C@_0L@NFJHMHME@Copperhead@ 100a7b9c     EndScene.obj
 0002:00012ba8       ??_C@_0N@FJAKLPOF@Bengal?5Tiger@ 100a7ba8     EndScene.obj
 0002:00012bb8       ??_C@_0BB@JFAAMFPH@Radiation?5Hazard@ 100a7bb8     EndScene.obj
 0002:00012bcc       ??_C@_09PNFFLFGN@Condemned@ 100a7bcc     EndScene.obj
 0002:00012bd8       ??_C@_07GPDHEAIG@Hot?5Rod@ 100a7bd8     EndScene.obj
 0002:00012be0       ??_C@_05CMBGCMIL@Storm@    100a7be0     EndScene.obj
 0002:00012be8       ??_C@_09MIJFEMDG@Chameleon@ 100a7be8     EndScene.obj
 0002:00012bf4       ??_C@_06FGIKBBKF@Torque@   100a7bf4     EndScene.obj
 0002:00012bfc       ??_C@_08MPBHMBKF@Asterion@ 100a7bfc     EndScene.obj
 0002:00012c08       ??_C@_08EPKIKBLJ@Daedalus@ 100a7c08     EndScene.obj
 0002:00012c14       ??_C@_0BB@GDPCACML@Akihabara?5Accept@ 100a7c14     EndScene.obj
 0002:00012c28       ??_C@_04OGIILABF@BOOM@     100a7c28     EndScene.obj
 0002:00012c30       ??_C@_0M@HDHBCMFG@Dragon?5Lore@ 100a7c30     EndScene.obj
 0002:00012c3c       ??_C@_0L@EKJBKFDM@Pink?5DDPAT@ 100a7c3c     EndScene.obj
 0002:00012c48       ??_C@_0L@JMBCBDGP@Snake?5Camo@ 100a7c48     EndScene.obj
 0002:00012c54       ??_C@_0BB@PJJIOMOB@Lightning?5Strike@ 100a7c54     EndScene.obj
 0002:00012c68       ??_C@_09MKHCLFGM@Corticera@ 100a7c68     EndScene.obj
 0002:00012c74       ??_C@_09DFCFBANH@Man?9o?9war@ 100a7c74     EndScene.obj
 0002:00012c80       ??_C@_08MPINICIJ@Graphite@ 100a7c80     EndScene.obj
 0002:00012c8c       ??_C@_0O@DDCKJBEO@Electric?5Hive@ 100a7c8c     EndScene.obj
 0002:00012c9c       ??_C@_09MENJMMDN@Pit?5Viper@ 100a7c9c     EndScene.obj
 0002:00012ca8       ??_C@_07OKBBBOEO@Asiimov@  100a7ca8     EndScene.obj
 0002:00012cb0       ??_C@_08EMILMFEB@Worm?5God@ 100a7cb0     EndScene.obj
 0002:00012cbc       ??_C@_06FHEKHBN@Medusa@    100a7cbc     EndScene.obj
 0002:00012cc4       ??_C@_0L@JIDJFCLE@Sun?5in?5Leo@ 100a7cc4     EndScene.obj
 0002:00012cd0       ??_C@_0M@HLGDNDCN@Hyper?5Beast@ 100a7cd0     EndScene.obj
 0002:00012cdc       ??_C@_09GDGACBBD@Oni?5Taiji@ 100a7cdc     EndScene.obj
 0002:00012ce8       ??_C@_0M@DEPJMHKG@Fever?5Dream@ 100a7ce8     EndScene.obj
 0002:00012cf4       ??_C@_0N@CCIEDFOP@Cyanospatter@ 100a7cf4     EndScene.obj
 0002:00012d04       ??_C@_05PGGPGBEA@Djinn@    100a7d04     EndScene.obj
 0002:00012d0c       ??_C@_0L@IJCFDOEA@Afterimage@ 100a7d0c     EndScene.obj
 0002:00012d18       ??_C@_09FEBNDOEJ@Doomkitty@ 100a7d18     EndScene.obj
 0002:00012d24       ??_C@_08GPEHFICL@Spitfire@ 100a7d24     EndScene.obj
 0002:00012d30       ??_C@_08GAFPLAEL@Teardown@ 100a7d30     EndScene.obj
 0002:00012d3c       ??_C@_06FNLFMHNG@Hexane@   100a7d3c     EndScene.obj
 0002:00012d44       ??_C@_05EMEMDIEE@Pulse@    100a7d44     EndScene.obj
 0002:00012d4c       ??_C@_08HPHGPEFO@Sergeant@ 100a7d4c     EndScene.obj
 0002:00012d58       ??_C@_04BOPFCKBD@Styx@     100a7d58     EndScene.obj
 0002:00012d60       ??_C@_0L@JOHLJOPK@Neural?5Net@ 100a7d60     EndScene.obj
 0002:00012d6c       ??_C@_0N@DGJJJNOM@Desert?5Storm@ 100a7d6c     EndScene.obj
 0002:00012d7c       ??_C@_0M@FCMIHBKN@Arctic?5Camo@ 100a7d7c     EndScene.obj
 0002:00012d88       ??_C@_0L@CIMEEHIP@Polar?5Camo@ 100a7d88     EndScene.obj
 0002:00012d94       ??_C@_0O@PKEFHFCF@Jungle?5Dashed@ 100a7d94     EndScene.obj
 0002:00012da4       ??_C@_07LMHEEOAO@Demeter@  100a7da4     EndScene.obj
 0002:00012dac       ??_C@_0M@OMJJPAEI@Azure?5Zebra@ 100a7dac     EndScene.obj
 0002:00012db8       ??_C@_0M@ECNHDICL@Green?5Apple@ 100a7db8     EndScene.obj
 0002:00012dc4       ??_C@_0O@EFBBJCOH@Orange?5Kimono@ 100a7dc4     EndScene.obj
 0002:00012dd4       ??_C@_05LHIAKGDI@Murky@    100a7dd4     EndScene.obj
 0002:00012ddc       ??_C@_07EEHOINFE@Chronos@  100a7ddc     EndScene.obj
 0002:00012de4       ??_C@_0N@MOPPCCGL@Orange?5DDPAT@ 100a7de4     EndScene.obj
 0002:00012df4       ??_C@_03NKIFIKPN@Eco@      100a7df4     EndScene.obj
 0002:00012df8       ??_C@_0O@DGOGMMCM@Winter?5Forest@ 100a7df8     EndScene.obj
 0002:00012e08       ??_C@_0L@CBKDHAHP@Sage?5Spray@ 100a7e08     EndScene.obj
 0002:00012e14       ??_C@_0L@IMKOOGOB@Chatterbox@ 100a7e14     EndScene.obj
 0002:00012e20       ??_C@_09OCFBKFPG@Shattered@ 100a7e20     EndScene.obj
 0002:00012e2c       ??_C@_0O@BBDNFEFG@Blue?5Titanium@ 100a7e2c     EndScene.obj
 0002:00012e3c       ??_C@_0O@MDIDBKJG@Hunting?5Blind@ 100a7e3c     EndScene.obj
 0002:00012e4c       ??_C@_09NKFBJCLL@Sandstorm@ 100a7e4c     EndScene.obj
 0002:00012e58       ??_C@_06IGAHMJPM@Tuxedo@   100a7e58     EndScene.obj
 0002:00012e60       ??_C@_08JOOFAFLL@Cerberus@ 100a7e60     EndScene.obj
 0002:00012e6c       ??_C@_0N@EFNEHC@Aqua?5Terrace@ 100a7e6c     EndScene.obj
 0002:00012e7c       ??_C@_0L@FDGMINFP@Rocket?5Pop@ 100a7e7c     EndScene.obj
 0002:00012e88       ??_C@_0BA@KPAKKGD@Crimson?5Tsunami@ 100a7e88     EndScene.obj
 0002:00012e98       ??_C@_0BE@GEADEPCF@Blizzard?5Marbleized@ 100a7e98     EndScene.obj
 0002:00012eac       ??_C@_0N@EKPADJCG@Jungle?5DDPAT@ 100a7eac     EndScene.obj
 0002:00012ebc       ??_C@_0L@NKPJGFKE@Gator?5Mesh@ 100a7ebc     EndScene.obj
 0002:00012ec8       ??_C@_05MDLBNEDM@Magma@    100a7ec8     EndScene.obj
 0002:00012ed0       ??_C@_0M@LNIJGCJM@System?5Lock@ 100a7ed0     EndScene.obj
 0002:00012edc       ??_C@_0BC@MCGGLMDC@Shipping?5Forecast@ 100a7edc     EndScene.obj
 0002:00012ef0       ??_C@_0N@OHFADMEB@Impact?5Drill@ 100a7ef0     EndScene.obj
 0002:00012f00       ??_C@_0BE@ELABFEEP@Emerald?5Poison?5Dart@ 100a7f00     EndScene.obj
 0002:00012f14       ??_C@_07HIIGAALC@Tornado@  100a7f14     EndScene.obj
 0002:00012f1c       ??_C@_0O@NJHJEFAF@Modern?5Hunter@ 100a7f1c     EndScene.obj
 0002:00012f2c       ??_C@_0N@OBBBHNAI@Jungle?5Tiger@ 100a7f2c     EndScene.obj
 0002:00012f3c       ??_C@_0M@FMDKJNJK@Bullet?5Rain@ 100a7f3c     EndScene.obj
 0002:00012f48       ??_C@_0M@NJLBJPLI@Faded?5Zebra@ 100a7f48     EndScene.obj
 0002:00012f54       ??_C@_05IOFIHGMB@Zirka@    100a7f54     EndScene.obj
 0002:00012f5c       ??_C@_04KKONKGEB@Howl@     100a7f5c     EndScene.obj
 0002:00012f64       ??_C@_05EBFNJLPC@X?9Ray@   100a7f64     EndScene.obj
 0002:00012f6c       ??_C@_0O@DBOAECOC@Desert?9Strike@ 100a7f6c     EndScene.obj
 0002:00012f7c       ??_C@_07FJMOOIEG@Griffin@  100a7f7c     EndScene.obj
 0002:00012f84       ??_C@_0M@MDDAJHAM@Dragon?5King@ 100a7f84     EndScene.obj
 0002:00012f90       ??_C@_08HPEFPDDD@Poseidon@ 100a7f90     EndScene.obj
 0002:00012f9c       ??_C@_08PKPDIFDD@Daybreak@ 100a7f9c     EndScene.obj
 0002:00012fa8       ??_C@_0M@MDGJMNFM@Evil?5Daimyo@ 100a7fa8     EndScene.obj
 0002:00012fb4       ??_C@_06BONGPKIK@Silver@   100a7fb4     EndScene.obj
 0002:00012fbc       ??_C@_0L@JMLLLIIF@Neon?5Rider@ 100a7fbc     EndScene.obj
 0002:00012fc8       ??_C@_0M@IIBENIHK@Ultraviolet@ 100a7fc8     EndScene.obj
 0002:00012fd4       ??_C@_04BDMKHAOB@Palm@     100a7fd4     EndScene.obj
 0002:00012fdc       ??_C@_06PKLBCJOD@Graven@   100a7fdc     EndScene.obj
 0002:00012fe4       ??_C@_06MNLLFCKB@Tatter@   100a7fe4     EndScene.obj
 0002:00012fec       ??_C@_0L@DCBPAFKE@Amber?5Fade@ 100a7fec     EndScene.obj
 0002:00012ff8       ??_C@_04FPOAABLO@Heat@     100a7ff8     EndScene.obj
 0002:00013000       ??_C@_05HJMIGINN@Curse@    100a8000     EndScene.obj
 0002:00013008       ??_C@_06EJPLNMI@Indigo@    100a8008     EndScene.obj
 0002:00013010       ??_C@_08CPFDBNOO@Commuter@ 100a8010     EndScene.obj
 0002:0001301c       ??_C@_0P@HLMACAB@Nuclear?5Garden@ 100a801c     EndScene.obj
 0002:0001302c       ??_C@_09LMNCNKEE@Malachite@ 100a802c     EndScene.obj
 0002:00013038       ??_C@_09ENBEEPDN@Last?5Dive@ 100a8038     EndScene.obj
 0002:00013044       ??_C@_07FPBMMDNF@Leather@  100a8044     EndScene.obj
 0002:0001304c       ??_C@_05JHNGEIBD@Virus@    100a804c     EndScene.obj
 0002:00013054       ??_C@_0N@JEJOOMBJ@Cold?5Blooded@ 100a8054     EndScene.obj
 0002:00013064       ??_C@_0N@PFDPAIPH@Glacier?5Mesh@ 100a8064     EndScene.obj
 0002:00013074       ??_C@_0L@EBKKMGLK@Sand?5Spray@ 100a8074     EndScene.obj
 0002:00013080       ??_C@_0P@IHGEAONB@Death?5by?5Kitty@ 100a8080     EndScene.obj
 0002:00013090       ??_C@_08OGFJLLOC@Ash?5Wood@ 100a8090     EndScene.obj
 0002:0001309c       ??_C@_0BA@DDPOBJDM@Fallout?5Warning@ 100a809c     EndScene.obj
 0002:000130ac       ??_C@_08FINENEGF@Scorched@ 100a80ac     EndScene.obj
 0002:000130b8       ??_C@_0P@NPFKAJJB@Emerald?5Dragon@ 100a80b8     EndScene.obj
 0002:000130c8       ??_C@_0L@IACHMHBN@Blind?5Spot@ 100a80c8     EndScene.obj
 0002:000130d4       ??_C@_06HJMFFBFN@Trigon@   100a80d4     EndScene.obj
 0002:000130dc       ??_C@_0P@OCNIGEHA@Desert?5Warfare@ 100a80dc     EndScene.obj
 0002:000130ec       ??_C@_06NHPJKFDC@Module@   100a80ec     EndScene.obj
 0002:000130f4       ??_C@_08EPGFLNDG@Gunsmoke@ 100a80f4     EndScene.obj
 0002:00013100       ??_C@_0L@DGFOPJPJ@Grand?5Prix@ 100a8100     EndScene.obj
 0002:0001310c       ??_C@_0N@DGHIEPBK@Carbon?5Fiber@ 100a810c     EndScene.obj
 0002:0001311c       ??_C@_07LMKOFCEA@Caramel@  100a811c     EndScene.obj
 0002:00013124       ??_C@_09DJNJAAHI@Bone?5Pile@ 100a8124     EndScene.obj
 0002:00013130       ??_C@_08FFNDEFME@Delusion@ 100a8130     EndScene.obj
 0002:0001313c       ??_C@_08NNPOKHHA@Corporal@ 100a813c     EndScene.obj
 0002:00013148       ??_C@_09MPDIMPJL@Labyrinth@ 100a8148     EndScene.obj
 0002:00013154       ??_C@_0BF@KNHBCLKE@Minotaur?8s?5Labyrinth@ 100a8154     EndScene.obj
 0002:0001316c       ??_C@_04DFPIBMCP@Riot@     100a816c     EndScene.obj
 0002:00013174       ??_C@_08MKEKGDPD@Scaffold@ 100a8174     EndScene.obj
 0002:00013180       ??_C@_0N@EBKBHDNA@Blaze?5Orange@ 100a8180     EndScene.obj
 0002:00013190       ??_C@_0O@NHFKGBMB@VariCamo?5Blue@ 100a8190     EndScene.obj
 0002:000131a0       ??_C@_0L@DBOBANBN@Blue?5Steel@ 100a81a0     EndScene.obj
 0002:000131ac       ??_C@_0M@GJKJALBA@Blue?5Spruce@ 100a81ac     EndScene.obj
 0002:000131b8       ??_C@_09GOLBDHFM@Grassland@ 100a81b8     EndScene.obj
 0002:000131c4       ??_C@_0BB@HEBGBBOB@Urban?5Perforated@ 100a81c4     EndScene.obj
 0002:000131d8       ??_C@_08LPOGJBFB@CaliCamo@ 100a81d8     EndScene.obj
 0002:000131e4       ??_C@_0M@PBCFJGEP@Tranquility@ 100a81e4     EndScene.obj
 0002:000131f0       ??_C@_0L@DOFALBFF@Red?5Python@ 100a81f0     EndScene.obj
 0002:000131fc       ??_C@_0N@CHMAMEOK@Heaven?5Guard@ 100a81fc     EndScene.obj
 0002:0001320c       ??_C@_0M@OKNFACJD@Red?5Leather@ 100a820c     EndScene.obj
 0002:00013218       ??_C@_0N@GEJHIOBJ@Bone?5Machine@ 100a8218     EndScene.obj
 0002:00013228       ??_C@_0M@NKOEBMOD@Quicksilver@ 100a8228     EndScene.obj
 0002:00013234       ??_C@_07MADONKFL@Seasons@  100a8234     EndScene.obj
 0002:0001323c       ??_C@_0M@DPCGOHHJ@Blue?5Streak@ 100a823c     EndScene.obj
 0002:00013248       ??_C@_0O@GFJDNNLG@Forest?5Leaves@ 100a8248     EndScene.obj
 0002:00013258       ??_C@_0M@BFMDBBKH@Sand?5Dashed@ 100a8258     EndScene.obj
 0002:00013264       ??_C@_0N@LJEDFKN@Urban?5Dashed@ 100a8264     EndScene.obj
 0002:00013274       ??_C@_0BB@PNJHOBHG@Irradiated?5Alert@ 100a8274     EndScene.obj
 0002:00013288       ??_C@_09FIKEPIDC@Rust?5Coat@ 100a8288     EndScene.obj
 0002:00013294       ??_C@_0M@KDIKPJEI@Water?5Sigil@ 100a8294     EndScene.obj
 0002:000132a0       ??_C@_09MMFHFGJI@Night?5Ops@ 100a82a0     EndScene.obj
 0002:000132ac       ??_C@_0BA@EOAICINF@Cobalt?5Halftone@ 100a82ac     EndScene.obj
 0002:000132bc       ??_C@_07DJMBHNBG@Antique@  100a82bc     EndScene.obj
 0002:000132c4       ??_C@_06ELGGPNMP@Osiris@   100a82c4     EndScene.obj
 0002:000132cc       ??_C@_0P@NDHCLHEB@Chemical?5Green@ 100a82cc     EndScene.obj
 0002:000132dc       ??_C@_0N@FFPLCOHP@Bamboo?5Print@ 100a82dc     EndScene.obj
 0002:000132ec       ??_C@_0O@PFIEKENH@Bamboo?5Forest@ 100a82ec     EndScene.obj
 0002:000132fc       ??_C@_0BC@OAEHEGHA@Jungle?5Slipstream@ 100a82fc     EndScene.obj
 0002:00013310       ??_C@_0BA@PCIENHAL@Counter?5Terrace@ 100a8310     EndScene.obj
 0002:00013320       ??_C@_0P@HCCJKNJE@Metallic?5DDPAT@ 100a8320     EndScene.obj
 0002:00013330       ??_C@_09CIMMKKHM@Bulldozer@ 100a8330     EndScene.obj
 0002:0001333c       ??_C@_07HOBHEHIF@Memento@  100a833c     EndScene.obj
 0002:00013344       ??_C@_06LAMDLNPF@Hazard@   100a8344     EndScene.obj
 0002:0001334c       ??_C@_0M@FJKPDKBM@Firestarter@ 100a834c     EndScene.obj
 0002:00013358       ??_C@_07KIGKOFDH@Seabird@  100a8358     EndScene.obj
 0002:00013360       ??_C@_0L@LNKBJIHF@Man?9o?8?9war@ 100a8360     EndScene.obj
 0002:0001336c       ??_C@_07GICFIHGN@Terrain@  100a836c     EndScene.obj
 0002:00013374       ??_C@_0L@DKEOAGEL@Army?5Sheen@ 100a8374     EndScene.obj
 0002:00013380       ??_C@_08PINMCKGI@Bratatat@ 100a8380     EndScene.obj
 0002:0001338c       ??_C@_0O@NMIAJCNF@Nuclear?5Waste@ 100a838c     EndScene.obj
 0002:0001339c       ??_C@_09INFFEEEF@Loudmouth@ 100a839c     EndScene.obj
 0002:000133a8       ??_C@_06CPCKKAAG@Copper@   100a83a8     EndScene.obj
 0002:000133b0       ??_C@_07GCNENMOB@Origami@  100a83b0     EndScene.obj
 0002:000133b8       ??_C@_07JCIFFAKM@Mosaico@  100a83b8     EndScene.obj
 0002:000133c0       ??_C@_08CEMFBEEA@Serenity@ 100a83c0     EndScene.obj
 0002:000133cc       ??_C@_09OEBIHJM@Full?5Stop@ 100a83cc     EndScene.obj
 0002:000133d8       ??_C@_0L@ILIPLGGE@Highwayman@ 100a83d8     EndScene.obj
 0002:000133e4       ??_C@_0L@IMFMOONI@The?5Kraken@ 100a83e4     EndScene.obj
 0002:000133f0       ??_C@_0O@HMIKKEOG@Bamboo?5Shadow@ 100a83f0     EndScene.obj
 0002:00013400       ??_C@_06OHMNPBEA@Zander@   100a8400     EndScene.obj
 0002:00013408       ??_C@_07IGEGNLHA@Terrace@  100a8408     EndScene.obj
 0002:00013410       ??_C@_05PHCOMLAK@Hades@    100a8410     EndScene.obj
 0002:00013418       ??_C@_0P@HJBNOAPI@Nuclear?5Threat@ 100a8418     EndScene.obj
 0002:00013428       ??_C@_09NBOCJJIP@Army?5Mesh@ 100a8428     EndScene.obj
 0002:00013434       ??_C@_0N@FBCLANHN@Titanium?5Bit@ 100a8434     EndScene.obj
 0002:00013444       ??_C@_05FMEHJGPC@Isaac@    100a8444     EndScene.obj
 0002:0001344c       ??_C@_05GFBNLEJJ@Toxic@    100a844c     EndScene.obj
 0002:00013454       ??_C@_09CMJEIPLI@Avalanche@ 100a8454     EndScene.obj
 0002:00013460       ??_C@_08EHHBGPJL@Re?9Entry@ 100a8460     EndScene.obj
 0002:0001346c       ??_C@_0BB@IJLIHELD@Grassland?5Leaves@ 100a846c     EndScene.obj
 0002:00013480       ??_C@_0BD@GLPPKINJ@Granite?5Marbleized@ 100a8480     EndScene.obj
 0002:00013494       ??_C@_07BMJNCCBA@Handgun@  100a8494     EndScene.obj
 0002:0001349c       ??_C@_08DAFADDAO@Scorpion@ 100a849c     EndScene.obj
 0002:000134a8       ??_C@_0L@BADILEEI@Ocean?5Foam@ 100a84a8     EndScene.obj
 0002:000134b4       ??_C@_0M@EDEMNPDE@Red?5FragCam@ 100a84b4     EndScene.obj
 0002:000134c0       ??_C@_09NCKEDIDB@Chainmail@ 100a84c0     EndScene.obj
 0002:000134cc       ??_C@_0M@JDLCOAAH@Coach?5Class@ 100a84cc     EndScene.obj
 0002:000134d8       ??_C@_05NKDFIJED@Ivory@    100a84d8     EndScene.obj
 0002:000134e0       ??_C@_0P@KEPGKGOC@Fire?5Elemental@ 100a84e0     EndScene.obj
 0002:000134f0       ??_C@_0L@HKGMEJCE@Pathfinder@ 100a84f0     EndScene.obj
 0002:000134fc       ??_C@_0BA@HFNGMPME@Imperial?5Dragon@ 100a84fc     EndScene.obj
 0002:0001350c       ??_C@_08KJKIDDCA@Whiteout@ 100a850c     EndScene.obj
 0002:00013518       ??_C@_06BHIABDEH@Skulls@   100a8518     EndScene.obj
 0002:00013520       ??_C@_0L@CBHOMLFF@Army?5Recon@ 100a8520     EndScene.obj
 0002:0001352c       ??_C@_0M@PAKPELJJ@Olive?5Plaid@ 100a852c     EndScene.obj
 0002:00013538       ??_C@_0L@JKFHCLFJ@Armor?5Core@ 100a8538     EndScene.obj
 0002:00013544       ??_C@_07KAGCKCFK@Nemesis@  100a8544     EndScene.obj
 0002:0001354c       ??_C@_06NNPDDBCD@Akoben@   100a854c     EndScene.obj
 0002:00013554       ??_C@_07GEGLPAAN@NotSkin@  100a8554     EndScene.obj
 0002:0001355c       ??_C@_0BB@OMFBPJGD@Ruby?5Poison?5Dart@ 100a855c     EndScene.obj
 0002:00013570       ??_C@_0L@IKAKJAHL@Dry?5Season@ 100a8570     EndScene.obj
 0002:0001357c       ??_C@_08CIHGHFPP@Dark?5Age@ 100a857c     EndScene.obj
 0002:00013588       ??_C@_09PCJDOHJF@Rose?5Iron@ 100a8588     EndScene.obj
 0002:00013594       ??_C@_0M@NIDIFAMG@Green?5Plaid@ 100a8594     EndScene.obj
 0002:000135a0       ??_C@_0M@MEAOMDN@Setting?5Sun@ 100a85a0     EndScene.obj
 0002:000135ac       ??_C@_04LBCGGMB@Dart@      100a85ac     EndScene.obj
 0002:000135b4       ??_C@_0O@NHPACFCG@Deadly?5Poison@ 100a85b4     EndScene.obj
 0002:000135c4       ??_C@_0O@MKKBLIHF@Pandora?8s?5Box@ 100a85c4     EndScene.obj
 0002:000135d4       ??_C@_0L@LKKFJNHI@Bloomstick@ 100a85d4     EndScene.obj
 0002:000135e0       ??_C@_0L@EBGPHGAE@Polar?5Mesh@ 100a85e0     EndScene.obj
 0002:000135ec       ??_C@_06NJBLCHHC@Walnut@   100a85ec     EndScene.obj
 0002:000135f4       ??_C@_07MOJLCPGJ@Tempest@  100a85f4     EndScene.obj
 0002:000135fc       ??_C@_0L@CJBGLCBH@Ghost?5Camo@ 100a85fc     EndScene.obj
 0002:00013608       ??_C@_0N@FHDKMGNK@Rising?5Skull@ 100a8608     EndScene.obj
 0002:00013618       ??_C@_0M@OBLKEPFA@Caged?5Steel@ 100a8618     EndScene.obj
 0002:00013624       ??_C@_03GFBKKDCM@Koi@      100a8624     EndScene.obj
 0002:00013628       ??_C@_06MGJHBAMJ@Ranger@   100a8628     EndScene.obj
 0002:00013630       ??_C@_06FPEHODOG@Splash@   100a8630     EndScene.obj
 0002:00013638       ??_C@_0O@HPJBMDBP@Boreal?5Forest@ 100a8638     EndScene.obj
 0002:00013648       ??_C@_06JGCMKFHP@Mehndi@   100a8648     EndScene.obj
 0002:00013650       ??_C@_06DGAFMCI@Facets@    100a8650     EndScene.obj
 0002:00013658       ??_C@_04FPIGCIOD@Hive@     100a8658     EndScene.obj
 0002:00013660       ??_C@_07OOPKLEID@Muertos@  100a8660     EndScene.obj
 0002:00013668       ??_C@_08IHCIEMLG@Undertow@ 100a8668     EndScene.obj
 0002:00013674       ??_C@_08GGFOJGCL@Franklin@ 100a8674     EndScene.obj
 0002:00013680       ??_C@_09KOILBCDN@Supernova@ 100a8680     EndScene.obj
 0002:0001368c       ??_C@_0O@DICKIMG@Contamination@ 100a868c     EndScene.obj
 0002:0001369c       ??_C@_07IDFDMADB@Valence@  100a869c     EndScene.obj
 0002:000136a4       ??_C@_0P@CGPHMODB@Crimson?5Kimono@ 100a86a4     EndScene.obj
 0002:000136b4       ??_C@_0M@FBFEFJIF@Mint?5Kimono@ 100a86b4     EndScene.obj
 0002:000136c0       ??_C@_06DCIIGLHI@Ripple@   100a86c0     EndScene.obj
 0002:000136c8       ??_C@_0L@LAHCMGBK@Splash?5Jam@ 100a86c8     EndScene.obj
 0002:000136d4       ??_C@_09OPHCEMAD@Sand?5Mesh@ 100a86d4     EndScene.obj
 0002:000136e0       ??_C@_07JCMOAPN@Emerald@   100a86e0     EndScene.obj
 0002:000136e8       ??_C@_07HLLNPOHE@Cardiac@  100a86e8     EndScene.obj
 0002:000136f0       ??_C@_05FLPPDGAC@Cyrex@    100a86f0     EndScene.obj
 0002:000136f8       ??_C@_06OLHHKHAP@Grotto@   100a86f8     EndScene.obj
 0002:00013700       ??_C@_0BB@ELFMLINJ@Waves?5Perforated@ 100a8700     EndScene.obj
 0002:00013714       ??_C@_0P@IEPDKCON@Damascus?5Steel@ 100a8714     EndScene.obj
 0002:00013724       ??_C@_0L@CKMBFFMP@Wave?5Spray@ 100a8724     EndScene.obj
 0002:00013730       ??_C@_08FLLAGGHC@Traveler@ 100a8730     EndScene.obj
 0002:0001373c       ??_C@_09FNOLKBMB@Slaughter@ 100a873c     EndScene.obj
 0002:00013748       ??_C@_0O@FPCNGBIN@Lichen?5Dashed@ 100a8748     EndScene.obj
 0002:00013758       ??_C@_0L@FCDEGGNE@Dark?5Water@ 100a8758     EndScene.obj
 0002:00013764       ??_C@_0N@PLLLECK@Mayan?5Dreams@ 100a8764     EndScene.obj
 0002:00013774       ??_C@_0BD@GDDEIJIB@Blood?5in?5the?5Water@ 100a8774     EndScene.obj
 0002:00013788       ??_C@_0P@FKICPIKI@Tropical?5Storm@ 100a8788     EndScene.obj
 0002:00013798       ??_C@_09LMGPFBLH@Acid?5Fade@ 100a8798     EndScene.obj
 0002:000137a4       ??_C@_07MBKHMMEG@Slashed@  100a87a4     EndScene.obj
 0002:000137ac       ??_C@_06KKMKPPJH@Detour@   100a87ac     EndScene.obj
 0002:000137b4       ??_C@_05CNFJLAJC@Abyss@    100a87b4     EndScene.obj
 0002:000137bc       ??_C@_0N@PPAEPDMO@Bright?5Water@ 100a87bc     EndScene.obj
 0002:000137cc       ??_C@_0N@GFLAEKEB@Atomic?5Alloy@ 100a87cc     EndScene.obj
 0002:000137dc       ??_C@_0M@MMEPBAIN@Blood?5Tiger@ 100a87dc     EndScene.obj
 0002:000137e8       ??_C@_08LEGJHPMK@Guardian@ 100a87e8     EndScene.obj
 0002:000137f4       ??_C@_0N@NAMMOCCE@Master?5Piece@ 100a87f4     EndScene.obj
 0002:00013804       ??_C@_06CJCFJDME@Knight@   100a8804     EndScene.obj
 0002:0001380c       ??_C@_08MNPKLCHB@Basilisk@ 100a880c     EndScene.obj
 0002:00013818       ??_C@_0M@GNPECMJG@Icarus?5Fell@ 100a8818     EndScene.obj
 0002:00013824       ??_C@_09HHHNLIAN@Decimator@ 100a8824     EndScene.obj
 0002:00013830       ??_C@_0BA@DOKALGDE@Chantico?8s?5Fire@ 100a8830     EndScene.obj
 0002:00013840       ??_C@_0BB@FIHGAPNP@Mecha?5Industries@ 100a8840     EndScene.obj
 0002:00013854       ??_C@_0L@MJLDIDNI@Overgrowth@ 100a8854     EndScene.obj
 0002:00013860       ??_C@_06DLNNEOEG@Caiman@   100a8860     EndScene.obj
 0002:00013868       ??_C@_05NGKKALHO@Serum@    100a8868     EndScene.obj
 0002:00013870       ??_C@_09NBBHJOGD@Stainless@ 100a8870     EndScene.obj
 0002:0001387c       ??_C@_05MNPKCHPH@Orion@    100a887c     EndScene.obj
 0002:00013884       ??_C@_09HMIAHJAH@Road?5Rash@ 100a8884     EndScene.obj
 0002:00013890       ??_C@_0L@IGMOPFMM@Royal?5Blue@ 100a8890     EndScene.obj
 0002:0001389c       ??_C@_0P@IDEJABCO@Business?5Class@ 100a889c     EndScene.obj
 0002:000138ac       ??_C@_0L@PHJPEPDL@Para?5Green@ 100a88ac     EndScene.obj
 0002:000138b8       ??_C@_0P@NAFNMAAC@Kill?5Confirmed@ 100a88b8     EndScene.obj
 0002:000138c8       ??_C@_08IPOIFNFJ@Neo?9Noir@ 100a88c8     EndScene.obj
 0002:000138d4       ??_C@_09MGFHJCCN@Blueprint@ 100a88d4     EndScene.obj
 0002:000138e0       ??_C@_07DFFNCLML@Bayonet@  100a88e0     EndScene.obj
 0002:000138e8       ??_C@_0L@KDBAEFMI@Flip?5Knife@ 100a88e8     EndScene.obj
 0002:000138f4       ??_C@_09GMODAIEG@Gut?5Knife@ 100a88f4     EndScene.obj
 0002:00013900       ??_C@_08BNPHALHK@Karambit@ 100a8900     EndScene.obj
 0002:0001390c       ??_C@_0L@DADDDKPH@M9?5Bayonet@ 100a890c     EndScene.obj
 0002:00013918       ??_C@_0P@MDLFPMBF@Huntsman?5Knife@ 100a8918     EndScene.obj
 0002:00013928       ??_C@_0BA@FLBPMPKI@Butterfly?5Knife@ 100a8928     EndScene.obj
 0002:00013938       ??_C@_0P@FPKNOEI@Falchion?5Knife@ 100a8938     EndScene.obj
 0002:00013948       ??_C@_0P@EEFPEHJP@Shadow?5Daggers@ 100a8948     EndScene.obj
 0002:00013958       ??_C@_0M@HJNOOPCG@Bowie?5Knife@ 100a8958     EndScene.obj
 0002:00013964       ??_C@_07JKOBGHIH@Doppler@  100a8964     EndScene.obj
 0002:0001396c       ??_C@_0N@IMLJNPJA@Urban?5Masked@ 100a896c     EndScene.obj
 0002:0001397c       ??_C@_0M@IFCNOIMG@Tiger?5Tooth@ 100a897c     EndScene.obj
 0002:00013988       ??_C@_0M@GBIOCIOA@Marble?5Fade@ 100a8988     EndScene.obj
 0002:00013994       ??_C@_0BH@PCNOKJLC@Gamma?5Doppler?$CIPhase?51?$CJ@ 100a8994     EndScene.obj
 0002:000139ac       ??_C@_0BH@PAJIBHOL@Gamma?5Doppler?$CIPhase?52?$CJ@ 100a89ac     EndScene.obj
 0002:000139c4       ??_C@_0BH@PBFKHNNM@Gamma?5Doppler?$CIPhase?53?$CJ@ 100a89c4     EndScene.obj
 0002:000139dc       ??_C@_0BH@PEBFGLFJ@Gamma?5Doppler?$CIPhase?54?$CJ@ 100a89dc     EndScene.obj
 0002:000139f4       ??_C@_0BG@LEHPPHIL@Gamma?5Doppler?5Emerald@ 100a89f4     EndScene.obj
 0002:00013a0c       ??_C@_08LCLMBOPJ@Freehand@ 100a8a0c     EndScene.obj
 0002:00013a18       ??_C@_09CJKDKCNH@Freehand2@ 100a8a18     EndScene.obj
 0002:00013a24       ??_C@_04IIGEHJCD@Lore@     100a8a24     EndScene.obj
 0002:00013a2c       ??_C@_0L@KANKBGLL@Autotronic@ 100a8a2c     EndScene.obj
 0002:00013a38       ??_C@_0N@PIKIPGPI@Bright?5water@ 100a8a38     EndScene.obj
 0002:00013a48       ??_C@_08JODGKDJF@Doppler2@ 100a8a48     EndScene.obj
 0002:00013a54       ??_C@_07ECMOILKI@Mouse?51@ 100a8a54     EndScene.obj
 0002:00013a5c       ??_C@_07GJODNIGL@Mouse?52@ 100a8a5c     EndScene.obj
 0002:00013a64       ??_C@_06FMBNCPDL@Cancel@   100a8a64     EndScene.obj
 0002:00013a6c       ??_C@_0N@NAEJFKBJ@Middle?5Mouse@ 100a8a6c     EndScene.obj
 0002:00013a7c       ??_C@_07DPLJHPON@Mouse?54@ 100a8a7c     EndScene.obj
 0002:00013a84       ??_C@_07CGKCEOKM@Mouse?55@ 100a8a84     EndScene.obj
 0002:00013a8c       ??_C@_09LPBCIPOJ@Backspace@ 100a8a8c     EndScene.obj
 0002:00013a98       ??_C@_03IEAKBACE@Tab@      100a8a98     EndScene.obj
 0002:00013a9c       ??_C@_05MDNHABIA@Clear@    100a8a9c     EndScene.obj
 0002:00013aa4       ??_C@_05IAOCCJNL@Enter@    100a8aa4     EndScene.obj
 0002:00013aac       ??_C@_05CMECKLGA@Shift@    100a8aac     EndScene.obj
 0002:00013ab4       ??_C@_07DFGIDBBA@Control@  100a8ab4     EndScene.obj
 0002:00013abc       ??_C@_03PHINJBAN@Alt@      100a8abc     EndScene.obj
 0002:00013ac0       ??_C@_05PEDNBBBD@Pause@    100a8ac0     EndScene.obj
 0002:00013ac8       ??_C@_04PFPHPIHI@Caps@     100a8ac8     EndScene.obj
 0002:00013ad0       ??_C@_06OIGFGPHJ@Escape@   100a8ad0     EndScene.obj
 0002:00013ad8       ??_C@_05OMHELODH@Space@    100a8ad8     EndScene.obj
 0002:00013ae0       ??_C@_07EDGDGJEN@Page?5Up@ 100a8ae0     EndScene.obj
 0002:00013ae8       ??_C@_09IOIDGKNA@Page?5Down@ 100a8ae8     EndScene.obj
 0002:00013af4       ??_C@_03DBKJMAGF@End@      100a8af4     EndScene.obj
 0002:00013af8       ??_C@_04GKJODLKO@Home@     100a8af8     EndScene.obj
 0002:00013b00       ??_C@_04KPCPLBPL@Left@     100a8b00     EndScene.obj
 0002:00013b08       ??_C@_02EFPGLDEA@Up@       100a8b08     EndScene.obj
 0002:00013b0c       ??_C@_05DADPALEM@Right@    100a8b0c     EndScene.obj
 0002:00013b14       ??_C@_04FNCLCJMC@Down@     100a8b14     EndScene.obj
 0002:00013b1c       ??_C@_05IOJFAHFF@Print@    100a8b1c     EndScene.obj
 0002:00013b24       ??_C@_06CPFCODOD@Insert@   100a8b24     EndScene.obj
 0002:00013b2c       ??_C@_06JBKGCNBB@Delete@   100a8b2c     EndScene.obj
 0002:00013b34       ??_C@_01GBGANLPD@0@        100a8b34     EndScene.obj
 0002:00013b38       ??_C@_01HIHLOKLC@1@        100a8b38     EndScene.obj
 0002:00013b3c       ??_C@_01FDFGLJHB@2@        100a8b3c     EndScene.obj
 0002:00013b40       ??_C@_01EKENIIDA@3@        100a8b40     EndScene.obj
 0002:00013b44       ??_C@_01FAMBOPH@4@         100a8b44     EndScene.obj
 0002:00013b48       ??_C@_01BMBHCPLG@5@        100a8b48     EndScene.obj
 0002:00013b4c       ??_C@_01DHDKHMHF@6@        100a8b4c     EndScene.obj
 0002:00013b50       ??_C@_01COCBENDE@7@        100a8b50     EndScene.obj
 0002:00013b54       ??_C@_01KJLJFBPL@8@        100a8b54     EndScene.obj
 0002:00013b58       ??_C@_01LAKCGALK@9@        100a8b58     EndScene.obj
 0002:00013b5c       ??_C@_01FHEEJDEE@A@        100a8b5c     EndScene.obj
 0002:00013b60       ??_C@_01HMGJMAIH@B@        100a8b60     EndScene.obj
 0002:00013b64       ??_C@_01CKDDGHAB@D@        100a8b64     EndScene.obj
 0002:00013b68       ??_C@_01DDCIFGEA@E@        100a8b68     EndScene.obj
 0002:00013b6c       ??_C@_01BIAFAFID@F@        100a8b6c     EndScene.obj
 0002:00013b70       ??_C@_01BBODEMC@G@         100a8b70     EndScene.obj
 0002:00013b74       ??_C@_01IGIGCIAN@H@        100a8b74     EndScene.obj
 0002:00013b78       ??_C@_01JPJNBJEM@I@        100a8b78     EndScene.obj
 0002:00013b7c       ??_C@_01LELAEKIP@J@        100a8b7c     EndScene.obj
 0002:00013b80       ??_C@_01KNKLHLMO@K@        100a8b80     EndScene.obj
 0002:00013b84       ??_C@_01OCOKONAJ@L@        100a8b84     EndScene.obj
 0002:00013b88       ??_C@_01PLPBNMEI@M@        100a8b88     EndScene.obj
 0002:00013b8c       ??_C@_01NANMIPIL@N@        100a8b8c     EndScene.obj
 0002:00013b90       ??_C@_01MJMHLOMK@O@        100a8b90     EndScene.obj
 0002:00013b94       ??_C@_01EJNLAFE@P@         100a8b94     EndScene.obj
 0002:00013b98       ??_C@_01BNIGIBBF@Q@        100a8b98     EndScene.obj
 0002:00013b9c       ??_C@_01DGKLNCNG@R@        100a8b9c     EndScene.obj
 0002:00013ba0       ??_C@_01CPLAODJH@S@        100a8ba0     EndScene.obj
 0002:00013ba4       ??_C@_01GAPBHFFA@T@        100a8ba4     EndScene.obj
 0002:00013ba8       ??_C@_01HJOKEEBB@U@        100a8ba8     EndScene.obj
 0002:00013bac       ??_C@_01FCMHBHNC@V@        100a8bac     EndScene.obj
 0002:00013bb0       ??_C@_01ELNMCGJD@W@        100a8bb0     EndScene.obj
 0002:00013bb4       ??_C@_01MMEEDKFM@X@        100a8bb4     EndScene.obj
 0002:00013bb8       ??_C@_01NFFPALBN@Y@        100a8bb8     EndScene.obj
 0002:00013bbc       ??_C@_01POHCFINO@Z@        100a8bbc     EndScene.obj
 0002:00013bc0       ??_C@_08PNEIMCGO@Numpad?50@ 100a8bc0     EndScene.obj
 0002:00013bcc       ??_C@_08OEFDPDCP@Numpad?51@ 100a8bcc     EndScene.obj
 0002:00013bd8       ??_C@_08MPHOKAOM@Numpad?52@ 100a8bd8     EndScene.obj
 0002:00013be4       ??_C@_08NGGFJBKN@Numpad?53@ 100a8be4     EndScene.obj
 0002:00013bf0       ??_C@_08JJCEAHGK@Numpad?54@ 100a8bf0     EndScene.obj
 0002:00013bfc       ??_C@_08IADPDGCL@Numpad?55@ 100a8bfc     EndScene.obj
 0002:00013c08       ??_C@_08KLBCGFOI@Numpad?56@ 100a8c08     EndScene.obj
 0002:00013c14       ??_C@_08LCAJFEKJ@Numpad?57@ 100a8c14     EndScene.obj
 0002:00013c20       ??_C@_08DFJBEIGG@Numpad?58@ 100a8c20     EndScene.obj
 0002:00013c2c       ??_C@_08CMIKHJCH@Numpad?59@ 100a8c2c     EndScene.obj
 0002:00013c38       ??_C@_08EOBDLMOI@Multiply@ 100a8c38     EndScene.obj
 0002:00013c44       ??_C@_03LDFMNCOE@Add@      100a8c44     EndScene.obj
 0002:00013c48       ??_C@_08DLEJPBEP@Subtract@ 100a8c48     EndScene.obj
 0002:00013c54       ??_C@_07LNNHENGJ@Decimal@  100a8c54     EndScene.obj
 0002:00013c5c       ??_C@_06JKMEHOIB@Divide@   100a8c5c     EndScene.obj
 0002:00013c64       ??_C@_02LCPENACN@F1@       100a8c64     EndScene.obj
 0002:00013c68       ??_C@_02JJNJIDOO@F2@       100a8c68     EndScene.obj
 0002:00013c6c       ??_C@_02IAMCLCKP@F3@       100a8c6c     EndScene.obj
 0002:00013c70       ??_C@_02MPIDCEGI@F4@       100a8c70     EndScene.obj
 0002:00013c74       ??_C@_02NGJIBFCJ@F5@       100a8c74     EndScene.obj
 0002:00013c78       ??_C@_02PNLFEGOK@F6@       100a8c78     EndScene.obj
 0002:00013c7c       ??_C@_02OEKOHHKL@F7@       100a8c7c     EndScene.obj
 0002:00013c80       ??_C@_02GDDGGLGE@F8@       100a8c80     EndScene.obj
 0002:00013c84       ??_C@_02HKCNFKCF@F9@       100a8c84     EndScene.obj
 0002:00013c88       ??_C@_03JKCLJOFG@F10@      100a8c88     EndScene.obj
 0002:00013c8c       ??_C@_03IDDAKPBH@F11@      100a8c8c     EndScene.obj
 0002:00013c90       ??_C@_03KIBNPMNE@F12@      100a8c90     EndScene.obj
 0002:00013c94       ??_C@_0BN@LNAEKMOJ@C?3?2Windows?2Fonts?2Verdana?4ttf@ 100a8c94     EndScene.obj
 0002:00013cb4       ??_C@_0BJ@BHBADMKI@C?3WindowsFonts?7ahoma?4ttf@ 100a8cb4     EndScene.obj
 0002:00013cd0       ??_C@_01MIFGBAGJ@?$CL@     100a8cd0     EndScene.obj
 0002:00013cd4       ??_C@_01JOAMLHOP@?9@       100a8cd4     EndScene.obj
 0002:00013cd8       ??_C@_0N@MIGFPENO@?5?5?5?5?5General@ 100a8cd8     EndScene.obj
 0002:00013ce8       ??_C@_0BK@OIPJHLPJ@?5?5?5?5?5?5?5?5?5?5?5?5?5?5?5?5?5?5Weapons@ 100a8ce8     EndScene.obj
 0002:00013d04       ??_C@_09BOKCCPAD@agsdgbdfb@ 100a8d04     EndScene.obj
 0002:00013d10       ??_C@_06CKGENIKG@Enable@   100a8d10     EndScene.obj
 0002:00013d18       ??_C@_08EOOPFDJA@KillStop@ 100a8d18     EndScene.obj
 0002:00013d24       ??_C@_0L@GCBAKKBI@sdbsdfasdg@ 100a8d24     EndScene.obj
 0002:00013d30       ??_C@_0BD@OFMCHNLO@Current?5Weapon?3?5?$CFs@ 100a8d30     EndScene.obj
 0002:00013d44       ??_C@_0CJ@CLDDLLIN@PELVIS?$AA?$ANHIP?$AA?$ANBody?$AA?$ANNECK?$AA?$ANHEAD?$AA?$AN@ 100a8d44     EndScene.obj
 0002:00013d70       ??_C@_06DJMEDGJ@Hitbox@    100a8d70     EndScene.obj
 0002:00013d78       ??_C@_04NJGFGDEK@Arms@     100a8d78     EndScene.obj
 0002:00013d80       ??_C@_05HPKPHHNI@Chest@    100a8d80     EndScene.obj
 0002:00013d88       ??_C@_04BFCCBDOP@Head@     100a8d88     EndScene.obj
 0002:00013d90       ??_C@_04OBKMENAL@Legs@     100a8d90     EndScene.obj
 0002:00013d98       ??_C@_07KFHMCKEI@Stomach@  100a8d98     EndScene.obj
 0002:00013da0       ??_C@_04GEFJINEE@?$CF?42f@ 100a8da0     EndScene.obj
 0002:00013da8       ??_C@_03PHODBHCN@FOV@      100a8da8     EndScene.obj
 0002:00013dac       ??_C@_06ECDPOJMF@Smooth@   100a8dac     EndScene.obj
 0002:00013db4       ??_C@_04GHNNFJCK@?$CF?40f@ 100a8db4     EndScene.obj
 0002:00013dbc       ??_C@_05ENDOMFAI@Delay@    100a8dbc     EndScene.obj
 0002:00013dc4       ??_C@_0N@OEFMKNJC@Delay?5Amount@ 100a8dc4     EndScene.obj
 0002:00013dd4       ??_C@_0DG@CGHEIIDG@55?58B?5EC?551?553?556?58B?575?508?58B?5D@ 100a8dd4     EndScene.obj
 0002:00013e0c       ??_C@_0BJ@JCNEAIDK@CCSGO_HudWeaponSelection@ 100a8e0c     EndScene.obj
 0002:00013e28       ??_C@_0N@FMGOBEAG@Enable?5Skins@ 100a8e28     EndScene.obj
 0002:00013e38       ??_C@_0M@JPAGDJN@Knife?5Model@ 100a8e38     EndScene.obj
 0002:00013e44       ??_C@_0DO@INHFIJEK@Default?$AA?$ANBloodhound?$AA?$ANSport?$AA?$ANDri@ 100a8e44     EndScene.obj
 0002:00013e84       ??_C@_0M@PFEIKFOL@Glove?5Model@ 100a8e84     EndScene.obj
 0002:00013e90       ??_C@_0CI@FIFCAFFN@Charred?$AA?$ANSnakebite?$AA?$ANBronzed?$AA?$ANGu@ 100a8e90     EndScene.obj
 0002:00013eb8       ??_C@_0DB@PHEPENMB@Hedge?5Maze?$AA?$ANPandoras?5Box?$AA?$ANSuper@ 100a8eb8     EndScene.obj
 0002:00013eec       ??_C@_0DC@NCMBPJJI@Lunar?5Weave?$AA?$ANConvoy?$AA?$ANCrimson?5We@ 100a8eec     EndScene.obj
 0002:00013f20       ??_C@_0CN@HEKKAIGK@Leather?$AA?$ANSpruce?5DDPAT?$AA?$ANSlaughte@ 100a8f20     EndScene.obj
 0002:00013f50       ??_C@_0CH@DKMAENOA@Eclipse?$AA?$ANSpearmint?$AA?$ANBoom?$CB?$AA?$ANCool@ 100a8f50     EndScene.obj
 0002:00013f78       ??_C@_0DI@KNDBNANO@Forest?5DDPAT?$AA?$ANCrimson?5Kimono?$AA?$ANE@ 100a8f78     EndScene.obj
 0002:00013fb0       ??_C@_09EFOFCLCA@Default?$AA?$AA@ 100a8fb0     EndScene.obj
 0002:00013fbc       ??_C@_03LLEHIMPL@?$CD?$CD2@ 100a8fbc     EndScene.obj
 0002:00013fc0       ??_C@_05KHOEDHDN@Apply@    100a8fc0     EndScene.obj
 0002:00013fc8       ??_C@_0N@FAMDEIAF@Desert?5Eagle@ 100a8fc8     EndScene.obj
 0002:00013fd8       ??_C@_0O@JJEHDGFO@Dual?5Berettas@ 100a8fd8     EndScene.obj
 0002:00013fe8       ??_C@_0L@IHNFOILN@Five?9SeveN@ 100a8fe8     EndScene.obj
 0002:00013ff4       ??_C@_08FJFDHDHA@Glock?918@ 100a8ff4     EndScene.obj
 0002:00014000       ??_C@_03CIFMCKCC@AUG@      100a9000     EndScene.obj
 0002:00014004       ??_C@_03COFLHKNK@AWP@      100a9004     EndScene.obj
 0002:00014008       ??_C@_05HLBPKPFE@FAMAS@    100a9008     EndScene.obj
 0002:00014010       ??_C@_05NANBJKGF@G3SG1@    100a9010     EndScene.obj
 0002:00014018       ??_C@_08NJIMLAOK@Galil?5AR@ 100a9018     EndScene.obj
 0002:00014024       ??_C@_04OOHKGEMG@M249@     100a9024     EndScene.obj
 0002:0001402c       ??_C@_04CMIFOPOM@M4A4@     100a902c     EndScene.obj
 0002:00014034       ??_C@_06DEKPABNP@MAC?910@  100a9034     EndScene.obj
 0002:0001403c       ??_C@_03OBEKMHKN@P90@      100a903c     EndScene.obj
 0002:00014040       ??_C@_06ELKAMIPB@UMP?945@  100a9040     EndScene.obj
 0002:00014048       ??_C@_08PKCNDFCK@PP?9Bizon@ 100a9048     EndScene.obj
 0002:00014054       ??_C@_05DODJCDBE@MAG?97@   100a9054     EndScene.obj
 0002:0001405c       ??_C@_05LLDFNFHM@Negev@    100a905c     EndScene.obj
 0002:00014064       ??_C@_09GMOLFBMP@Sawed?9Off@ 100a9064     EndScene.obj
 0002:00014070       ??_C@_05JPHCOMGE@Tec?99@   100a9070     EndScene.obj
 0002:00014078       ??_C@_05JCFEJGIP@P2000@    100a9078     EndScene.obj
 0002:00014080       ??_C@_03ELHOCOIH@MP7@      100a9080     EndScene.obj
 0002:00014084       ??_C@_03NFPNADAJ@MP9@      100a9084     EndScene.obj
 0002:00014088       ??_C@_04GHMLMJIP@p250@     100a9088     EndScene.obj
 0002:00014090       ??_C@_06FFMBKLE@SCAR20@    100a9090     EndScene.obj
 0002:00014098       ??_C@_06LCAMIMKD@SG?5553@  100a9098     EndScene.obj
 0002:000140a0       ??_C@_06IEANNOMI@SsG?508@  100a90a0     EndScene.obj
 0002:000140a8       ??_C@_06FEKDEEJK@M4A1?9S@  100a90a8     EndScene.obj
 0002:000140b0       ??_C@_05PEBIAHCL@usp?9s@   100a90b0     EndScene.obj
 0002:000140b8       ??_C@_04BCLPEBO@CZ75@      100a90b8     EndScene.obj
 0002:000140c0       ??_C@_06DDIGILCE@XM1014@   100a90c0     EndScene.obj
 0002:000140c8       ??_C@_0BL@EAPPIHBF@Invalid?5Weapon?1Isn?8t?5Alive@ 100a90c8     EndScene.obj
 0002:000140e4       ??_C@_08GCALOLG@Stikers1@  100a90e4     EndScene.obj
 0002:000140f0       ??_C@_08CNANONHF@Stikers2@ 100a90f0     EndScene.obj
 0002:000140fc       ??_C@_08DEBGNMDE@Stikers3@ 100a90fc     EndScene.obj
 0002:00014108       ??_C@_08HLFHEKPD@Stikers4@ 100a9108     EndScene.obj
 0002:00014114       ??_C@_04OLAKKGGL@Wear@     100a9114     EndScene.obj
 0002:0001411c       ??_C@_08EPIBDGJ@StatTrak@  100a911c     EndScene.obj
 0002:00014128       ??_C@_04FABLJDN@Name@      100a9128     EndScene.obj
 0002:00014130       ??_C@_08JGILNPHN@Disabled@ 100a9130     EndScene.obj
 0002:0001413c       ??_C@_07BKOKEIAH@Emotion@  100a913c     EndScene.obj
 0002:00014144       ??_C@_09EPACJNOO@Fake?9Down@ 100a9144     EndScene.obj
 0002:00014150       ??_C@_07HMBPEJEH@Fake?9Up@ 100a9150     EndScene.obj
 0002:00014158       ??_C@_09OALPKHMD@Fake?9Zero@ 100a9158     EndScene.obj
 0002:00014164       ??_C@_0L@OPPNHINM@Fake?9Zero2@ 100a9164     EndScene.obj
 0002:00014170       ??_C@_05PCAOGLFA@pHake@    100a9170     EndScene.obj
 0002:00014178       ??_C@_09BDEMALOI@Lowerbody@ 100a9178     EndScene.obj
 0002:00014184       ??_C@_06IFGIOHDE@Custom@   100a9184     EndScene.obj
 0002:0001418c       ??_C@_03GCDBBDDL@Off@      100a918c     EndScene.obj
 0002:00014190       ??_C@_06KJMEDNIB@Static@   100a9190     EndScene.obj
 0002:00014198       ??_C@_07DNBCJMEB@Spinbot@  100a9198     EndScene.obj
 0002:000141a0       ??_C@_06BGAJDHFP@Jitter@   100a91a0     EndScene.obj
 0002:000141a8       ??_C@_0O@PMEHAGDJ@Jitter?5synced@ 100a91a8     EndScene.obj
 0002:000141b8       ??_C@_04GBLIDNHG@180z@     100a91b8     EndScene.obj
 0002:000141c0       ??_C@_0O@BAJGEKBB@Backward?5Spin@ 100a91c0     EndScene.obj
 0002:000141d0       ??_C@_04JBCJKLOD@Spin@     100a91d0     EndScene.obj
 0002:000141d8       ??_C@_06OCKNBBAC@Factor@   100a91d8     EndScene.obj
 0002:000141e0       ??_C@_06PBEDFIPD@Switch@   100a91e0     EndScene.obj
 0002:000141e8       ??_C@_09CABLEDC@Fluctuate@ 100a91e8     EndScene.obj
 0002:000141f4       ??_C@_0BD@JPLKMMCB@?5?5?5?5?5?5?5?5?5?5Accurary@ 100a91f4     EndScene.obj
 0002:00014208       ??_C@_0BC@DAPAHBMF@?5?5?5?5?5?5?5?5?5?5?5?5Other@ 100a9208     EndScene.obj
 0002:0001421c       ??_C@_07LLDKJBMK@general@  100a921c     EndScene.obj
 0002:00014224       ??_C@_03CCEPDEKL@Key@      100a9224     EndScene.obj
 0002:00014228       ??_C@_08EEDLEOKM@accurary@ 100a9228     EndScene.obj
 0002:00014234       ??_C@_0M@LIINAPCH@othershitxd@ 100a9234     EndScene.obj
 0002:00014240       ??_C@_04GGBPDDBN@?$CF?41f@ 100a9240     EndScene.obj
 0002:00014248       ??_C@_06GHFEKJM@Silent@    100a9248     EndScene.obj
 0002:00014250       ??_C@_07FCGLNLBL@pSilent@  100a9250     EndScene.obj
 0002:00014258       ??_C@_0BA@CBBFILC@Off?$AA?$ANSelected?$AA?$AA@ 100a9258     EndScene.obj
 0002:00014268       ??_C@_0N@LHHGFHKD@?5?5?5?5?5?5?5Scans@ 100a9268     EndScene.obj
 0002:00014278       ??_C@_0BF@EAHEADLJ@?5?5?5?5?5?5?5?5?5?5?5?5Anti?9aim@ 100a9278     EndScene.obj
 0002:00014290       ??_C@_0BF@JBEAOCM@?5?5?5?5?5?5?5?5?5?5?5?5?5?5Addone@ 100a9290     EndScene.obj
 0002:000142a8       ??_C@_05NINIHANH@scans@    100a92a8     EndScene.obj
 0002:000142b0       ??_C@_02DFENNNBM@aa@       100a92b0     EndScene.obj
 0002:000142b4       ??_C@_0M@IDDNDFIJ@Pitch?5Stand@ 100a92b4     EndScene.obj
 0002:000142c0       ??_C@_0P@ILICLBDD@Real?5Stand?5Yaw@ 100a92c0     EndScene.obj
 0002:000142d0       ??_C@_0P@PLMGJILD@Fake?5Stand?5Yaw@ 100a92d0     EndScene.obj
 0002:000142e0       ??_C@_0L@LNLNBONJ@Custom?5Yaw@ 100a92e0     EndScene.obj
 0002:000142ec       ??_C@_0N@EIIKNPLJ@Custom?5Pitch@ 100a92ec     EndScene.obj
 0002:000142fc       ??_C@_0L@GDKHOBF@Pitch?5Move@ 100a92fc     EndScene.obj
 0002:00014308       ??_C@_0O@PCKBMLLI@Real?5Move?5Yaw@ 100a9308     EndScene.obj
 0002:00014318       ??_C@_0O@NMHMMELN@Fake?5Move?5Yaw@ 100a9318     EndScene.obj
 0002:00014328       ??_C@_0ED@MLOCDMCN@Unselected?$AA?$ANUP?$AA?$ANDOWN?$AA?$ANJITTER?$AA?$ANZ@ 100a9328     EndScene.obj
 0002:00014370       ??_C@_0IB@NHAKECFI@Unselected?$AA?$ANSPIN?$AA?$ANDestroy?5LBY?$AA?$AN@ 100a9370     EndScene.obj
 0002:000143f8       ??_C@_0HM@GJCIHAGP@Unselected?$AA?$ANSPIN?$AA?$ANJITTER?$AA?$ANSIDEW@ 100a93f8     EndScene.obj
 0002:00014474       ??_C@_0M@DCNPKJAO@aaanotherxd@ 100a9474     EndScene.obj
 0002:00014480       ??_C@_0N@IPLNCGGB@Freestanding@ 100a9480     EndScene.obj
 0002:00014490       ??_C@_08JILDBLDF@No?5Knife@ 100a9490     EndScene.obj
 0002:0001449c       ??_C@_0N@CPDIECBG@Jitter?5Range@ 100a949c     EndScene.obj
 0002:000144ac       ??_C@_0BE@BBEAOOK@Jitter?5Synced?5Range@ 100a94ac     EndScene.obj
 0002:000144c0       ??_C@_0L@EJMMPGIL@Spin?5Speed@ 100a94c0     EndScene.obj
 0002:000144cc       ??_C@_09HGLGOIMB@LBY?5Delta@ 100a94cc     EndScene.obj
 0002:000144d8       ??_C@_07HJFGLPMF@Fakelag@  100a94d8     EndScene.obj
 0002:000144e0       ??_C@_04KOACHJEN@Type@     100a94e0     EndScene.obj
 0002:000144e8       ??_C@_05FBPOEGGE@Choke@    100a94e8     EndScene.obj
 0002:000144f0       ??_C@_0M@ODFDHAAL@In?5air?5only@ 100a94f0     EndScene.obj
 0002:000144fc       ??_C@_09FJAHKMIF@Fake?5Walk@ 100a94fc     EndScene.obj
 0002:00014508       ??_C@_0N@OHFCEMGE@?5?5?5?5?5Visuals@ 100a9508     EndScene.obj
 0002:00014518       ??_C@_0BB@HLJAGCIO@?5?5?5?5?5?5?5?5?5?5?5Chams@ 100a9518     EndScene.obj
 0002:0001452c       ??_C@_0BG@FALHLOBN@?5?5?5?5?5?5?5?5?5?5?5?5?5Removals@ 100a952c     EndScene.obj
 0002:00014544       ??_C@_03OLPJGAII@box@      100a9544     EndScene.obj
 0002:00014548       ??_C@_05MJDCDNNA@type1@    100a9548     EndScene.obj
 0002:00014550       ??_C@_05OCBPGOBD@type2@    100a9550     EndScene.obj
 0002:00014558       ??_C@_06BJBEHGOF@Roblox@   100a9558     EndScene.obj
 0002:00014560       ??_C@_05BGDCBOFH@China@    100a9560     EndScene.obj
 0002:00014568       ??_C@_08FBELJDCF@Metallic@ 100a9568     EndScene.obj
 0002:00014574       ??_C@_06BEDLFJAG@Hitler@   100a9574     EndScene.obj
 0002:0001457c       ??_C@_04FIJLDEII@Jeff@     100a957c     EndScene.obj
 0002:00014584       ??_C@_04OLHDHNGJ@Boom@     100a9584     EndScene.obj
 0002:0001458c       ??_C@_03DMEJAANP@Gah@      100a958c     EndScene.obj
 0002:00014590       ??_C@_03NKKKDMDK@Pak@      100a9590     EndScene.obj
 0002:00014594       ??_C@_07DNBPAPBF@Skidiki@  100a9594     EndScene.obj
 0002:0001459c       ??_C@_05ONHBPEID@Skkra@    100a959c     EndScene.obj
 0002:000145a4       ??_C@_04CELJLBGJ@tap1@     100a95a4     EndScene.obj
 0002:000145ac       ??_C@_04PJEOCKK@tap2@      100a95ac     EndScene.obj
 0002:000145b4       ??_C@_04BGIPNDOL@tap3@     100a95b4     EndScene.obj
 0002:000145bc       ??_C@_04FJMOEFCM@tap4@     100a95bc     EndScene.obj
 0002:000145c4       ??_C@_04EANFHEGN@tap5@     100a95c4     EndScene.obj
 0002:000145cc       ??_C@_08ECONNOPP@bameware@ 100a95cc     EndScene.obj
 0002:000145d8       ??_C@_06OMPFHDM@bubble@    100a95d8     EndScene.obj
 0002:000145e0       ??_C@_06OCJJHAGB@hammer@   100a95e0     EndScene.obj
 0002:000145e8       ??_C@_05KKCIMGE@error@     100a95e8     EndScene.obj
 0002:000145f0       ??_C@_05JCGPAABI@call1@    100a95f0     EndScene.obj
 0002:000145f8       ??_C@_05LJECFDNL@call2@    100a95f8     EndScene.obj
 0002:00014600       ??_C@_05KAFJGCJK@call3@    100a9600     EndScene.obj
 0002:00014608       ??_C@_05OPBIPEFN@call4@    100a9608     EndScene.obj
 0002:00014610       ??_C@_05PGADMFBM@call5@    100a9610     EndScene.obj
 0002:00014618       ??_C@_07DOAOMMKG@Enabled@  100a9618     EndScene.obj
 0002:00014620       ??_C@_03ELMLMPLG@Box@      100a9620     EndScene.obj
 0002:00014624       ??_C@_07PMDFCHAJ@BoxType@  100a9624     EndScene.obj
 0002:0001462c       ??_C@_08NNAEBLLE@Esp?5team@ 100a962c     EndScene.obj
 0002:00014638       ??_C@_06GGDALCBD@Health@   100a9638     EndScene.obj
 0002:00014640       ??_C@_08IIJFBGEF@AimLines@ 100a9640     EndScene.obj
 0002:0001464c       ??_C@_07DNEKOHB@Weapons@   100a964c     EndScene.obj
 0002:00014654       ??_C@_0L@MNKEGOHO@WeaponType@ 100a9654     EndScene.obj
 0002:00014660       ??_C@_04DHGIHJNO@Ammo@     100a9660     EndScene.obj
 0002:00014668       ??_C@_08BPONKIHK@AmmoType@ 100a9668     EndScene.obj
 0002:00014674       ??_C@_09DHHCJHKA@DamageEsp@ 100a9674     EndScene.obj
 0002:00014680       ??_C@_0BB@HHOMEJKG@?$CD?$CDDamageEspColor@ 100a9680     EndScene.obj
 0002:00014694       ??_C@_08CCNCICDC@Hitsound@ 100a9694     EndScene.obj
 0002:000146a0       ??_C@_09DFAIMOFJ@Skeletons@ 100a96a0     EndScene.obj
 0002:000146ac       ??_C@_05KOJIPNAE@chams@    100a96ac     EndScene.obj
 0002:000146b4       ??_C@_08FOPOCEKP@Textured@ 100a96b4     EndScene.obj
 0002:000146c0       ??_C@_0N@MOPCKOLP@Textured?5XQZ@ 100a96c0     EndScene.obj
 0002:000146d0       ??_C@_04JNNIPAFF@Flat@     100a96d0     EndScene.obj
 0002:000146d8       ??_C@_08GMBKNFLO@Flat?5XQZ@ 100a96d8     EndScene.obj
 0002:000146e4       ??_C@_0L@LLEGNILM@Chams?$CD?$CDESP@ 100a96e4     EndScene.obj
 0002:000146f0       ??_C@_0BA@PCPDJBPK@Chams?5Type?$CD?$CDESP@ 100a96f0     EndScene.obj
 0002:00014700       ??_C@_08ECLDCLDE@asdgsadg@ 100a9700     EndScene.obj
 0002:0001470c       ??_C@_0M@MPMHEEIB@ThirdPerson@ 100a970c     EndScene.obj
 0002:00014718       ??_C@_02MJEIOGID@C4@       100a9718     EndScene.obj
 0002:0001471c       ??_C@_0O@NHGACHEI@SpectatorList@ 100a971c     EndScene.obj
 0002:0001472c       ??_C@_0N@JJEFNGOG@?5?5?5?5?5?5?5?5Glow@ 100a972c     EndScene.obj
 0002:0001473c       ??_C@_0BE@BEIBDABK@?5?5?5?5?5?5?5?5?5?5?5?5?5Colors@ 100a973c     EndScene.obj
 0002:00014750       ??_C@_0BE@GEEGADBK@?5?5?5?5?5?5?5?5?5?5?5?5?5?5Other@ 100a9750     EndScene.obj
 0002:00014764       ??_C@_04EAMKIICI@glow@     100a9764     EndScene.obj
 0002:0001476c       ??_C@_0O@HCANKBFH@Outline?5outer@ 100a976c     EndScene.obj
 0002:0001477c       ??_C@_05MBNCCLPN@Cover@    100a977c     EndScene.obj
 0002:00014784       ??_C@_0O@IMMAFDCC@Outline?5inner@ 100a9784     EndScene.obj
 0002:00014794       ??_C@_0BC@PCFKAPEB@Enable?5Glow?$CD?$CDGlow@ 100a9794     EndScene.obj
 0002:000147a8       ??_C@_0O@KHGBCLFC@Players?$CD?$CDGlow@ 100a97a8     EndScene.obj
 0002:000147b8       ??_C@_0BO@KKADNMKI@Glow?5type?5players?$CD?$CDESP_player@ 100a97b8     EndScene.obj
 0002:000147d8       ??_C@_0N@KLNCHJFG@Others?$CD?$CDGlow@ 100a97d8     EndScene.obj
 0002:000147e8       ??_C@_0BM@ONABKMIB@Glow?5type?5others?$CD?$CDESP_other@ 100a97e8     EndScene.obj
 0002:00014804       ??_C@_0L@GIBMILCC@Box?5Colors@ 100a9804     EndScene.obj
 0002:00014810       ??_C@_0BA@JFJBLHOF@CT?5Visible?$CD?$CDbox@ 100a9810     EndScene.obj
 0002:00014820       ??_C@_0BC@GOFJEGJF@CT?5invisible?$CD?$CDbox@ 100a9820     EndScene.obj
 0002:00014834       ??_C@_0P@KJEPLNFP@T?5Visible?$CD?$CDbox@ 100a9834     EndScene.obj
 0002:00014850       ??_C@_0BB@JAKGNFGH@T?5invisible?$CD?$CDbox@ 100a9850     EndScene.obj
 0002:00014864       ??_C@_0BB@OOFEJC@Sceletons?5Colors@ 100a9864     EndScene.obj
 0002:00014880       ??_C@_0BB@NPKBLKKN@CT?5Visible?$CD?$CDskel@ 100a9880     EndScene.obj
 0002:000148a0       ??_C@_0BD@IPFPADGA@CT?5invisible?$CD?$CDskel@ 100a98a0     EndScene.obj
 0002:000148c0       ??_C@_0BA@PECJDODF@T?5Visible?$CD?$CDskel@ 100a98c0     EndScene.obj
 0002:000148d0       ??_C@_0BC@NMBCGPMD@T?5invisible?$CD?$CDskel@ 100a98d0     EndScene.obj
 0002:000148e4       ??_C@_0M@DHOGMJNO@Glow?5Colors@ 100a98e4     EndScene.obj
 0002:000148f0       ??_C@_0BB@HDLHPNBK@CT?5Visible?$CD?$CDglow@ 100a98f0     EndScene.obj
 0002:00014910       ??_C@_0BD@CDEJEENH@CT?5invisible?$CD?$CDglow@ 100a9910     EndScene.obj
 0002:00014930       ??_C@_0BA@FIDPHJIC@T?5Visible?$CD?$CDglow@ 100a9930     EndScene.obj
 0002:00014940       ??_C@_0BC@HAAECIHE@T?5invisible?$CD?$CDglow@ 100a9940     EndScene.obj
 0002:00014954       ??_C@_0M@LEONPCLB@Other?$CD?$CDglow@ 100a9954     EndScene.obj
 0002:00014960       ??_C@_0N@LLCIDMOJ@Chams?5Colors@ 100a9960     EndScene.obj
 0002:00014970       ??_C@_0BC@GGHMNBPB@CT?5Visible?$CD?$CDchams@ 100a9970     EndScene.obj
 0002:00014990       ??_C@_0BE@IDPJJBEF@CT?5invisible?$CD?$CDchams@ 100a9990     EndScene.obj
 0002:000149b0       ??_C@_0BB@JIIDECAD@T?5Visible?$CD?$CDchams@ 100a99b0     EndScene.obj
 0002:000149d0       ??_C@_0BD@MMHFCOHL@T?5invisible?$CD?$CDchams@ 100a99d0     EndScene.obj
 0002:000149e4       ??_C@_08JJCNKOLI@asdscans@ 100a99e4     EndScene.obj
 0002:000149f0       ??_C@_0BF@FCHOMIKF@Bullet?5tracer?$CD?$CDOther@ 100a99f0     EndScene.obj
 0002:00014a08       ??_C@_0O@IFOJDAAI@Color?$CD?$CDbullet@ 100a9a08     EndScene.obj
 0002:00014a18       ??_C@_0BK@IADEKPMC@?5?5?5?5?5?5?5?5?5?5?5?5?5?5?5?5?5?5Configs@ 100a9a18     EndScene.obj
 0002:00014a34       ??_C@_0L@JGIODLBJ@AutoAccept@ 100a9a34     EndScene.obj
 0002:00014a40       ??_C@_09EDPIMH@Chat?5Spam@ 100a9a40     EndScene.obj
 0002:00014a4c       ??_C@_09NDEEMFMK@5e6gtvref@ 100a9a4c     EndScene.obj
 0002:00014a58       ??_C@_05LOKKDHD@?$CD?$CDCFG@ 100a9a58     EndScene.obj
 0002:00014a60       ??_C@_07GLBJHKEK@Configs@  100a9a60     EndScene.obj
 0002:00014a68       ??_C@_04IPBPFFEL@Load@     100a9a68     EndScene.obj
 0002:00014a70       ??_C@_04INACKGJP@Save@     100a9a70     EndScene.obj
 0002:00014a78       ??_C@_06MIKANEJK@Create@   100a9a78     EndScene.obj
 0002:00014a80       ??_C@_08MGBGGDON@settings@ 100a9a80     EndScene.obj
 0002:00014a8c       ??_C@_07BNPKCDOO@FPS?3?5?$CFi@ 100a9a8c     EndScene.obj
 0002:00014a94       ??_C@_0DI@HJHIOKG@?5?5?5?5?5?5?5?5?5?5?5?5?5?5?5?5?5?5?5?5?5?5?5?5?5?5?5?5?5?5?5@ 100a9a94     EndScene.obj
 0002:00014acc       ??_C@_0CA@LKBLPCPD@?5?5?5?5?5?5?5?5?5?5?5?5?5?5?5?5?5?5?5?5?5?5?5?5?5?5?5?5?5?5?5@ 100a9acc     EndScene.obj
 0002:00014aec       ??_C@_0CB@LBIKJMPG@?5?5?5?5?5?5?5?5?5?5?5?5?5?5?5?5?5?5?5?5?5?5?5?5?5?5?5?5?5?5?5@ 100a9aec     EndScene.obj
 0002:00014b10       ??_C@_0DG@HOOMEHPG@?5?5?5?5?5?5?5?5?5?5?5?5?5?5?5?5?5?5?5?5?5?5?5?5?5?5?5?5?5?5?5@ 100a9b10     EndScene.obj
 0002:00014b48       ??_C@_0L@CCBFPMDD@?5?5?5?5?5?5?5?5?5?5@ 100a9b48     EndScene.obj
 0002:00014b54       ??_C@_08GGFKNFHG@?5?5?5?5?5?5?5?5@ 100a9b54     EndScene.obj
 0002:00014b60       ??_C@_07EHHHOIHI@Verdana@  100a9b60     EndScene.obj
 0002:00014b68       ??_C@_0L@HABDDPNA@csgo_icons@ 100a9b68     EndScene.obj
 0002:00014b74       ??_C@_03KHICJKCI@?4?4?4@   100a9b74     EndScene.obj
 0002:00014b78       ??_C@_02DPKJAMEF@?$CFd@    100a9b78     EndScene.obj
 0002:00014b7c       ??_C@_05LCKIIOJE@?$CFd?1?$CFd@ 100a9b7c     EndScene.obj
 0002:00014b84       ??_C@_05HKAKDGKI@EMPTY@    100a9b84     EndScene.obj
 0002:00014b8c       ??_C@_09LDLHBMHJ@RELOADING@ 100a9b8c     EndScene.obj
 0002:00014b98       ??_C@_05PJLBNLAH@SCOPE@    100a9b98     EndScene.obj
 0002:00014ba0       ??_C@_07PBNHCNNL@FLASHED@  100a9ba0     EndScene.obj
 0002:00014ba8       ??_C@_08NMPOHHHA@DEFUSING@ 100a9ba8     EndScene.obj
 0002:00014bb4       ??_C@_07IOGKHNKD@2?5ARMOR@ 100a9bb4     EndScene.obj
 0002:00014bbc       ??_C@_07OFHKEA@1?5ARMOR@   100a9bbc     EndScene.obj
 0002:00014bc4       ??_C@_08CMEEOKLA@NO?5ARMOR@ 100a9bc4     EndScene.obj
 0002:00014bd0       ??_C@_15GANGMFKL@?$AA?$CF?$AAs@ 100a9bd0     EndScene.obj
 0002:00014bd8       ??_C@_0L@CPHGICGA@dmg_health@ 100a9bd8     EndScene.obj
 0002:00014be4       ??_C@_08KBGNDPBA@hitgroup@ 100a9be4     EndScene.obj
 0002:00014bf0       ??_C@_05IMFIAJLI@?9?$CFdHP@ 100a9bf0     EndScene.obj
 0002:00014bf8       ??_C@_0BM@NMJKDPPO@invalid?5vector?$DMT?$DO?5subscript@ 100a9bf8     EndScene.obj
 0002:00014c14       ??_C@_0BP@BIDGIOHM@B9?5?$DP?5?$DP?5?$DP?5?$DP?5E8?5?$DP?5?$DP?5?$DP?5?$DP?58B?55D?508@ 100a9c14     EndScene.obj
 0002:00014c34       ??_C@_0DA@LEJGJDNJ@55?58B?5EC?553?58B?55D?508?556?557?58B?5F@ 100a9c34     EndScene.obj
 0002:00014c64       ??_C@_0BJ@IFKCLNIB@sprites?1purplelaser1?4vmt@ 100a9c64     FrameStageNotify.obj
 0002:00014c80       ??_C@_0BB@CPFCIPBM@cam_idealdist?5?$CFf@ 100a9c80     OverrideView.obj
 0002:00014c94       ??_C@_07MPKOOCMG@HudZoom@  100a9c94     PaintTraverse.obj
 0002:00014c9c       ??_C@_0O@JJBKLGLG@toggleconsole@ 100a9c9c     WndProc.obj
 0002:00014cac       ??_C@_09GBFFKCDJ@?$CD?$CDOverlay@ 100a9cac     imgui.obj
 0002:00014cb8       ??_C@_09BJIHMJFE@imgui?4ini@ 100a9cb8     imgui.obj
 0002:00014cc4       ??_C@_0O@HCOAADPE@imgui_log?4txt@ 100a9cc4     imgui.obj
 0002:00014cd4       ??_C@_05EJCOBEBF@?$CDMOVE@ 100a9cd4     imgui.obj
 0002:00014cdc       ??_C@_0P@IMLDNMEK@Debug?$CD?$CDDefault@ 100a9cdc     imgui.obj
 0002:00014cec       ??_C@_02JDPG@rb@           100a9cec     imgui.obj
 0002:00014cf0       ??_C@_04EBNJJJJI@?$CF?4?$CKs@ 100a9cf0     imgui.obj
 0002:00014cf8       ??_C@_09GLAGEDJB@Pos?$DN?$CFf?0?$CFf@ 100a9cf8     imgui.obj
 0002:00014d04       ??_C@_0L@MKDCLHEO@Size?$DN?$CFf?0?$CFf@ 100a9d04     imgui.obj
 0002:00014d10       ??_C@_0N@IAKNMBB@Collapsed?$DN?$CFd@ 100a9d10     imgui.obj
 0002:00014d20       ??_C@_02BKFDOEMK@wt@       100a9d20     imgui.obj
 0002:00014d24       ??_C@_03OIJOKPOL@?$CD?$CD?$CD@ 100a9d24     imgui.obj
 0002:00014d28       ??_C@_05MGFEFMAH@?$FL?$CFs?$FN?6@ 100a9d28     imgui.obj
 0002:00014d30       ??_C@_0L@DDMADIHO@Pos?$DN?$CFd?0?$CFd?6@ 100a9d30     imgui.obj
 0002:00014d3c       ??_C@_0M@CFANMDMP@Size?$DN?$CFd?0?$CFd?6@ 100a9d3c     imgui.obj
 0002:00014d48       ??_C@_0O@JAFHMCKE@Collapsed?$DN?$CFd?6@ 100a9d48     imgui.obj
 0002:00014d58       ??_C@_09FDEMHCFC@?$AN?6?$CF?$CKs?$CF?4?$CKs@ 100a9d58     imgui.obj
 0002:00014d64       ??_C@_05DBJFMKBA@?5?$CF?4?$CKs@ 100a9d64     imgui.obj
 0002:00014d6c       ??_C@_0O@BFHNIONF@?$CD?$CDTooltip?$CF02d@ 100a9d6c     imgui.obj
 0002:00014d7c       ??_C@_07HLBIICCF@?$CD?$CDmenus@ 100a9d7c     imgui.obj
 0002:00014d84       ??_C@_09DOLGHDNN@?$CD?$CDmenu_?$CFd@ 100a9d84     imgui.obj
 0002:00014d90       ??_C@_0N@HOGJLDGL@?$CD?$CDpopup_?$CF08x@ 100a9d90     imgui.obj
 0002:00014da0       ??_C@_0L@BDFLDJGI@?$CFs?1?$CFs_?$CF08X@ 100a9da0     imgui.obj
 0002:00014dac       ??_C@_07KBCBAKFA@?$CFs?1?$CF08X@ 100a9dac     imgui.obj
 0002:00014db4       ??_C@_07HDHBJEOI@?$CDRESIZE@ 100a9db4     imgui.obj
 0002:00014dbc       ??_C@_08ENAFOMOP@?$CDSCROLLX@ 100a9dbc     imgui.obj
 0002:00014dc8       ??_C@_08FEBONNKO@?$CDSCROLLY@ 100a9dc8     imgui.obj
 0002:00014dd4       ??_C@_06EBHDMMP@?$CDimage@ 100a9dd4     imgui.obj
 0002:00014ddc       ??_C@_02PCIJFNDE@?$AN?6@   100a9ddc     imgui.obj
 0002:00014de0       ??_C@_02NJPGOMH@?$CFf@     100a9de0     imgui.obj
 0002:00014de4       ??_C@_04HGGMHPIM@?$CF?4?$CKf@ 100a9de4     imgui.obj
 0002:00014dec       ??_C@_03JHEALCLB@?$FLx?$FN@ 100a9dec     imgui.obj
 0002:00014df0       ??_C@_03PFOPMNLJ@?$FL?5?$FN@ 100a9df0     imgui.obj
 0002:00014df4       ??_C@_03KFJJABDB@?$CIx?$CJ@ 100a9df4     imgui.obj
 0002:00014df8       ??_C@_03MHDGHODJ@?$CI?5?$CJ@ 100a9df8     imgui.obj
 0002:00014dfc       ??_C@_0P@HFPOEILF@?$CKUnknown?5item?$CK@ 100a9dfc     imgui.obj
 0002:00014e0c       ??_C@_09JCCDBEFL@?$CD?$CDpreview@ 100a9e0c     imgui.obj
 0002:00014e18       ??_C@_0DF@FAPNKOHO@?$CD?$CF02X?$CF02X?$CF02X?6R?3?5?$CFd?0?5G?3?5?$CFd?0?5B?3?5@ 100a9e18     imgui.obj
 0002:00014e50       ??_C@_0EC@EBPMGCGK@?$CD?$CF02X?$CF02X?$CF02X?$CF02X?6R?3?$CFd?0?5G?3?$CFd?0?5B@ 100a9e50     imgui.obj
 0002:00014e94       ??_C@_07JKKCBBMM@context@  100a9e94     imgui.obj
 0002:00014e9c       ??_C@_03ICFFBAI@RGB@       100a9e9c     imgui.obj
 0002:00014ea0       ??_C@_03CAADKAK@HSV@       100a9ea0     imgui.obj
 0002:00014ea4       ??_C@_03IECIMIEG@HEX@      100a9ea4     imgui.obj
 0002:00014ea8       ??_C@_06FDBEKFBH@0?4?4255@ 100a9ea8     imgui.obj
 0002:00014eb0       ??_C@_0L@MDNPBJBM@0?400?4?41?400@ 100a9eb0     imgui.obj
 0002:00014ebc       ??_C@_09NMCCFHEI@Copy?5as?4?4@ 100a9ebc     imgui.obj
 0002:00014ec8       ??_C@_04OPMHGHMB@Copy@     100a9ec8     imgui.obj
 0002:00014ed0       ??_C@_0BN@GKCJMPCH@?$CI?$CF?43ff?0?5?$CF?43ff?0?5?$CF?43ff?0?5?$CF?43ff?$CJ@ 100a9ed0     imgui.obj
 0002:00014ef0       ??_C@_0O@EJHNAHBL@?$CI?$CFd?0?$CFd?0?$CFd?0?$CFd?$CJ@ 100a9ef0     imgui.obj
 0002:00014f00       ??_C@_0P@GDANBODO@0x?$CF02X?$CF02X?$CF02X@ 100a9f00     imgui.obj
 0002:00014f10       ??_C@_0BD@MLNOPBDA@0x?$CF02X?$CF02X?$CF02X?$CF02X@ 100a9f10     imgui.obj
 0002:00014f24       ??_C@_0N@KFBFGFJL@?$CD?$CDselectable@ 100a9f24     imgui.obj
 0002:00014f34       ??_C@_0O@KNMNNHNH@?$CD?$CDdummypicker@ 100a9f34     imgui.obj
 0002:00014f44       ??_C@_09KEDLMDJL@Alpha?5Bar@ 100a9f44     imgui.obj
 0002:00014f50       ??_C@_07FFNLLALM@M?30?4000@ 100a9f50     imgui.obj
 0002:00014f58       ??_C@_05BNGMMMAL@M?3000@   100a9f58     imgui.obj
 0002:00014f60       ??_C@_03CEFFAPNG@?$CD?$CDX@ 100a9f60     imgui.obj
 0002:00014f64       ??_C@_03DNEODOJH@?$CD?$CDY@ 100a9f64     imgui.obj
 0002:00014f68       ??_C@_03BGGDGNFE@?$CD?$CDZ@ 100a9f68     imgui.obj
 0002:00014f6c       ??_C@_03KDMNBDBJ@?$CD?$CDW@ 100a9f6c     imgui.obj
 0002:00014f70       ??_C@_05KIPMPJDD@?$CF3?40f@ 100a9f70     imgui.obj
 0002:00014f78       ??_C@_07GHAMIJFO@R?3?$CF3?40f@ 100a9f78     imgui.obj
 0002:00014f80       ??_C@_07FDFHLGBB@G?3?$CF3?40f@ 100a9f80     imgui.obj
 0002:00014f88       ??_C@_07BLLHLIHF@B?3?$CF3?40f@ 100a9f88     imgui.obj
 0002:00014f90       ??_C@_07JFDILPJG@A?3?$CF3?40f@ 100a9f90     imgui.obj
 0002:00014f98       ??_C@_07IKHHKELN@H?3?$CF3?40f@ 100a9f98     imgui.obj
 0002:00014fa0       ??_C@_07KLKGIJMA@S?3?$CF3?40f@ 100a9fa0     imgui.obj
 0002:00014fa8       ??_C@_07ODEGIHKE@V?3?$CF3?40f@ 100a9fa8     imgui.obj
 0002:00014fb0       ??_C@_05ONBKDNLK@?$CF0?43f@ 100a9fb0     imgui.obj
 0002:00014fb8       ??_C@_07CCOKENNH@R?3?$CF0?43f@ 100a9fb8     imgui.obj
 0002:00014fc0       ??_C@_07BGLBHCJI@G?3?$CF0?43f@ 100a9fc0     imgui.obj
 0002:00014fc8       ??_C@_07FOFBHMPM@B?3?$CF0?43f@ 100a9fc8     imgui.obj
 0002:00014fd0       ??_C@_07NANOHLBP@A?3?$CF0?43f@ 100a9fd0     imgui.obj
 0002:00014fd8       ??_C@_07MPJBGADE@H?3?$CF0?43f@ 100a9fd8     imgui.obj
 0002:00014fe0       ??_C@_07OOEAENEJ@S?3?$CF0?43f@ 100a9fe0     imgui.obj
 0002:00014fe8       ??_C@_07KGKAEDCN@V?3?$CF0?43f@ 100a9fe8     imgui.obj
 0002:00014ff0       ??_C@_0BC@CKPCOFBK@?$CD?$CF02X?$CF02X?$CF02X?$CF02X@ 100a9ff0     imgui.obj
 0002:00015004       ??_C@_0O@MBPBDFLP@?$CD?$CF02X?$CF02X?$CF02X@ 100aa004     imgui.obj
 0002:00015014       ??_C@_06MNCEJPDI@?$CD?$CDText@ 100aa014     imgui.obj
 0002:0001501c       ??_C@_0BB@DDMGLOLI@?$CF02X?$CF02X?$CF02X?$CF02X@ 100aa01c     imgui.obj
 0002:00015030       ??_C@_0N@KODLFHPJ@?$CF02X?$CF02X?$CF02X@ 100aa030     imgui.obj
 0002:00015040       ??_C@_0O@GLNBIEEK@?$CD?$CDColorButton@ 100aa040     imgui.obj
 0002:00015050       ??_C@_06MAKAMBBI@picker@   100aa050     imgui.obj
 0002:00015058       ??_C@_08HHEANBBL@?$CD?$CDpicker@ 100aa058     imgui.obj
 0002:00015064       ??_C@_03PPLPHHG@hsv@       100aa064     imgui.obj
 0002:00015068       ??_C@_02CPGMCOJE@sv@       100aa068     imgui.obj
 0002:0001506c       ??_C@_03GKJJMKFG@hue@      100aa06c     imgui.obj
 0002:00015070       ??_C@_05IAEKHIAN@alpha@    100aa070     imgui.obj
 0002:00015078       ??_C@_07EDIFFIJI@Current@  100aa078     imgui.obj
 0002:00015080       ??_C@_09CDENILGE@?$CD?$CDcurrent@ 100aa080     imgui.obj
 0002:0001508c       ??_C@_08DCPBJHAO@Original@ 100aa08c     imgui.obj
 0002:00015098       ??_C@_0L@IGJKOBOK@?$CD?$CDoriginal@ 100aa098     imgui.obj
 0002:000150a4       ??_C@_05JCABMAIH@?$CD?$CDrgb@ 100aa0a4     imgui.obj
 0002:000150ac       ??_C@_05JICEKLIF@?$CD?$CDhsv@ 100aa0ac     imgui.obj
 0002:000150b4       ??_C@_05BOAMFJMJ@?$CD?$CDhex@ 100aa0b4     imgui.obj
 0002:000150bc       ??_C@_0CD@CFNNKNML@?$AN?6?9?9?9?9?9?9?9?9?9?9?9?9?9?9?9?9?9?9?9?9?9?9?9?9?9?9?9?9?9@ 100aa0bc     imgui.obj
 0002:000150e0       ??_C@_02LLHJFGPH@?5?$HM@   100aa0e0     imgui.obj
 0002:000150e4       ??_C@_04LOAJBDKD@true@     100aa0e4     imgui.obj
 0002:000150ec       ??_C@_05LAPONLG@false@     100aa0ec     imgui.obj
 0002:0001511c       ??_C@_04EICJPCEA@cmap@     100aa11c     imgui_draw.obj
 0002:00015124       ??_C@_04DACNFKGE@loca@     100aa124     imgui_draw.obj
 0002:0001512c       ??_C@_04NEODDMOL@head@     100aa12c     imgui_draw.obj
 0002:00015134       ??_C@_04LLIHEPK@glyf@      100aa134     imgui_draw.obj
 0002:0001513c       ??_C@_04FMPHLIKP@hhea@     100aa13c     imgui_draw.obj
 0002:00015144       ??_C@_04ONMNCIMC@hmtx@     100aa144     imgui_draw.obj
 0002:0001514c       ??_C@_04HHMMLDJI@kern@     100aa14c     imgui_draw.obj
 0002:00015154       ??_C@_04HJGCPIEK@CFF?5@    100aa154     imgui_draw.obj
 0002:0001515c       ??_C@_04KODIGLGG@maxp@     100aa15c     imgui_draw.obj
 0002:00015164       ??_C@_0BG@MBFHAHKJ@ProggyClean?4ttf?0?513px@ 100aa164     imgui_draw.obj
 0002:0001517c       ??_C@_0L@EPCGLJHG@?$CFs?0?5?$CF?40fpx@ 100aa17c     imgui_draw.obj
 0002:000151a8       ??_7JsonNull@json11@@6B@   100aa1a8     json11.obj
 0002:000151e0       ??_7JsonBoolean@json11@@6B@ 100aa1e0     json11.obj
 0002:00015218       ??_7JsonValue@json11@@6B@  100aa218     json11.obj
 0002:00015250       ??_7?$_Ref_count_obj@VJsonBoolean@json11@@@std@@6B@ 100aa250     json11.obj
 0002:00015264       ??_7?$_Ref_count_obj@VJsonNull@json11@@@std@@6B@ 100aa264     json11.obj
 0002:00015274       ??_C@_02LMMGGCAJ@?3?5@     100aa274     json11.obj
 0002:00015278       ??_C@_04MLLLIHIP@null@     100aa278     json11.obj
 0002:00015280       ??_C@_05CEKCMKAN@?$CF?417g@ 100aa280     json11.obj
 0002:00015288       ??_C@_02HDBGODGB@?2?2@     100aa288     json11.obj
 0002:0001528c       ??_C@_02MCKKLHBJ@?2?$CC@   100aa28c     json11.obj
 0002:00015290       ??_C@_02DCNDPIBM@?2b@      100aa290     json11.obj
 0002:00015294       ??_C@_02FGLPDNBI@?2f@      100aa294     json11.obj
 0002:00015298       ??_C@_02HIBBOKEN@?2r@      100aa298     json11.obj
 0002:0001529c       ??_C@_02COELENML@?2t@      100aa29c     json11.obj
 0002:000152a0       ??_C@_06OAIHNJFH@?2u?$CF04x@ 100aa2a0     json11.obj
 0002:000152a8       ??_C@_06MGLDKBHC@?2u2028@  100aa2a8     json11.obj
 0002:000152b0       ??_C@_06NPKIJADD@?2u2029@  100aa2b0     json11.obj
 0002:000152b8       ??_C@_01OHGJGJJP@?$FL@     100aa2b8     json11.obj
 0002:000152bc       ??_C@_02KEGNLNML@?0?5@     100aa2bc     json11.obj
 0002:000152c0       ??_C@_01LBDDMOBJ@?$FN@     100aa2c0     json11.obj
 0002:000152c4       ??_C@_01HCONENDN@?$HL@     100aa2c4     json11.obj
 0002:000152c8       ??_C@_01CELHOKLL@?$HN@     100aa2c8     json11.obj
 0002:000152cc       ??_C@_0BB@LBHIIDFM@DT_BaseViewModel@ 100aa2cc     RecvProp.obj
 0002:000152e0       ??_C@_0M@MKLEPEA@m_nSequence@ 100aa2e0     RecvProp.obj
 0002:000152ec       ??_C@_0O@BLDHPAC@m_nModelIndex@ 100aa2ec     RecvProp.obj
 0002:000152fc       ??_C@_04PMJFGIKF@d_?$CFs@  100aa2fc     ConVar.obj
 0002:00015304       ??_C@_0O@LMJDHGJK@MS?5Sans?5Serif@ 100aa304     Draw.obj
 0002:00015314       ??_C@_05FKENMFIE@Revue@    100aa314     Draw.obj
 0002:0001531c       ??_C@_05HIMKGMK@Galil@     100aa31c     Entity.obj
 0002:00015324       ??_C@_05FHOPFHIN@Taser@    100aa324     Entity.obj
 0002:0001532c       ??_C@_04FBPCBLKJ@M4A1@     100aa32c     Entity.obj
 0002:00015334       ??_C@_04KGAKOGIL@P250@     100aa334     Entity.obj
 0002:0001533c       ??_C@_04JBMBEHJL@Nova@     100aa33c     Entity.obj
 0002:00015344       ??_C@_06IDKBNLPO@SSG?508@  100aa344     Entity.obj
 0002:0001534c       ??_C@_07BILBIONL@SCAR?920@ 100aa34c     Entity.obj
 0002:00015354       ??_C@_0O@FCKHEMIH@Smoke?5Grenade@ 100aa354     Entity.obj
 0002:00015364       ??_C@_05BPFOPNCG@Knife@    100aa364     Entity.obj
 0002:0001536c       ??_C@_09MIAKLAAI@CZ75?9Auto@ 100aa36c     Entity.obj
 0002:00015378       ??_C@_0BD@PHCJJKFK@Incendiary?5Grenade@ 100aa378     Entity.obj
 0002:0001538c       ??_C@_0M@HKKILMII@R8?5Revolver@ 100aa38c     Entity.obj
 0002:0001539c       ??_7CInput@@6B@            100aa39c     Input.obj
 0002:000153a0       ??_C@_0BA@CDHOJLO@?$CC?6?7?$CC$ignorez?$CC?5?$CC@ 100aa3a0     IMaterialSystem.obj
 0002:000153b0       ??_C@_01BJJEKLCA@?$CC@     100aa3b0     IMaterialSystem.obj
 0002:000153b8       ??_C@_0LJ@FGEPEICH@?$CC?6?$HL?6?7?$CC$basetexture?$CC?5?$CCvgui?1white@ 100aa3b8     IMaterialSystem.obj
 0002:00015474       ??_C@_07OFGELPJP@custom_@  100aa474     IMaterialSystem.obj
 0002:0001547c       ??_C@_0BC@EOODALEL@Unknown?5exception@ 100aa47c     NetVarManager.obj
 0002:00015490       ??_C@_08EPJLHIJG@bad?5cast@ 100aa490     NetVarManager.obj
 0002:000154a0       ??_7?$basic_filebuf@DU?$char_traits@D@std@@@std@@6B@ 100aa4a0     NetVarManager.obj
 0002:000154e0       ??_7?$basic_ofstream@DU?$char_traits@D@std@@@std@@6B@ 100aa4e0     NetVarManager.obj
 0002:000154e8       ??_7bad_cast@std@@6B@      100aa4e8     NetVarManager.obj
 0002:000154f0       ??_8?$basic_fstream@DU?$char_traits@D@std@@@std@@7B?$basic_ostream@DU?$char_traits@D@std@@@1@@ 100aa4f0     Config.obj
 0002:000154f0       ??_8?$basic_ofstream@DU?$char_traits@D@std@@@std@@7B@ 100aa4f0     NetVarManager.obj
 0002:000154fc       ??_7?$basic_fstream@DU?$char_traits@D@std@@@std@@6B@ 100aa4fc     Config.obj
 0002:00015500       ??_8?$basic_fstream@DU?$char_traits@D@std@@@std@@7B?$basic_istream@DU?$char_traits@D@std@@@1@@ 100aa500     Config.obj
 0002:00015508       ??_C@_07DLHCIBDH@default@  100aa508     Config.obj
 0002:00015510       ??_C@_06BOLHOKHP@deagle@   100aa510     Config.obj
 0002:00015518       ??_C@_04CGFJFPFD@none@     100aa518     Config.obj
 0002:00015520       ??_C@_05JEPNPBJI@five7@    100aa520     Config.obj
 0002:00015528       ??_C@_05CKCPPELI@duals@    100aa528     Config.obj
 0002:00015530       ??_C@_04MCMNMLGF@ak47@     100aa530     Config.obj
 0002:00015538       ??_C@_05KINDNLLC@glock@    100aa538     Config.obj
 0002:00015540       ??_C@_03CDKALHKG@awp@      100aa540     Config.obj
 0002:00015544       ??_C@_03CFKHOHFO@aug@      100aa544     Config.obj
 0002:00015548       ??_C@_05EPACHGIN@g3sg1@    100aa548     Config.obj
 0002:00015550       ??_C@_05LAIJEIBK@famas@    100aa550     Config.obj
 0002:00015558       ??_C@_04CPLLELMC@m249@     100aa558     Config.obj
 0002:00015560       ??_C@_05CAKDPM@galil@      100aa560     Config.obj
 0002:00015568       ??_C@_05INHJPNJM@mac10@    100aa568     Config.obj
 0002:00015570       ??_C@_04NFAJIGAI@m4a4@     100aa570     Config.obj
 0002:00015578       ??_C@_05JOBMFOLE@ump45@    100aa578     Config.obj
 0002:00015580       ??_C@_03EBHIGIJD@p90@      100aa580     Config.obj
 0002:00015584       ??_C@_05CDFEGPPN@bizon@    100aa584     Config.obj
 0002:0001558c       ??_C@_06PLJHLHIO@xm1014@   100aa58c     Config.obj
 0002:00015594       ??_C@_05LMJJNAEK@negev@    100aa594     Config.obj
 0002:0001559c       ??_C@_04GHKFGOJ@mag7@      100aa59c     Config.obj
 0002:000155a4       ??_C@_04HNGCLBBP@tec9@     100aa5a4     Config.obj
 0002:000155ac       ??_C@_08MNGFIJED@sawedoff@ 100aa5ac     Config.obj
 0002:000155b8       ??_C@_03NDABMHFJ@mp7@      100aa5b8     Config.obj
 0002:000155bc       ??_C@_05FAEDFCLL@taser@    100aa5bc     Config.obj
 0002:000155c4       ??_C@_04FAAAGIJP@nova@     100aa5c4     Config.obj
 0002:000155cc       ??_C@_03ENICOKNH@mp9@      100aa5cc     Config.obj
 0002:000155d0       ??_C@_05IENADEPD@sg556@    100aa5d0     Config.obj
 0002:000155d8       ??_C@_06KMLOKGCE@scar20@   100aa5d8     Config.obj
 0002:000155e0       ??_C@_06MPFLHGKA@m4a1?9s@  100aa5e0     Config.obj
 0002:000155e8       ??_C@_05OIPMCNPN@ssg08@    100aa5e8     Config.obj
 0002:000155f0       ??_C@_04GANIHECE@cz75@     100aa5f0     Config.obj
 0002:000155f8       ??_C@_05JFPIJDLJ@p2000@    100aa5f8     Config.obj
 0002:00015600       ??_C@_07MMCLEJJN@bayonet@  100aa600     Config.obj
 0002:00015608       ??_C@_08GIDBIBPA@revolver@ 100aa608     Config.obj
 0002:00015614       ??_C@_08LMPHKEJF@falshion@ 100aa614     Config.obj
 0002:00015620       ??_C@_09DJDINLGO@butterfly@ 100aa620     Config.obj
 0002:0001562c       ??_C@_03GBCDPJBA@gut@      100aa62c     Config.obj
 0002:00015630       ??_C@_04DGGGELON@flip@     100aa630     Config.obj
 0002:00015638       ??_C@_02EODFPDCE@m9@       100aa638     Config.obj
 0002:0001563c       ??_C@_08JPAGIJNJ@karambit@ 100aa63c     Config.obj
 0002:00015648       ??_C@_05LJAHOHPJ@bowie@    100aa648     Config.obj
 0002:00015650       ??_C@_08JEJCHNIJ@huntsman@ 100aa650     Config.obj
 0002:0001565c       ??_C@_07HNMLFLME@Ragebot@  100aa65c     Config.obj
 0002:00015664       ??_C@_07ICMBMMAD@daggers@  100aa664     Config.obj
 0002:0001566c       ??_C@_05GKMFDLIB@OnKey@    100aa66c     Config.obj
 0002:00015674       ??_C@_09GBBJIMBB@Auto?4Fire@ 100aa674     Config.obj
 0002:00015680       ??_C@_09CMMKMGDA@No?4Recoil@ 100aa680     Config.obj
 0002:0001568c       ??_C@_09OEDEPFEP@OnKey?4Key@ 100aa68c     Config.obj
 0002:00015698       ??_C@_0P@FMFINJIC@NoRecoil?4Force@ 100aa698     Config.obj
 0002:000156a8       ??_C@_0M@OMNPJFAK@Auto?4Pistol@ 100aa6a8     Config.obj
 0002:000156b4       ??_C@_09EICBMNJG@Auto?4Stop@ 100aa6b4     Config.obj
 0002:000156c0       ??_C@_0N@EHJMDHLK@FriendlyFire@ 100aa6c0     Config.obj
 0002:000156d0       ??_C@_0M@KDCCMAIH@Auto?4Crouch@ 100aa6d0     Config.obj
 0002:000156dc       ??_C@_0L@NDGOMDMM@Auto?4Scope@ 100aa6dc     Config.obj
 0002:000156e8       ??_C@_0BA@PMMGHEMK@AutoWall?4Damage@ 100aa6e8     Config.obj
 0002:000156f8       ??_C@_08FEAGLPAE@AutoWall@ 100aa6f8     Config.obj
 0002:00015704       ??_C@_0BB@OFHGNNKB@HitChance?4Amount@ 100aa704     Config.obj
 0002:00015718       ??_C@_09PFDGKOMN@HitChance@ 100aa718     Config.obj
 0002:00015724       ??_C@_0P@BOEJBAJH@Aimstep?4Amount@ 100aa724     Config.obj
 0002:00015734       ??_C@_07OOKCCKLO@Aimstep@  100aa734     Config.obj
 0002:0001573c       ??_C@_0BA@BECNNAKE@Antiaim?4Enabled@ 100aa73c     Config.obj
 0002:0001574c       ??_C@_0N@LGHJIOAN@HitScan?4Type@ 100aa74c     Config.obj
 0002:0001575c       ??_C@_09JBCNJMGI@At?4Player@ 100aa75c     Config.obj
 0002:00015768       ??_C@_08JICICIGE@Fake?4Yaw@ 100aa768     Config.obj
 0002:00015774       ??_C@_0BA@DJNMKDBF@Fake?4Spin?4Speed@ 100aa774     Config.obj
 0002:00015784       ??_C@_0L@BJPDINNG@Spin?4Speed@ 100aa784     Config.obj
 0002:00015790       ??_C@_0BD@HELGPPBL@Custom?4Yaw?4Enabled@ 100aa790     Config.obj
 0002:000157a4       ??_C@_0BF@EAAJDHGC@Custom?4Pitch?4Enabled@ 100aa7a4     Config.obj
 0002:000157bc       ??_C@_0BA@IDIAFCGL@Custom?4Yaw?4Fake@ 100aa7bc     Config.obj
 0002:000157cc       ??_C@_0BA@EFNHMKOB@Custom?4Yaw?4Real@ 100aa7cc     Config.obj
 0002:000157dc       ??_C@_0BC@GLFEKJAF@Custom?4Pitch?4Fake@ 100aa7dc     Config.obj
 0002:000157f0       ??_C@_0BC@KNADDBIP@Custom?4Pitch?4Real@ 100aa7f0     Config.obj
 0002:00015804       ??_C@_0O@ILPPEFKL@Antiaim?4Pitch@ 100aa804     Config.obj
 0002:00015814       ??_C@_0BB@FGNMGOME@Antiaim?4Resolver@ 100aa814     Config.obj
 0002:00015828       ??_C@_0BB@CJCKPCCG@Antiaim?4Yaw?4Fake@ 100aa828     Config.obj
 0002:0001583c       ??_C@_0BB@OPHNGKKM@Antiaim?4Yaw?4Real@ 100aa83c     Config.obj
 0002:00015850       ??_C@_0BC@JDGFPBPO@Antiaim?4KnifeHeld@ 100aa850     Config.obj
 0002:00015864       ??_C@_0O@MBIINLKI@Pos?4Adjusment@ 100aa864     Config.obj
 0002:00015874       ??_C@_0P@NBAKLNOC@Anti?4Untrusted@ 100aa874     Config.obj
 0002:00015884       ??_C@_0BA@DKIKBPEJ@Antiaim?4NoEnemy@ 100aa884     Config.obj
 0002:00015894       ??_C@_0BB@LCEPGNGI@Legit?4AutoPistol@ 100aa894     Config.obj
 0002:000158a8       ??_C@_08ENBENAAM@Legitbot@ 100aa8a8     Config.obj
 0002:000158b4       ??_C@_0L@CILCNEDJ@TriggerBot@ 100aa8b4     Config.obj
 0002:000158c0       ??_C@_0L@GGAGGPEG@SmokeCheck@ 100aa8c0     Config.obj
 0002:000158cc       ??_C@_0M@FCABCOFA@pSilent?4FOV@ 100aa8cc     Config.obj
 0002:000158d8       ??_C@_0BB@IBPNGNJC@IsCustomHitBoxes@ 100aa8d8     Config.obj
 0002:000158ec       ??_C@_0L@KOEGHACB@RCSAmountY@ 100aa8ec     Config.obj
 0002:000158f8       ??_C@_0L@LHFNEBGA@RCSAmountX@ 100aa8f8     Config.obj
 0002:00015904       ??_C@_0BB@NPABMHLE@FireDelayEnabled@ 100aa904     Config.obj
 0002:00015918       ??_C@_04BGDBHLHN@Skin@     100aa918     Config.obj
 0002:00015920       ??_C@_07FHICNCOO@pHitbox@  100aa920     Config.obj
 0002:00015928       ??_C@_09ELOJLJGK@FireDelay@ 100aa928     Config.obj
 0002:00015934       ??_C@_0P@KMDBMLOD@VremennyiKnife@ 100aa934     Config.obj
 0002:00015944       ??_C@_0M@OOGFDOGK@SkinsWeapon@ 100aa944     Config.obj
 0002:00015950       ??_C@_07FJKIEPI@Stiker1@   100aa950     Config.obj
 0002:00015958       ??_C@_0BA@EAPNAEAN@VremennyiWeapon@ 100aa958     Config.obj
 0002:00015968       ??_C@_07DHKMOGHK@Stiker3@  100aa968     Config.obj
 0002:00015970       ??_C@_07COLHNHDL@Stiker2@  100aa970     Config.obj
 0002:00015978       ??_C@_0BA@OOHJNFBH@ChangerStatTrak@ 100aa978     Config.obj
 0002:00015988       ??_C@_07HIONHALN@Stiker4@  100aa988     Config.obj
 0002:00015990       ??_C@_0P@GKIPILCC@ChangerEnabled@ 100aa990     Config.obj
 0002:000159a0       ??_C@_0M@BENJNGDG@ChangerWear@ 100aa9a0     Config.obj
 0002:000159ac       ??_C@_06HCBADBKC@Box?42D@  100aa9ac     Config.obj
 0002:000159b4       ??_C@_07GNHLELCG@Visuals@  100aa9b4     Config.obj
 0002:000159bc       ??_C@_08HEGKIDKO@Skeleton@ 100aa9bc     Config.obj
 0002:000159c8       ??_C@_06HDNCFLJF@Box?43D@  100aa9c8     Config.obj
 0002:000159d0       ??_C@_0N@IJDJHPP@FOV?4Override@ 100aa9d0     Config.obj
 0002:000159e0       ??_C@_0O@GDHIBFHK@FOV?4Viewmodel@ 100aa9e0     Config.obj
 0002:000159f0       ??_C@_0L@MELDFAIE@VectorLine@ 100aa9f0     Config.obj
 0002:000159fc       ??_C@_0N@GEEGBBIL@Bullet?4Trace@ 100aa9fc     Config.obj
 0002:00015a0c       ??_C@_0N@GNLCLNLN@Crosshair?4On@ 100aaa0c     Config.obj
 0002:00015a1c       ??_C@_07KAICKLGG@NoScope@  100aaa1c     Config.obj
 0002:00015a24       ??_C@_0P@HCDOEMHB@Crosshair?4Type@ 100aaa24     Config.obj
 0002:00015a34       ??_C@_0BB@JJKCAEKA@Crosshair?4Spread@ 100aaa34     Config.obj
 0002:00015a48       ??_C@_0M@JMDONBHL@Info?4Health@ 100aaa48     Config.obj
 0002:00015a54       ??_C@_0BC@LLBDPKHP@Crosshair?4Rainbow@ 100aaa54     Config.obj
 0002:00015a68       ??_C@_0L@MGEEOKIB@Show?4Enemy@ 100aaa68     Config.obj
 0002:00015a74       ??_C@_0M@LENJDKBB@Show?4Weapon@ 100aaa74     Config.obj
 0002:00015a80       ??_C@_0BC@LDFHIKIP@Filter?4Friendlies@ 100aaa80     Config.obj
 0002:00015a94       ??_C@_0P@EHOAIBGN@Filter?4Enemies@ 100aaa94     Config.obj
 0002:00015aa4       ??_C@_0O@JMEFCNOD@Chams?4Enabled@ 100aaaa4     Config.obj
 0002:00015ab4       ??_C@_09LCECKDHI@Filter?4C4@ 100aaab4     Config.obj
 0002:00015ac0       ??_C@_09KILHLNII@Chams?4XQZ@ 100aaac0     Config.obj
 0002:00015acc       ??_C@_0L@GNEAHMLH@Chams?4Mode@ 100aaacc     Config.obj
 0002:00015ad8       ??_C@_0N@MBFMONNJ@Remove?4Hands@ 100aaad8     Config.obj
 0002:00015ae8       ??_C@_0M@LHOKCHNB@Hands?4Chams@ 100aaae8     Config.obj
 0002:00015af4       ??_C@_0O@FAJJPGLG@Remove?4Recoil@ 100aaaf4     Config.obj
 0002:00015b04       ??_C@_0BB@ILGNFFLB@ThirdPerson?4Dist@ 100aab04     Config.obj
 0002:00015b18       ??_C@_09LEHNPDEA@g_iBoxV?41@ 100aab18     Config.obj
 0002:00015b24       ??_C@_0N@OLPKCGCB@Remove?4Flash@ 100aab24     Config.obj
 0002:00015b34       ??_C@_09IGELJBMC@g_iBoxV?43@ 100aab34     Config.obj
 0002:00015b40       ??_C@_09JPFAKAID@g_iBoxV?42@ 100aab40     Config.obj
 0002:00015b4c       ??_C@_09CPJGIACP@g_iBoxH?42@ 100aab4c     Config.obj
 0002:00015b58       ??_C@_09ELLNDOM@g_iBoxH?41@ 100aab58     Config.obj
 0002:00015b64       ??_C@_0N@NKKADOJA@FakeLag?4Type@ 100aab64     Config.obj
 0002:00015b74       ??_C@_09DGINLBGO@g_iBoxH?43@ 100aab74     Config.obj
 0002:00015b80       ??_C@_0P@KGDCLDOB@FakeLag?4Amount@ 100aab80     Config.obj
 0002:00015b90       ??_C@_04MHPHMCPO@Misc@     100aab90     Config.obj
 0002:00015b98       ??_C@_0M@OGMLJAAJ@Auto?4Strafe@ 100aab98     Config.obj
 0002:00015ba4       ??_C@_04IJMICJMM@Bhop@     100aaba4     Config.obj
 0002:00015bac       ??_C@_0N@GIOLLILO@Spam?4On?4Kill@ 100aabac     Config.obj
 0002:00015bbc       ??_C@_0L@GLOHGJJF@Spam?4On?4HS@ 100aabbc     Config.obj
 0002:00015bc8       ??_C@_05DAEACHJJ@Ranks@    100aabc8     Config.obj
 0002:00015bd0       ??_C@_0P@LPAEGEAA@Spam?4Bomb?4Info@ 100aabd0     Config.obj
 0002:00015be0       ??_C@_0N@MCJBFAFC@AirStuck?4Key@ 100aabe0     Config.obj
 0002:00015bf0       ??_C@_08HCHNCNGK@AirStuck@ 100aabf0     Config.obj
 0002:00015bfc       ??_C@_04KDGJJPMD@HLow@     100aabfc     Config.obj
 0002:00015c04       ??_C@_0N@OMCKEFGM@EnabledSkins@ 100aac04     Config.obj
 0002:00015c14       ??_C@_06NPMLGHGP@Menu?4R@  100aac14     Config.obj
 0002:00015c1c       ??_C@_04FHLKFAJP@HALL@     100aac1c     Config.obj
 0002:00015c24       ??_C@_06OIHOIBHL@Menu?4G@  100aac24     Config.obj
 0002:00015c2c       ??_C@_06ICDCBJPI@Colors@   100aac2c     Config.obj
 0002:00015c34       ??_C@_06IIHOJDPJ@Body?4R@  100aac34     Config.obj
 0002:00015c3c       ??_C@_06JFAJHFDO@Menu?4B@  100aac3c     Config.obj
 0002:00015c44       ??_C@_06MCLMIBKI@Body?4B@  100aac44     Config.obj
 0002:00015c4c       ??_C@_06LPMLHFON@Body?4G@  100aac4c     Config.obj
 0002:00015c54       ??_C@_06ENCEFNCB@Text?4G@  100aac54     Config.obj
 0002:00015c5c       ??_C@_06HKJBLLDF@Text?4R@  100aac5c     Config.obj
 0002:00015c64       ??_C@_0L@GAJJJGEN@Chams?4TV?4R@ 100aac64     Config.obj
 0002:00015c70       ??_C@_06DAFDKJGE@Text?4B@  100aac70     Config.obj
 0002:00015c78       ??_C@_0L@CKFLIEBM@Chams?4TV?4B@ 100aac78     Config.obj
 0002:00015c84       ??_C@_0L@FHCMHAFJ@Chams?4TV?4G@ 100aac84     Config.obj
 0002:00015c90       ??_C@_0L@OHOKFAPF@Chams?4TH?4G@ 100aac90     Config.obj
 0002:00015c9c       ??_C@_0L@NAFPLGOB@Chams?4TH?4R@ 100aac9c     Config.obj
 0002:00015ca8       ??_C@_0M@BHPDODGJ@Chams?4CTV?4R@ 100aaca8     Config.obj
 0002:00015cb4       ??_C@_0L@JKJNKELA@Chams?4TH?4B@ 100aacb4     Config.obj
 0002:00015cc0       ??_C@_0M@FNDBPBDI@Chams?4CTV?4B@ 100aacc0     Config.obj
 0002:00015ccc       ??_C@_0M@CAEGAFHN@Chams?4CTV?4G@ 100aaccc     Config.obj
 0002:00015cd8       ??_C@_0M@JAIACFNB@Chams?4CTH?4G@ 100aacd8     Config.obj
 0002:00015ce4       ??_C@_0M@KHDFMDMF@Chams?4CTH?4R@ 100aace4     Config.obj
 0002:00015cf0       ??_C@_0N@ECAEOHHP@Hitscan?4Head@ 100aacf0     Config.obj
 0002:00015d00       ??_C@_0M@ONPHNBJE@Chams?4CTH?4B@ 100aad00     Config.obj
 0002:00015d0c       ??_C@_0N@EJFINKHO@Hitscan?4Neck@ 100aad0c     Config.obj
 0002:00015d1c       ??_C@_09KOIMGME@RbotBones@ 100aad1c     Config.obj
 0002:00015d28       ??_C@_0O@NBEALADL@Hitscan?4Spine@ 100aad28     Config.obj
 0002:00015d38       ??_C@_0P@IDGMADHA@Hitscan?4Pelvis@ 100aad38     Config.obj
 0002:00015d48       ??_C@_0N@IOEDJHNK@Hitscan?4Arms@ 100aad48     Config.obj
 0002:00015d58       ??_C@_0N@LGIKLJJL@Hitscan?4Legs@ 100aad58     Config.obj
 0002:00015d68       ??_C@_05CKLABGMP@Skins@    100aad68     Config.obj
 0002:00015d70       ??_C@_0L@LAPKHLL@GloveModel@ 100aad70     Config.obj
 0002:00015d7c       ??_C@_0L@KEBKNOA@KnifeModel@ 100aad7c     Config.obj
 0002:00015d88       ??_C@_09CLOCEDJA@GloveSkin@ 100aad88     Config.obj
 0002:00015d94       ??_C@_0O@JNBGHEPI@Radar?4Enabled@ 100aad94     Config.obj
 0002:00015da4       ??_C@_0P@FBKGECNJ@Filter?4Weapons@ 100aada4     Config.obj
 0002:00015db4       ??_C@_0M@ELIAGBHK@Radar?4range@ 100aadb4     Config.obj
 0002:00015dc0       ??_C@_0M@OPKAHJAD@Radar?4Nicks@ 100aadc0     Config.obj
 0002:00015dcc       ??_C@_07PHLAHNNA@pHitBox@  100aadcc     Config.obj
 0002:00015dd4       ??_C@_04PJEAGOGO@RRCS@     100aadd4     Config.obj
 0002:00015ddc       ??_C@_0M@MLKJCFNG@C?3?2skyfall?2@ 100aaddc     Config.obj
 0002:00015de8       ??_C@_04IFJILJI@?4cfg@     100aade8     Config.obj
 0002:00015df0       ??_C@_0N@BABCOM@C?3?2skyfall?2?$CK@ 100aadf0     Config.obj
 0002:00015e00       ??_C@_0L@KKELEHGP@C?3?2skyfall@ 100aae00     Config.obj
 0002:00015e0c       ??_C@_0BA@MIGFFMNM@m_hActiveWeapon@ 100aae0c     Offsets.obj
 0002:00015e1c       ??_C@_0BI@KDIKOMBE@DT_BaseAttributableItem@ 100aae1c     Offsets.obj
 0002:00015e34       ??_C@_0CL@PMOLJDIE@?584?5C0?575?508?557?58B?5CE?5E8?5?$DP?$DP?5?$DP?$DP?5@ 100aae34     Offsets.obj
 0002:00015e60       ??_C@_0P@GFHGANFM@m_szCustomName@ 100aae60     Offsets.obj
 0002:00015e70       ??_C@_0BB@IDMFBLEL@shaderapidx9?4dll@ 100aae70     Offsets.obj
 0002:00015e84       ??_C@_0CB@KKMKGEOF@A1?5?$DP?$DP?5?$DP?$DP?5?$DP?$DP?5?$DP?$DP?550?58B?508?5FF?551?50@ 100aae84     Offsets.obj
 0002:00015ea8       ??_C@_0BI@LDFJIEBB@55?58B?5EC?551?533?5C0?5C7?545@ 100aaea8     Offsets.obj
 0002:00015ec0       ??_C@_0DD@PILKPPAK@55?58B?5EC?583?5E4?5F8?583?5EC?534?553?58@ 100aaec0     Offsets.obj
 0002:00015ef8       ??_C@_0FJ@BFPDGKIC@53?58B?5DC?583?5EC?508?583?5E4?5F0?583?5C@ 100aaef8     Offsets.obj
 0002:00015f58       ??_C@_0KK@FKFOCBJC@55?58B?5EC?58B?50D?5?$DP?5?$DP?5?$DP?5?$DP?585?5C9?575@ 100aaf58     Offsets.obj
 0002:00016004       ??_C@_03MLMOILGK@Msg@      100ab004     Util.obj
 0002:00016008       ??_C@_09LGKBAKDK@tier0?4dll@ 100ab008     Util.obj
 0002:00016014       ??_C@_0BF@LEBMDKCJ@VClientEntityList003@ 100ab014     Util.obj
 0002:0001602c       ??_C@_0CD@GPPEHHPJ@B9?5?$DP?5?$DP?5?$DP?5?$DP?5F3?50F?511?504?524?5FF?550@ 100ab02c     Util.obj
 0002:00016050       ??_C@_0BB@CJDLPJJP@VEngineClient014@ 100ab050     Util.obj
 0002:00016064       ??_C@_0P@DHJOKMPC@VEngineCvar007@ 100ab064     Util.obj
 0002:00016074       ??_C@_0BF@JEJONENL@EngineTraceClient004@ 100ab074     Util.obj
 0002:0001608c       ??_C@_0L@NMFAEECI@?$JE?$JM?$JE?$JN?$JL?$JD?Y?$JM?$JF?$JG@ 100ab08c     Util.obj
 0002:00016098       ??_C@_0BA@JBLHMOPO@inputsystem?4dll@ 100ab098     Util.obj
 0002:000160a8       ??_C@_0BG@BKNMCPPE@InputSystemVersion001@ 100ab0a8     Util.obj
 0002:000160c0       ??_C@_0N@OOPFIJKE@localize?4dll@ 100ab0c0     Util.obj
 0002:000160d0       ??_C@_0N@LHOFGHBG@Localize_001@ 100ab0d0     Util.obj
 0002:000160e0       ??_C@_0BD@NKPNDPNB@vguimatsurface?4dll@ 100ab0e0     Util.obj
 0002:000160f4       ??_C@_0BA@NFOMELFH@VGUI_Surface031@ 100ab0f4     Util.obj
 0002:00016104       ??_C@_0O@BLBEAEJG@VGUI_Panel009@ 100ab104     Util.obj
 0002:00016114       ??_C@_0BF@KOIHLKCK@GAMEEVENTSMANAGER002@ 100ab114     Util.obj
 0002:0001612c       ??_C@_0BF@IHMEMAKJ@VEngineRenderView014@ 100ab12c     Util.obj
 0002:00016144       ??_C@_09CODMFJIB@vgui2?4dll@ 100ab144     Util.obj
 0002:00016150       ??_C@_0BD@ECOBDDLG@VMaterialSystem080@ 100ab150     Util.obj
 0002:00016164       ??_C@_0BA@MECLCOIH@VEngineModel016@ 100ab164     Util.obj
 0002:00016174       ??_C@_0BE@BJBBILIH@VModelInfoClient004@ 100ab174     Util.obj
 0002:00016188       ??_C@_0BD@PEHNKAML@materialsystem?4dll@ 100ab188     Util.obj
 0002:0001619c       ??_C@_0BF@PFHNDOKD@VClientPrediction001@ 100ab19c     Util.obj
 0002:000161b4       ??_C@_0BA@CNGPLDEL@GameMovement001@ 100ab1b4     Util.obj
 0002:000161c4       ??_C@_0N@FNMJMILG@vphysics?4dll@ 100ab1c4     Util.obj
 0002:000161d4       ??_C@_0BI@ENHKJIPO@VPhysicsSurfaceProps001@ 100ab1d4     Util.obj
 0002:000161ec       ??_C@_0BB@PEKNOCJA@VStudioRender026@ 100ab1ec     Util.obj
 0002:00016200       ??_C@_0BB@JEBHNJKE@VDebugOverlay004@ 100ab200     Util.obj
 0002:00016214       ??_C@_0BK@GLHNJMEN@8B?50D?5?$DP?5?$DP?5?$DP?5?$DP?58B?546?508?568@ 100ab214     Util.obj
 0002:00016230       ??_C@_0BB@PFLHNLNG@studiorender?4dll@ 100ab230     Util.obj
 0002:00016244       ??_C@_0BK@LEJELGAD@0F?511?505?5?$DP?5?$DP?5?$DP?5?$DP?583?5C8?501@ 100ab244     Util.obj
 0002:00016260       ??_C@_0CK@DFKOCHGN@B9?5?$DP?5?$DP?5?$DP?5?$DP?5A1?5?$DP?5?$DP?5?$DP?5?$DP?5FF?510?5A1?5@ 100ab260     Util.obj
 0002:0001628c       ??_C@_0P@GPMCKLIC@Model?5textures@ 100ab28c     Util.obj
 0002:0001629c       ??_C@_0BE@OBGHPAOD@debug?1debugdrawflat@ 100ab29c     Util.obj
 0002:000162b0       ??_C@_0ED@LHKDCMAM@models?1inventory_items?1cologne_@ 100ab2b0     Util.obj
 0002:000162f4       ??_C@_0BA@OBHPCBFP@CreateInterface@ 100ab2f4     Util.obj
 0002:00016304       ??_C@_0DN@JPFEDAPJ@models?1weapons?1v_models?1arms?1gl@ 100ab304     SkinChanger.obj
 0002:00016348       ??_C@_0EF@EOMAPHED@models?1weapons?1v_models?1arms?1gl@ 100ab348     SkinChanger.obj
 0002:00016390       ??_C@_0FD@BCCJPFNN@models?1weapons?1v_models?1arms?1gl@ 100ab390     SkinChanger.obj
 0002:000163e4       ??_C@_0DL@IGAOHMGH@models?1weapons?1v_models?1arms?1gl@ 100ab3e4     SkinChanger.obj
 0002:00016420       ??_C@_0EF@LFOPPMLF@models?1weapons?1v_models?1arms?1gl@ 100ab420     SkinChanger.obj
 0002:00016468       ??_C@_0EF@GAFFMNCN@models?1weapons?1v_models?1arms?1gl@ 100ab468     SkinChanger.obj
 0002:000164b0       ??_C@_07NFBHKFPC@knife_t@  100ab4b0     SkinChanger.obj
 0002:000164b8       ??_C@_06GEPNGEJI@weapon@   100ab4b8     SkinChanger.obj
 0002:000164c0       ??_C@_0L@LEBBKLMI@knife_push@ 100ab4c0     SkinChanger.obj
 0002:000164cc       ??_C@_0BB@EPLPNOAB@knife_default_ct@ 100ab4cc     SkinChanger.obj
 0002:000164e0       ??_C@_0BF@HOEFNIPG@knife_survival_bowie@ 100ab4e0     SkinChanger.obj
 0002:000164f8       ??_C@_0BA@CNPEEEPB@knife_butterfly@ 100ab4f8     SkinChanger.obj
 0002:00016508       ??_C@_0P@HCDKNIHD@knife_tactical@ 100ab508     SkinChanger.obj
 0002:00016518       ??_C@_0P@HCOCHGBC@knife_falchion@ 100ab518     SkinChanger.obj
 0002:00016528       ??_C@_0P@FCMFFJMF@knife_karambit@ 100ab528     SkinChanger.obj
 0002:00016538       ??_C@_0BB@GHJJDI@knife_m9_bayonet@ 100ab538     SkinChanger.obj
 0002:0001654c       ??_C@_0L@OFAKGPAA@knife_flip@ 100ab54c     SkinChanger.obj
 0002:00016558       ??_C@_09NLPDOPHH@knife_gut@ 100ab558     SkinChanger.obj
 0002:00016564       __real@00000000            100ab564     Util.obj
 0002:00016568       __real@0000000000000000    100ab568     json11.obj
 0002:00016570       __real@1e3ce508            100ab570     imgui.obj
 0002:00016574       __real@2edbe6ff            100ab574     SkinChanger.obj
 0002:00016578       __real@358637bd            100ab578     imgui_draw.obj
 0002:0001657c       __real@3727c5ac            100ab57c     imgui.obj
 0002:00016580       __real@37800000            100ab580     imgui_draw.obj
 0002:00016584       __real@38800000            100ab584     imgui_draw.obj
 0002:00016588       __real@38d1b717            100ab588     imgui.obj
 0002:0001658c       __real@3a83126f            100ab58c     Util.obj
 0002:00016590       __real@3b808081            100ab590     EndScene.obj
 0002:00016594       __real@3ba3d70a            100ab594     Visuals.obj
 0002:00016598       __real@3c23d70a            100ab598     Util.obj
 0002:0001659c       __real@3c8efa35            100ab59c     AntiAim.obj
 0002:000165a0       __real@3cdd2f1b            100ab5a0     imgui.obj
 0002:000165a4       __real@3d4ccccd            100ab5a4     imgui.obj
 0002:000165a8       __real@3d9fbe77            100ab5a8     Config.obj
 0002:000165ac       __real@3da3d70a            100ab5ac     imgui.obj
 0002:000165b0       __real@3dcccccd            100ab5b0     Config.obj
 0002:000165b4       __real@3def9db2            100ab5b4     Config.obj
 0002:000165b8       __real@3e000000            100ab5b8     Config.obj
 0002:000165bc       __real@3e0c49ba            100ab5bc     Config.obj
 0002:000165c0       __real@3e19999a            100ab5c0     Config.obj
 0002:000165c4       __real@3e23d70a            100ab5c4     Autowall.obj
 0002:000165c8       __real@3e2aaaab            100ab5c8     imgui.obj
 0002:000165cc       __real@3e4ccccd            100ab5cc     imgui.obj
 0002:000165d0       __real@3e570a3d            100ab5d0     Config.obj
 0002:000165d4       __real@3e6147ae            100ab5d4     AntiAim.obj
 0002:000165d8       __real@3e645a1d            100ab5d8     Config.obj
 0002:000165dc       __real@3e7ced91            100ab5dc     Config.obj
 0002:000165e0       __real@3e800000            100ab5e0     imgui_draw.obj
 0002:000165e4       __real@3e90624e            100ab5e4     Config.obj
 0002:000165e8       __real@3eb33333            100ab5e8     imgui_draw.obj
 0002:000165ec       __real@3ecccccd            100ab5ec     imgui.obj
 0002:000165f0       __real@3ee147ae            100ab5f0     EndScene.obj
 0002:000165f4       __real@3f000000            100ab5f4     Util.obj
 0002:000165f8       __real@3f0ccccd            100ab5f8     imgui.obj
 0002:000165fc       __real@3f266666            100ab5fc     imgui.obj
 0002:00016600       __real@3f347ae1            100ab600     Config.obj
 0002:00016604       __real@3f400000            100ab604     Autowall.obj
 0002:00016608       __real@3f4ccccd            100ab608     imgui.obj
 0002:0001660c       __real@3f4d9168            100ab60c     Config.obj
 0002:00016610       __real@3f5db22d            100ab610     imgui.obj
 0002:00016614       __real@3f5db3d0            100ab614     imgui.obj
 0002:00016618       __real@3f60624dd2f1a9fc    100ab618     Autowall.obj
 0002:00016620       __real@3f666666            100ab620     Visuals.obj
 0002:00016624       __real@3f70e560            100ab624     Config.obj
 0002:00016628       __real@3f733333            100ab628     imgui.obj
 0002:0001662c       __real@3f77ced9            100ab62c     Config.obj
 0002:00016630       __real@3f7fff58            100ab630     imgui.obj
 0002:00016634       __real@3f800000            100ab634     Util.obj
 0002:00016638       __real@3f800054            100ab638     imgui.obj
 0002:00016640       __real@3f870a3d70a3d70a    100ab640     RageBot.obj
 0002:00016648       __real@3f889374bc6a7efa    100ab648     EndScene.obj
 0002:00016650       __real@3f8ccccd            100ab650     EndScene.obj
 0002:00016654       __real@3f99999a            100ab654     imgui.obj
 0002:00016658       __real@3fa00000            100ab658     Autowall.obj
 0002:0001665c       __real@3fa66666            100ab65c     Miscellaneous.obj
 0002:00016660       __real@3fa999999999999a    100ab660     AntiAim.obj
 0002:00016668       __real@3faccccd            100ab668     imgui.obj
 0002:00016670       __real@3fb1eb851eb851ec    100ab670     EndScene.obj
 0002:00016678       __real@3fb33333            100ab678     imgui.obj
 0002:0001667c       __real@3fc00000            100ab67c     imgui.obj
 0002:00016680       __real@3fc999999999999a    100ab680     Util.obj
 0002:00016688       __real@3fcc28f5c28f5c29    100ab688     AntiAim.obj
 0002:00016690       __real@3fe0000000000000    100ab690     Util.obj
 0002:00016698       __real@3fe3333333333333    100ab698     Util.obj
 0002:000166a0       __real@3fe451eb80000000    100ab6a0     EndScene.obj
 0002:000166a8       __real@3feb851ec0000000    100ab6a8     EndScene.obj
 0002:000166b0       __real@3ff199999999999a    100ab6b0     AntiAim.obj
 0002:000166b8       __real@3ff91eb860000000    100ab6b8     Visuals.obj
 0002:000166c0       __real@3ffeb852            100ab6c0     imgui_draw.obj
 0002:000166c4       __real@40000000            100ab6c4     imgui.obj
 0002:000166c8       __real@4000000000000000    100ab6c8     LegitBot.obj
 0002:000166d0       __real@4004666666666666    100ab6d0     Visuals.obj
 0002:000166d8       __real@4008000000000000    100ab6d8     Miscellaneous.obj
 0002:000166e0       __real@4012000000000000    100ab6e0     EndScene.obj
 0002:000166e8       __real@40200000            100ab6e8     imgui.obj
 0002:000166f0       __real@4024000000000000    100ab6f0     EndScene.obj
 0002:000166f8       __real@402ccccd            100ab6f8     imgui.obj
 0002:000166fc       __real@403f5c29            100ab6fc     imgui.obj
 0002:00016700       __real@40400000            100ab700     imgui.obj
 0002:00016704       __real@40490fdb            100ab704     Math.obj
 0002:00016708       __real@404ca5dc20000000    100ab708     AntiAim.obj
 0002:00016710       __real@406fe00000000000    100ab710     Visuals.obj
 0002:00016718       __real@40800000            100ab718     Autowall.obj
 0002:00016720       __real@408f400000000000    100ab720     AntiAim.obj
 0002:00016728       __real@40900000            100ab728     Util.obj
 0002:0001672c       __real@40a00000            100ab72c     Config.obj
 0002:00016730       __real@40c00000            100ab730     imgui.obj
 0002:00016734       __real@40c90fdb            100ab734     imgui_draw.obj
 0002:00016738       __real@40e00000            100ab738     imgui_draw.obj
 0002:0001673c       __real@41000000            100ab73c     imgui.obj
 0002:00016740       __real@41100000            100ab740     imgui.obj
 0002:00016744       __real@41200000            100ab744     Config.obj
 0002:00016748       __real@41300000            100ab748     imgui_draw.obj
 0002:0001674c       __real@41400000            100ab74c     imgui_draw.obj
 0002:00016750       __real@41500000            100ab750     imgui_draw.obj
 0002:00016754       __real@41600000            100ab754     imgui.obj
 0002:00016758       __real@41800000            100ab758     imgui.obj
 0002:0001675c       __real@41880000            100ab75c     imgui_draw.obj
 0002:00016760       __real@41900000            100ab760     imgui_draw.obj
 0002:00016764       __real@41980000            100ab764     imgui_draw.obj
 0002:00016768       __real@41a00000            100ab768     EndScene.obj
 0002:0001676c       __real@41a80000            100ab76c     imgui.obj
 0002:00016770       __real@41b80000            100ab770     imgui_draw.obj
 0002:00016774       __real@41c00000            100ab774     imgui.obj
 0002:00016778       __real@41c80000            100ab778     Util.obj
 0002:0001677c       __real@41d80000            100ab77c     EndScene.obj
 0002:00016780       __real@41e00000            100ab780     Util.obj
 0002:00016784       __real@41f00000            100ab784     Config.obj
 0002:00016788       __real@41f80000            100ab788     imgui_draw.obj
 0002:0001678c       __real@4207eebe            100ab78c     AntiAim.obj
 0002:00016790       __real@420c0000            100ab790     EndScene.obj
 0002:00016794       __real@421f999a            100ab794     Config.obj
 0002:00016798       __real@42200000            100ab798     Autowall.obj
 0002:0001679c       __real@42340000            100ab79c     Miscellaneous.obj
 0002:000167a0       __real@42380000            100ab7a0     AntiAim.obj
 0002:000167a4       __real@42440000            100ab7a4     AntiAim.obj
 0002:000167a8       __real@42480000            100ab7a8     EndScene.obj
 0002:000167ac       __real@425c0000            100ab7ac     imgui_draw.obj
 0002:000167b0       __real@42652ee0            100ab7b0     Miscellaneous.obj
 0002:000167b4       __real@42652ee1            100ab7b4     AntiAim.obj
 0002:000167b8       __real@42700000            100ab7b8     imgui.obj
 0002:000167bc       __real@428c0000            100ab7bc     EndScene.obj
 0002:000167c0       __real@42900000            100ab7c0     EndScene.obj
 0002:000167c4       __real@42920000            100ab7c4     imgui_draw.obj
 0002:000167c8       __real@42aa0000            100ab7c8     Util.obj
 0002:000167cc       __real@42ae0000            100ab7cc     Util.obj
 0002:000167d0       __real@42b20000            100ab7d0     LegitBot.obj
 0002:000167d4       __real@42b40000            100ab7d4     AntiAim.obj
 0002:000167d8       __real@42b60000            100ab7d8     AntiAim.obj
 0002:000167dc       __real@42c60000            100ab7dc     RageBot.obj
 0002:000167e0       __real@42c80000            100ab7e0     AntiAim.obj
 0002:000167e4       __real@42dc0000            100ab7e4     EndScene.obj
 0002:000167e8       __real@42f00000            100ab7e8     AntiAim.obj
 0002:000167ec       __real@43080000            100ab7ec     AntiAim.obj
 0002:000167f0       __real@43110000            100ab7f0     Util.obj
 0002:000167f4       __real@43130000            100ab7f4     Util.obj
 0002:000167f8       __real@43150000            100ab7f8     AntiAim.obj
 0002:000167fc       __real@43160000            100ab7fc     EndScene.obj
 0002:00016800       __real@432a0000            100ab800     AntiAim.obj
 0002:00016804       __real@43330000            100ab804     AntiAim.obj
 0002:00016808       __real@43340000            100ab808     Miscellaneous.obj
 0002:0001680c       __real@43480000            100ab80c     Util.obj
 0002:00016810       __real@43590000            100ab810     Util.obj
 0002:00016814       __real@435b0000            100ab814     AntiAim.obj
 0002:00016818       __real@435c0000            100ab818     EndScene.obj
 0002:0001681c       __real@43620000            100ab81c     AntiAim.obj
 0002:00016820       __real@43700000            100ab820     AntiAim.obj
 0002:00016824       __real@437f0000            100ab824     Util.obj
 0002:00016828       __real@43870000            100ab828     EndScene.obj
 0002:0001682c       __real@43960000            100ab82c     EndScene.obj
 0002:00016830       __real@43a50000            100ab830     EndScene.obj
 0002:00016834       __real@43b40000            100ab834     Miscellaneous.obj
 0002:00016838       __real@43c00000            100ab838     AntiAim.obj
 0002:0001683c       __real@43d48000            100ab83c     EndScene.obj
 0002:00016840       __real@43fa0000            100ab840     EndScene.obj
 0002:00016844       __real@44098000            100ab844     Util.obj
 0002:00016848       __real@443b8000            100ab848     EndScene.obj
 0002:0001684c       __real@44480000            100ab84c     Config.obj
 0002:00016850       __real@44bb8000            100ab850     Visuals.obj
 0002:00016854       __real@453b8000            100ab854     Autowall.obj
 0002:00016858       __real@45dac000            100ab858     AntiAim.obj
 0002:0001685c       __real@46000000            100ab85c     imgui_draw.obj
 0002:00016860       __real@461c3c00            100ab860     imgui.obj
 0002:00016864       __real@46fffe00            100ab864     Math.obj
 0002:00016868       __real@47c35000            100ab868     Draw.obj
 0002:0001686c       __real@4cbebc20            100ab86c     AntiAim.obj
 0002:00016870       __real@7f7fffff            100ab870     imgui.obj
 0002:00016874       __real@bc23d70a            100ab874     LegitBot.obj
 0002:00016878       __real@beaaaaab            100ab878     imgui.obj
 0002:0001687c       __real@bf000000            100ab87c     imgui.obj
 0002:00016880       __real@bf400000            100ab880     imgui.obj
 0002:00016884       __real@bf5db22d            100ab884     imgui.obj
 0002:00016888       __real@bf5db3d0            100ab888     imgui.obj
 0002:0001688c       __real@bf800000            100ab88c     imgui.obj
 0002:00016890       __real@c0000000            100ab890     imgui.obj
 0002:00016894       __real@c1800000            100ab894     EndScene.obj
 0002:00016898       __real@c1a00000            100ab898     AntiAim.obj
 0002:0001689c       __real@c2340000            100ab89c     AntiAim.obj
 0002:000168a0       __real@c2440000            100ab8a0     AntiAim.obj
 0002:000168a4       __real@c28a0000            100ab8a4     AntiAim.obj
 0002:000168a8       __real@c28c0000            100ab8a8     EndScene.obj
 0002:000168ac       __real@c2b20000            100ab8ac     LegitBot.obj
 0002:000168b0       __real@c2b40000            100ab8b0     AntiAim.obj
 0002:000168b4       __real@c30b0000            100ab8b4     AntiAim.obj
 0002:000168b8       __real@c3210000            100ab8b8     AntiAim.obj
 0002:000168bc       __real@c3340000            100ab8bc     Miscellaneous.obj
 0002:000168c0       __real@c4bb8000            100ab8c0     Visuals.obj
 0002:000168c4       __real@c6000000            100ab8c4     imgui_draw.obj
 0002:000168c8       __real@c87a0000            100ab8c8     imgui.obj
 0002:000168d0       __xmm@0000000000000000000000003f800000 100ab8d0     imgui_impl_dx9.obj
 0002:000168e0       __xmm@00000000000000003f80000000000000 100ab8e0     imgui_impl_dx9.obj
 0002:000168f0       __xmm@0000000000000000412000003c23d70a 100ab8f0     imgui.obj
 0002:00016900       __xmm@00000000000000010000000000000000 100ab900     imgui_draw.obj
 0002:00016910       __xmm@000000003d4ccccd3f8000003d4ccccd 100ab910     EndScene.obj
 0002:00016920       __xmm@000000003f8000000000000000000000 100ab920     imgui_impl_dx9.obj
 0002:00016930       __xmm@000000003f8000003f8000003f800000 100ab930     Config.obj
 0002:00016940       __xmm@00000003000000020000000100000000 100ab940     imgui_draw.obj
 0002:00016950       __xmm@00000008000000080000000800000008 100ab950     imgui_draw.obj
 0002:00016960       __xmm@00042c0419032c4d08010f0c1e04296d 100ab960     EndScene.obj
 0002:00016970       __xmm@000d001d001a3106111a033b1c2b1974 100ab970     Offsets.obj
 0002:00016980       __xmm@002e2524272a2f252a3f384b3828396b 100ab980     EndScene.obj
 0002:00016990       __xmm@003a260863372c01312624242a311743 100ab990     EndScene.obj
 0002:000169a0       __xmm@0052444d464f60445864464f407e4c21 100ab9a0     Offsets.obj
 0002:000169b0       __xmm@005a4668034d6c03514644444a517723 100ab9b0     EndScene.obj
 0002:000169c0       __xmm@005e494f4048655d45466d5d4e75472a 100ab9c0     Offsets.obj
 0002:000169d0       __xmm@006161252024296c612a22242f6c6118 100ab9d0     EndScene.obj
 0002:000169e0       __xmm@006e78717f7c6f7c784a64507542701d 100ab9e0     Offsets.obj
 0002:000169f0       __xmm@050e23613128296c613228372d243161 100ab9f0     EndScene.obj
 0002:00016a00       __xmm@0609381109041a0d1e271b1d0b072e68 100aba00     PaintTraverse.obj
 0002:00016a10       __xmm@06110e111512143802010e090c381167 100aba10     applyknife.obj
 0002:00016a20       __xmm@0a060a1904050a1b341f050e0207086b 100aba20     Util.obj
 0002:00016a30       __xmm@0b0241071c1a1f300a0906010430196f 100aba30     applyknife.obj
 0002:00016a40       __xmm@0b0e010a1d283c2c0a1c0e2d303b2b6f 100aba40     Offsets.obj
 0002:00016a50       __xmm@0d25333a313817332f13313837093b56 100aba50     Offsets.obj
 0002:00016a60       __xmm@0e1a0d1c1c1d0a370d0e010603371e68 100aba60     applyknife.obj
 0002:00016a70       __xmm@0f151a170b15121c1e1924191614197b 100aba70     GameEvent.obj
 0002:00016a80       __xmm@102808151e330314061e3d1d172e1c71 100aba80     Offsets.obj
 0002:00016a90       __xmm@13051734253518190617132129223276 100aba90     Offsets.obj
 0002:00016aa0       __xmm@13061520061102061107163b1c2b1974 100abaa0     Offsets.obj
 0002:00016ab0       __xmm@150e191c18155d09183a035d041c0e7d 100abab0     GameEvent.obj
 0002:00016ac0       __xmm@155d0a18135d04081f5d19131c5d0912 100abac0     GameEvent.obj
 0002:00016ad0       __xmm@181501071d2210151b181126162b1974 100abad0     Offsets.obj
 0002:00016ae0       __xmm@18190617132113001f0215371e291b76 100abae0     Offsets.obj
 0002:00016af0       __xmm@191f1e151a17102913101f181d290076 100abaf0     applyknife.obj
 0002:00016b00       __xmm@1a061d1d1f215217041b060213163372 100abb00     EndScene.obj
 0002:00016b10       __xmm@1a151e2b02181a090e18183a1d24167b 100abb10     Offsets.obj
 0002:00016b20       __xmm@1d2f0c191a15173b1d0b193a272c3c78 100abb20     Offsets.obj
 0002:00016b30       __xmm@1f05182d04050319030606052935076a 100abb30     Offsets.obj
 0002:00016b40       __xmm@232222142c2426252b2b260129182a47 100abb40     Offsets.obj
 0002:00016b50       __xmm@2564657a6b6f7d2a6e63666b7c64430a 100abb50     EndScene.obj
 0002:00016b60       __xmm@2a2c3f3c3d37303e3c3b063b34363b59 100abb60     GameEvent.obj
 0002:00016b70       __xmm@2b3d2f0c1d0d20213e2f2b19111a0a4e 100abb70     Offsets.obj
 0002:00016b80       __xmm@2d262f0029222f3411362428371e2c41 100abb80     Offsets.obj
 0002:00016b90       __xmm@312a3232163a323e18312a183d00325f 100abb90     Offsets.obj
 0002:00016ba0       __xmm@35343f1d27353906352331120f041450 100abba0     Offsets.obj
 0002:00016bb0       __xmm@37312221202a2d2321261b26292b2644 100abbb0     GameEvent.obj
 0002:00016bc0       __xmm@3935392a37363928072c363d31343b58 100abbc0     EndScene.obj
 0002:00016bd0       __xmm@3c23d70a000000000000000000000000 100abbd0     imgui.obj
 0002:00016be0       __xmm@3c303c2f32333c2d0229333834313e5d 100abbe0     EndScene.obj
 0002:00016bf0       __xmm@3d16213437383a16302634170a011155 100abbf0     Offsets.obj
 0002:00016c00       __xmm@3dcccccd3dcccccd3dcccccd3dcccccd 100abc00     EndScene.obj
 0002:00016c10       __xmm@3e4ccccd000000003f8000003e99999a 100abc10     Config.obj
 0002:00016c20       __xmm@3e4ccccd3f4ccccd3ecccccd3ecccccd 100abc20     imgui.obj
 0002:00016c30       __xmm@3e4ccccd437f00004000000000000000 100abc30     FrameStageNotify.obj
 0002:00016c40       __xmm@3e99999a3f4ccccd3ecccccd3ecccccd 100abc40     imgui.obj
 0002:00016c50       __xmm@3e99999a3f4ccccd3f4ccccd3f4ccccd 100abc50     imgui.obj
 0002:00016c60       __xmm@3e99999a3f8000003f8000003f800000 100abc60     imgui.obj
 0002:00016c70       __xmm@3eb333333e4ccccd3e4ccccd3e4ccccd 100abc70     imgui.obj
 0002:00016c80       __xmm@3eb333333f8000000000000000000000 100abc80     imgui.obj
 0002:00016c90       __xmm@3ec7ae14000000003f0000003f800000 100abc90     imgui.obj
 0002:00016ca0       __xmm@3ec7ae143e75c28f3e75c28f3e75c28f 100abca0     EndScene.obj
 0002:00016cb0       __xmm@3ec7ae143f170a3d3f170a3d3f170a3d 100abcb0     EndScene.obj
 0002:00016cc0       __xmm@3ecccccd3f0000003f0000003f4ccccd 100abcc0     imgui.obj
 0002:00016cd0       __xmm@3ecccccd3f3333333f3333333f333333 100abcd0     imgui.obj
 0002:00016ce0       __xmm@3ecccccd3f4ccccd3ecccccd3ecccccd 100abce0     imgui.obj
 0002:00016cf0       __xmm@3ecccccd3f4ccccd3f4ccccd3f666666 100abcf0     imgui.obj
 0002:00016d00       __xmm@3ee666663f2666663f2666663f666666 100abd00     imgui.obj
 0002:00016d10       __xmm@3ee666663f6666663ecccccd3ecccccd 100abd10     imgui.obj
 0002:00016d20       __xmm@3f0000003f6666663f0000003f000000 100abd20     imgui.obj
 0002:00016d30       __xmm@3f0000003f6666663f6666663f666666 100abd30     imgui.obj
 0002:00016d40       __xmm@3f142336353a38143224361508031357 100abd40     Offsets.obj
 0002:00016d50       __xmm@3f19999a3e99999a3e8000003e4ccccd 100abd50     imgui.obj
 0002:00016d60       __xmm@3f19999a3ecccccd3ecccccd3f2b851f 100abd60     imgui.obj
 0002:00016d70       __xmm@3f19999a3f6666663f3333333f333333 100abd70     imgui.obj
 0002:00016d80       __xmm@3f19999a3f8000003f8000003f800000 100abd80     imgui.obj
 0002:00016d90       __xmm@3f1c28f6000000003f0000003f800000 100abd90     EndScene.obj
 0002:00016da0       __xmm@3f1c28f63e75c28f3e75c28f3e75c28f 100abda0     EndScene.obj
 0002:00016db0       __xmm@3f1c28f63f170a3d3f170a3d3f170a3d 100abdb0     EndScene.obj
 0002:00016dc0       __xmm@3f333333000000000000000000000000 100abdc0     imgui.obj
 0002:00016dd0       __xmm@3f3333333e19999a3f80000000000000 100abdd0     Config.obj
 0002:00016de0       __xmm@3f4ccccd3f0ccccd3ecccccd3ecccccd 100abde0     imgui.obj
 0002:00016df0       __xmm@3f4ccccd3f5eb8523f07ae143f07ae14 100abdf0     imgui.obj
 0002:00016e00       __xmm@3f4ccccd3f6666663ee666663ee66666 100abe00     imgui.obj
 0002:00016e10       __xmm@3f547ae13f0a3d713e8a3d713e8a3d71 100abe10     imgui.obj
 0002:00016e20       __xmm@3f59999a3f8000003f33333300000000 100abe20     Config.obj
 0002:00016e30       __xmm@3f5eb8523f2147ae3ea3d70a3ea3d70a 100abe30     imgui.obj
 0002:00016e40       __xmm@3f6666663dcccccd3d4ccccd3d4ccccd 100abe40     imgui.obj
 0002:00016e50       __xmm@3f6666663f8000003f8000003f800000 100abe50     imgui.obj
 0002:00016e60       __xmm@3f7d70a43e4ccccd3e4ccccd3e4ccccd 100abe60     imgui.obj
 0002:00016e70       __xmm@3f800000000000000000000000000000 100abe70     imgui_impl_dx9.obj
 0002:00016e80       __xmm@3f80000000000000000000003f70e560 100abe80     Config.obj
 0002:00016e90       __xmm@3f800000000000003f0000003f800000 100abe90     imgui.obj
 0002:00016ea0       __xmm@3f800000000000003f19999a3f800000 100abea0     imgui.obj
 0002:00016eb0       __xmm@3f800000000000003f3333333f666666 100abeb0     imgui.obj
 0002:00016ec0       __xmm@3f800000000000003f8000003f800000 100abec0     Config.obj
 0002:00016ed0       __xmm@3f8000003ca3d70a3ca3d70a3ca3d70a 100abed0     EndScene.obj
 0002:00016ee0       __xmm@3f8000003d4ccccd3ef0a3d73e99999a 100abee0     Config.obj
 0002:00016ef0       __xmm@3f8000003de147ae3dcccccd3de147ae 100abef0     imgui.obj
 0002:00016f00       __xmm@3f8000003df5c28f3df5c28f3df5c28f 100abf00     EndScene.obj
 0002:00016f10       __xmm@3f8000003e23d70a3e23d70a3e23d70a 100abf10     EndScene.obj
 0002:00016f20       __xmm@3f8000003e4ccccd3e4ccccd3e4ccccd 100abf20     EndScene.obj
 0002:00016f30       __xmm@3f8000003e570a3d3e4ccccd3e570a3d 100abf30     imgui.obj
 0002:00016f40       __xmm@3f8000003e75c28f3e75c28f3e75c28f 100abf40     EndScene.obj
 0002:00016f50       __xmm@3f8000003e99999a000000003f800000 100abf50     Config.obj
 0002:00016f60       __xmm@3f8000003e99999a3e99999a3e9eb852 100abf60     Config.obj
 0002:00016f70       __xmm@3f8000003ecccccd3ecccccd3f2b851f 100abf70     imgui.obj
 0002:00016f80       __xmm@3f8000003f0000003f0000003f000000 100abf80     imgui.obj
 0002:00016f90       __xmm@3f8000003f0000003f0000003f4ccccd 100abf90     imgui.obj
 0002:00016fa0       __xmm@3f8000003f170a3d3f170a3d3f170a3d 100abfa0     EndScene.obj
 0002:00016fb0       __xmm@3f8000003f19999a3f19999a3f19999a 100abfb0     imgui.obj
 0002:00016fc0       __xmm@3f8000003f3333333f19999a3f19999a 100abfc0     imgui.obj
 0002:00016fd0       __xmm@3f8000003f3333333f3333333f333333 100abfd0     imgui.obj
 0002:00016fe0       __xmm@3f8000003f4000003f2b851f3f000000 100abfe0     Config.obj
 0002:00016ff0       __xmm@3f8000003f6666663f3333333f333333 100abff0     imgui.obj
 0002:00017000       __xmm@3f8000003f6666663f5eb8523f59999a 100ac000     Config.obj
 0002:00017010       __xmm@3f8000003f6666663f6666663f666666 100ac010     imgui.obj
 0002:00017020       __xmm@3f8000003f8000003e4ccccd00000000 100ac020     Config.obj
 0002:00017030       __xmm@3f8000003f8000003f8000003f800000 100ac030     imgui.obj
 0002:00017040       __xmm@40000000400000004040000000000000 100ac040     FrameStageNotify.obj
 0002:00017050       __xmm@41f00000000000000000000000000000 100ac050     Util.obj
 0002:00017060       __xmm@42454d7c474f4d4e40404d6a4273412c 100ac060     Offsets.obj
 0002:00017070       __xmm@43202643505b43202643215b43565663 100ac070     Util.obj
 0002:00017080       __xmm@437f0000432900004327000043260000 100ac080     Util.obj
 0002:00017090       __xmm@437f0000437f0000437f0000437f0000 100ac090     imgui.obj
 0002:000170a0       __xmm@44454e6c56444877445240637e756521 100ac0a0     Offsets.obj
 0002:000170b0       __xmm@4851504857485748574857485e504851 100ac0b0     Util.obj
 0002:000170c0       __xmm@4855405354654952404d674d477e4c21 100ac0c0     Offsets.obj
 0002:000170d0       __xmm@4b5a4c595970485a56695c5a4960523f 100ac0d0     Offsets.obj
 0002:000170e0       __xmm@4e564a47466e2e23544c6f2e234c6d23 100ac0e0     EndScene.obj
 0002:000170f0       __xmm@4f7574726f7a776e767248777d44761b 100ac0f0     Offsets.obj
 0002:00017100       __xmm@504857485748574857485e58485f2b68 100ac100     Util.obj
 0002:00017110       __xmm@525b555659723753525b5556445e7337 100ac110     EndScene.obj
 0002:00017120       __xmm@5b575b4855545b4a654e545f5356593a 100ac120     Util.obj
 0002:00017130       __xmm@5c435c435c435c43565243215b435b53 100ac130     Util.obj
 0002:00017140       __xmm@5d5a7c4a434d4e444e4a5d6d707b6b2f 100ac140     Offsets.obj
 0002:00017150       __xmm@5e3d3b5e4d465e3d3b5e3c465e4b4b7e 100ac150     Util.obj
 0002:00017160       __xmm@5e697a65786578697c61634f6553610c 100ac160     Offsets.obj
 0002:00017170       __xmm@60065e4964524f6e064b495255536526 100ac170     EndScene.obj
 0002:00017180       __xmm@6052716467686a46607664475a514105 100ac180     Offsets.obj
 0002:00017190       __xmm@610c6750595853714b59556a5463513c 100ac190     Offsets.obj
 0002:000171a0       __xmm@674c7b6e6d62604c6a7c6e4d505b4b0f 100ac1a0     Offsets.obj
 0002:000171b0       __xmm@680a796b620a68676568540a534b592a 100ac1b0     GameEvent.obj
 0002:000171c0       __xmm@68787d680e0e687e7d68776877687768 100ac1c0     Util.obj
 0002:000171d0       __xmm@6c606c7f62636c7d5279636864616e0d 100ac1d0     EndScene.obj
 0002:000171e0       __xmm@6e6f66686b644f2a7e65686f6d6b580a 100ac1e0     EndScene.obj
 0002:000171f0       __xmm@6f406b6d6f625e7a7d6f42747d51630e 100ac1f0     Offsets.obj
 0002:00017200       __xmm@716a7f6a7d7b6e4d3e6a7b796c7f4a1e 100ac200     Visuals.obj
 0002:00017210       __xmm@767f747d527b707d66437e7a724c7e13 100ac210     Offsets.obj
 0002:00017220       __xmm@7768710a687768776877687768790948 100ac220     Util.obj
 0002:00017230       __xmm@777162616070766b66655b66696b6604 100ac230     GameEvent.obj
 0002:00017240       __xmm@7e0e6b7c6f0e6c63616c500e574f5d2e 100ac240     GameEvent.obj
 0002:00017250       __xmm@7e15373a272d21222b182d2b3811234e 100ac250     Offsets.obj
 0002:00017260       __xmm@7f74676b6f7456727e63486a60596b06 100ac260     Offsets.obj
 0002:00017270       __xmm@7f7b636060636a53696b6d787f63640c 100ac270     GameEvent.obj
 0002:00017280       __xmm@7f7fffff7f7fffffff7fffffff7fffff 100ac280     imgui.obj
 0002:00017290       __xmm@7fffffff7fffffff7fffffff7fffffff 100ac290     imgui.obj
 0002:000172a0       __xmm@7fffffffffffffff7fffffffffffffff 100ac2a0     AntiAim.obj
 0002:000172b0       __xmm@80000000000000008000000000000000 100ac2b0     Visuals.obj
 0002:000172c0       __xmm@80000000800000008000000080000000 100ac2c0     LegitBot.obj
 0002:000172d0       __xmm@ff7fffffff7fffff7f7fffff7f7fffff 100ac2d0     imgui.obj
 0002:000172e0       __xmm@ffffffffffffffffffffffffffffffff 100ac2e0     imgui.obj
 0002:000173b8       __load_config_used         100ac3b8     MSVCRT:loadcfg.obj
 0002:00017458       __tls_used                 100ac458     MSVCRT:tlssup.obj
 0002:00017470       ??_R4type_info@@6B@        100ac470     MSVCRT:std_type_info_static.obj
 0002:00017484       ??_R3type_info@@8          100ac484     MSVCRT:std_type_info_static.obj
 0002:00017494       ??_R2type_info@@8          100ac494     MSVCRT:std_type_info_static.obj
 0002:0001749c       ??_R1A@?0A@EA@type_info@@8 100ac49c     MSVCRT:std_type_info_static.obj
 0002:000174b8       ??_R4bad_alloc@std@@6B@    100ac4b8     MSVCRT:throw_bad_alloc.obj
 0002:000174cc       ??_R3bad_alloc@std@@8      100ac4cc     MSVCRT:throw_bad_alloc.obj
 0002:000174dc       ??_R2bad_alloc@std@@8      100ac4dc     MSVCRT:throw_bad_alloc.obj
 0002:000174e8       ??_R1A@?0A@EA@bad_alloc@std@@8 100ac4e8     MSVCRT:throw_bad_alloc.obj
 0002:00017504       ??_R4bad_array_new_length@std@@6B@ 100ac504     MSVCRT:throw_bad_alloc.obj
 0002:00017518       ??_R3bad_array_new_length@std@@8 100ac518     MSVCRT:throw_bad_alloc.obj
 0002:00017528       ??_R2bad_array_new_length@std@@8 100ac528     MSVCRT:throw_bad_alloc.obj
 0002:00017538       ??_R1A@?0A@EA@bad_array_new_length@std@@8 100ac538     MSVCRT:throw_bad_alloc.obj
 0002:00017554       ??_R4CTraceFilter@@6B@     100ac554     AntiAim.obj
 0002:00017568       ??_R1A@?0A@EA@CTraceFilter@@8 100ac568     AntiAim.obj
 0002:00017584       ??_R3ITraceFilter@@8       100ac584     AntiAim.obj
 0002:00017594       ??_R2CTraceFilter@@8       100ac594     AntiAim.obj
 0002:000175a0       ??_R1A@?0A@EA@ITraceFilter@@8 100ac5a0     AntiAim.obj
 0002:000175bc       ??_R3CTraceFilter@@8       100ac5bc     AntiAim.obj
 0002:000175cc       ??_R2ITraceFilter@@8       100ac5cc     AntiAim.obj
 0002:000175d4       ??_R1A@?0A@EA@JsonBoolean@json11@@8 100ac5d4     json11.obj
 0002:000175f0       ??_R2?$_Ref_count_obj@VJsonNull@json11@@@std@@8 100ac5f0     json11.obj
 0002:000175fc       ??_R1A@?0A@EA@_Ref_count_base@std@@8 100ac5fc     json11.obj
 0002:00017618       ??_R2?$Value@$01_N@json11@@8 100ac618     json11.obj
 0002:00017624       ??_R2JsonBoolean@json11@@8 100ac624     json11.obj
 0002:00017634       ??_R3JsonNull@json11@@8    100ac634     json11.obj
 0002:00017644       ??_R3?$_Ref_count_obj@VJsonNull@json11@@@std@@8 100ac644     json11.obj
 0002:00017654       ??_R2?$_Ref_count_obj@VJsonBoolean@json11@@@std@@8 100ac654     json11.obj
 0002:00017660       ??_R3?$Value@$01_N@json11@@8 100ac660     json11.obj
 0002:00017670       ??_R4JsonNull@json11@@6B@  100ac670     json11.obj
 0002:00017684       ??_R3?$_Ref_count_obj@VJsonBoolean@json11@@@std@@8 100ac684     json11.obj
 0002:00017694       ??_R4?$_Ref_count_obj@VJsonNull@json11@@@std@@6B@ 100ac694     json11.obj
 0002:000176a8       ??_R2JsonValue@json11@@8   100ac6a8     json11.obj
 0002:000176b0       ??_R3?$Value@$0A@UNullStruct@json11@@@json11@@8 100ac6b0     json11.obj
 0002:000176c0       ??_R4JsonValue@json11@@6B@ 100ac6c0     json11.obj
 0002:000176d4       ??_R3JsonValue@json11@@8   100ac6d4     json11.obj
 0002:000176e4       ??_R1A@?0A@EA@?$Value@$0A@UNullStruct@json11@@@json11@@8 100ac6e4     json11.obj
 0002:00017700       ??_R1A@?0A@EA@JsonNull@json11@@8 100ac700     json11.obj
 0002:0001771c       ??_R3_Ref_count_base@std@@8 100ac71c     json11.obj
 0002:0001772c       ??_R1A@?0A@EA@?$Value@$01_N@json11@@8 100ac72c     json11.obj
 0002:00017748       ??_R4JsonBoolean@json11@@6B@ 100ac748     json11.obj
 0002:0001775c       ??_R2JsonNull@json11@@8    100ac75c     json11.obj
 0002:0001776c       ??_R1A@?0A@EA@JsonValue@json11@@8 100ac76c     json11.obj
 0002:00017788       ??_R2_Ref_count_base@std@@8 100ac788     json11.obj
 0002:00017790       ??_R1A@?0A@EA@?$_Ref_count_obj@VJsonNull@json11@@@std@@8 100ac790     json11.obj
 0002:000177ac       ??_R4?$_Ref_count_obj@VJsonBoolean@json11@@@std@@6B@ 100ac7ac     json11.obj
 0002:000177c0       ??_R3JsonBoolean@json11@@8 100ac7c0     json11.obj
 0002:000177d0       ??_R2?$Value@$0A@UNullStruct@json11@@@json11@@8 100ac7d0     json11.obj
 0002:000177dc       ??_R1A@?0A@EA@?$_Ref_count_obj@VJsonBoolean@json11@@@std@@8 100ac7dc     json11.obj
 0002:000177f8       ??_R4CInput@@6B@           100ac7f8     Input.obj
